 speed_controller_copy_slrt

 Timestamp is 6567e1aa (Wed Nov 29 17:13:14 2023)

 Preferred load address is 10000000

 Start         Length     Name                   Class
 0001:00000000 0006f19aH .text$mn                CODE
 0001:0006f19a 00001085H .text$x                 CODE
 0002:00000000 00000104H .CRT$XCA                DATA
 0002:00000104 00000104H .CRT$XCZ                DATA
 0002:00000208 00000104H .CRT$XIA                DATA
 0002:0000030c 00000110H .CRT$XIC                DATA
 0002:0000041c 00000104H .CRT$XIZ                DATA
 0002:00000520 00000104H .CRT$XPA                DATA
 0002:00000624 0000010cH .CRT$XPX                DATA
 0002:00000730 00000104H .CRT$XPXA               DATA
 0002:00000834 00000104H .CRT$XPZ                DATA
 0002:00000938 00000104H .CRT$XTA                DATA
 0002:00000a3c 00000104H .CRT$XTZ                DATA
 0002:00000b40 0000f9a0H .rdata                  DATA
 0002:000104e0 00000450H .rdata$r                DATA
 0002:00010930 00000128H .rdata$sxdata           DATA
 0002:00010a58 000001c4H .rdata$zzzdbg           DATA
 0002:00010c1c 00000104H .rtc$IAA                DATA
 0002:00010d20 00000104H .rtc$IZZ                DATA
 0002:00010e24 00000104H .rtc$TAA                DATA
 0002:00010f28 00000108H .rtc$TZZ                DATA
 0002:00011030 00000ce0H .xdata$x                DATA
 0002:00011d10 00000210H .edata                  DATA
 0003:00000000 000014dcH .data                   DATA
 0003:000014dc 00000264H .data$r                 DATA
 0003:00001740 000159fcH .bss                    DATA
 0004:00000000 000001b4H .idata$5                DATA
 0004:000001b4 00000014H .idata$2                DATA
 0004:000001c8 00000014H .idata$3                DATA
 0004:000001dc 000001b4H .idata$4                DATA
 0004:00000390 000007a2H .idata$6                DATA
 0005:00000000 00000104H .00cfg                  DATA

  Address         Publics by Value              Rva+Base       Lib:Object

 0000:00000000       ___guard_fids_table        00000000     <absolute>
 0000:00000000       ___hybrid_code_map         00000000     <absolute>
 0000:00000000       __except_list              00000000     <absolute>
 0000:00000000       ___hybrid_code_map_count   00000000     <absolute>
 0000:00000000       ___guard_longjmp_table     00000000     <absolute>
 0000:00000000       ___hybrid_auxiliary_iat    00000000     <absolute>
 0000:00000000       ___enclave_config          00000000     <absolute>
 0000:00000000       ___dynamic_value_reloc_table 00000000     <absolute>
 0000:00000000       ___guard_iat_count         00000000     <absolute>
 0000:00000000       ___guard_iat_table         00000000     <absolute>
 0000:00000000       ___guard_fids_count        00000000     <absolute>
 0000:00000000       ___guard_longjmp_count     00000000     <absolute>
 0000:00000008       ___safe_se_handler_count   00000008     <absolute>
 0000:00000100       ___guard_flags             00000100     <absolute>
 0000:00000000       ___ImageBase               10000000     <linker-defined>
 0001:00006390       _MdlInitialize             10007390 f   speed_controller_copy.obj
 0001:000063a0       _MdlInitializeSampleTimes  100073a0 f   speed_controller_copy.obj
 0001:000063b0       _MdlInitializeSizes        100073b0 f   speed_controller_copy.obj
 0001:000063c0       _MdlOutputs                100073c0 f   speed_controller_copy.obj
 0001:000063d0       _MdlStart                  100073d0 f   speed_controller_copy.obj
 0001:000063e0       _MdlTerminate              100073e0 f   speed_controller_copy.obj
 0001:00006440       _MdlUpdate                 10007440 f   speed_controller_copy.obj
 0001:000065a0       ___local_stdio_printf_options 100075a0 f i speed_controller_copy.obj
 0001:000065b0       __vfprintf_l               100075b0 f i speed_controller_copy.obj
 0001:000065e0       _printf                    100075e0 f i speed_controller_copy.obj
 0001:00006620       _speed_controller_copy     10007620 f   speed_controller_copy.obj
 0001:00008bb0       _rt_mxCreateCharMatrixFromStrings 10009bb0 f   rt_matrx.obj
 0001:00008d10       _rt_mxCreateDoubleMatrix   10009d10 f   rt_matrx.obj
 0001:00008d70       _rt_mxCreateNumericArray   10009d70 f   rt_matrx.obj
 0001:00008de0       _rt_mxCreateString         10009de0 f   rt_matrx.obj
 0001:00008e70       _rt_mxDuplicateArray       10009e70 f   rt_matrx.obj
 0001:00008ed0       _rt_mxGetDimensions        10009ed0 f   rt_matrx.obj
 0001:00008f10       _rt_mxGetEps               10009f10 f   rt_matrx.obj
 0001:00008f20       _rt_mxGetString            10009f20 f   rt_matrx.obj
 0001:00008fa0       _rtPrintfNoOp              10009fa0 f   rt_printf.obj
 0001:00008fb0       __vsnprintf_l              10009fb0 f i rt_logging.obj
 0001:00008ff0       __vsprintf_l               10009ff0 f i rt_logging.obj
 0001:00009030       _fprintf                   1000a030 f i rt_logging.obj
 0001:00009530       _rt_CreateLogVar           1000a530 f   rt_logging.obj
 0001:000095c0       _rt_CreateLogVarWithConvert 1000a5c0 f   rt_logging.obj
 0001:00009ef0       _rt_CreateStructLogVar     1000aef0 f   rt_logging.obj
 0001:0000ac70       _rt_GetMxIdFromDTypeId     1000bc70 f   rt_logging.obj
 0001:0000aca0       _rt_GetMxIdFromDTypeIdForRSim 1000bca0 f   rt_logging.obj
 0001:0000d850       _rt_StartDataLogging       1000e850 f   rt_logging.obj
 0001:0000dd10       _rt_StartDataLoggingWithStartTime 1000ed10 f   rt_logging.obj
 0001:0000e180       _rt_StopDataLogging        1000f180 f   rt_logging.obj
 0001:0000e1a0       _rt_StopDataLoggingImpl    1000f1a0 f   rt_logging.obj
 0001:0000e5c0       _rt_UpdateLogVar           1000f5c0 f   rt_logging.obj
 0001:0000f730       _rt_UpdateStructLogVar     10010730 f   rt_logging.obj
 0001:0000f7c0       _rt_UpdateTXXFYLogVars     100107c0 f   rt_logging.obj
 0001:0000fc20       _rt_UpdateTXYLogVars       10010c20 f   rt_logging.obj
 0001:0000fe60       _rt_getTempMemory          10010e60 f   rt_logging.obj
 0001:0000feb0       _sprintf                   10010eb0 f i rt_logging.obj
 0001:0000fef0       _rtGetInf                  10010ef0 f   rtGetInf.obj
 0001:0000ff20       _rtGetInfF                 10010f20 f   rtGetInf.obj
 0001:0000ff40       _rtGetMinusInf             10010f40 f   rtGetInf.obj
 0001:0000ff70       _rtGetMinusInfF            10010f70 f   rtGetInf.obj
 0001:0000ff90       _rtGetNaN                  10010f90 f   rtGetNaN.obj
 0001:0000ffc0       _rtGetNaNF                 10010fc0 f   rtGetNaN.obj
 0001:0000ffe0       _rtIsInf                   10010fe0 f   rt_nonfinite.obj
 0001:00010020       _rtIsInfF                  10011020 f   rt_nonfinite.obj
 0001:00010060       _rtIsNaN                   10011060 f   rt_nonfinite.obj
 0001:00010070       _rtIsNaNF                  10011070 f   rt_nonfinite.obj
 0001:00010080       _rt_InitInfAndNaN          10011080 f   rt_nonfinite.obj
 0001:000100e0       _speed_controller_copy_GetCAPIStaticMap 100110e0 f   speed_controller_copy_capi.obj
 0001:000100f0       _speed_controller_copy_InitializeDataMapInfo 100110f0 f   speed_controller_copy_capi.obj
 0001:000101c0       _mdlXcp_GetMdlXcpInfo      100111c0 f   speed_controller_copy_xcp.obj
 0001:000101d0       _SLRT_update_TET           100111d0 f   speed_controller_copy_xcp_TET.obj
 0001:000102a0       _rt_CleanUpForStateLogWithMMI 100112a0 f   rt_logging_mmi.obj
 0001:000103b0       _rt_FillStateSigInfoFromMMI 100113b0 f   rt_logging_mmi.obj
 0001:00010750       _rtwCAPI_CountSysRan       10011750 f   rtw_modelmap_utils.obj
 0001:000107f0       _rtwCAPI_EncodePath        100117f0 f   rtw_modelmap_utils.obj
 0001:00010900       _rtwCAPI_FillSysRan        10011900 f   rtw_modelmap_utils.obj
 0001:000109f0       _rtwCAPI_FreeFullPaths     100119f0 f   rtw_modelmap_utils.obj
 0001:00010a80       _rtwCAPI_GetFullStateBlockPath 10011a80 f   rtw_modelmap_utils.obj
 0001:00010c10       _rtwCAPI_GetNumContStateRecords 10011c10 f   rtw_modelmap_utils.obj
 0001:00010cd0       _rtwCAPI_GetNumSigLogRecords 10011cd0 f   rtw_modelmap_utils.obj
 0001:00010d20       _rtwCAPI_GetNumSigLogRecordsForRTWLogging 10011d20 f   rtw_modelmap_utils.obj
 0001:00010dc0       _rtwCAPI_GetNumStateRecords 10011dc0 f   rtw_modelmap_utils.obj
 0001:00010e10       _rtwCAPI_GetNumStateRecordsForRTWLogging 10011e10 f   rtw_modelmap_utils.obj
 0001:00010eb0       _rtwCAPI_GetSigAddrFromMap 10011eb0 f   rtw_modelmap_utils.obj
 0001:00010f70       _rtwCAPI_GetSigLogRecordInfo 10011f70 f   rtw_modelmap_utils.obj
 0001:000113a0       _rtwCAPI_GetStateRecordInfo 100123a0 f   rtw_modelmap_utils.obj
 0001:00011860       _rtwCAPI_GetStateWidth     10012860 f   rtw_modelmap_utils.obj
 0001:000118c0       _rtwCAPI_HasStates         100128c0 f   rtw_modelmap_utils.obj
 0001:00011920       _rtwCAPI_UpdateFullPaths   10012920 f   rtw_modelmap_utils.obj
 0001:00011b00       _timestamp_x86             10012b00 f   host_timer_x86.obj
 0001:00011b10       _taskTimeEnd               10012b10 f   xpc_code_profiling_utility_functions.obj
 0001:00011b20       _taskTimeEnd_              10012b20 f   xpc_code_profiling_utility_functions.obj
 0001:00011b30       _taskTimeStart             10012b30 f   xpc_code_profiling_utility_functions.obj
 0001:00011b40       _taskTimeStart_            10012b40 f   xpc_code_profiling_utility_functions.obj
 0001:00011b50       _xilProfilingTimerFreeze   10012b50 f   xpc_code_profiling_utility_functions.obj
 0001:00011b60       _xilProfilingTimerUnFreeze 10012b60 f   xpc_code_profiling_utility_functions.obj
 0001:00011b70       _xilUploadProfilingData    10012b70 f   xpc_code_profiling_utility_functions.obj
 0001:00011b80       _DllMain@12                10012b80 f   xpctarget.obj
 0001:00011b90       _SLRTSetErrorStatus        10012b90 f   xpctarget.obj
 0001:00011bb0       _changeStepSize            10012bb0 f   xpctarget.obj
 0001:00011c00       _getDLMVersion             10012c00 f   xpctarget.obj
 0001:00011c10       _getRefMdlPath             10012c10 f   xpctarget.obj
 0001:00011c90       _getRefMdlSignalNumber     10012c90 f   xpctarget.obj
 0001:00011d40       _getrlmdlinfo              10012d40 f   xpctarget.obj
 0001:00011ea0       _speed_controller_copy_ChangeStepSize 10012ea0 f   xpctarget.obj
 0001:00011ef0       _updateDiscreteEvents      10012ef0 f   xpctarget.obj
 0001:00011f00       _getNumRef                 10012f00 f   appmappingData.obj
 0001:00011f10       _vprintf                   10012f10 f i legacy_stdio.obj
 0001:00012780       _sg_IO101_da_s             10013780 f   sg_IO101_da_s.obj
 0001:00012d00       _sg_IO101_setup_s          10013d00 f   sg_IO101_setup_s.obj
 0001:00013330       _sg_IO106_ad_s             10014330 f   sg_IO106_ad_s.obj
 0001:000138f0       _sg_IO106_setup_s          100148f0 f   sg_IO106_setup_s.obj
 0001:00013940       _sg_findPciDevice          10014940 f   sglibc_MSVC140_vc:sglibc.obj
 0001:00013b40       _sg_module_get             10014b40 f   sglibc_MSVC140_vc:sglibc.obj
 0001:00013c00       _sg_module_register        10014c00 f   sglibc_MSVC140_vc:sglibc.obj
 0001:00013cc0       _sg_module_unregister      10014cc0 f   sglibc_MSVC140_vc:sglibc.obj
 0001:00013d50       _sg_wait_ns                10014d50 f   sglibc_MSVC140_vc:sglibc.obj
 0001:00013db0       _GetPCIDeviceFull          10014db0 f   xpcruntime:xpcimports.obj
 0001:00013f20       _GetPCIDeviceFunction      10014f20 f   xpcruntime:xpcimports.obj
 0001:00014090       _ShowPCIDevice             10015090 f   xpcruntime:xpcimports.obj
 0001:000146c0       _slrtGetPciConfigAtFunction 100156c0 f   xpcruntime:xpcimports.obj
 0001:00014a30       _xpcGetPciConfigAtSlot     10015a30 f   xpcruntime:xpcimports.obj
 0001:00014a50       _xpcInitProcs              10015a50 f   xpcruntime:xpcimports.obj
 0001:00015f80       _xpceuploadevent           10016f80 f   xpcruntime:xpcimports.obj
 0001:00015f90       _restoreInterrupts         10016f90 f   xpcruntime:xpcPCFunctions.obj
 0001:00015fa0       _rl32eGetTicksDouble       10016fa0 f   xpcruntime:xpcPCFunctions.obj
 0001:00016020       _saveAndDisableInterrupts  10017020 f   xpcruntime:xpcPCFunctions.obj
 0001:00016040       _xPCSubtractTime           10017040 f   xpcruntime:xpcPCFunctions.obj
 0001:00016070       _xpcSubtractTime           10017070 f   xpcruntime:xpcPCFunctions.obj
 0001:00016150       __ftoui3                   10017150 f   LIBCMT:_ftol3_.obj
 0001:0001615f       __ftoul3                   1001715f f   LIBCMT:_ftol3_.obj
 0001:0001616e       __ftol3                    1001716e f   LIBCMT:_ftol3_.obj
 0001:0001617b       __ftol3_NaN                1001717b f   LIBCMT:_ftol3_.obj
 0001:00016193       __ftol3_work               10017193 f   LIBCMT:_ftol3_.obj
 0001:00016219       __ftol3_common             10017219 f   LIBCMT:_ftol3_.obj
 0001:000162db       __ftol3_arg_error          100172db f   LIBCMT:_ftol3_.obj
 0001:000162ed       __ftol3_except             100172ed f   LIBCMT:_ftol3_.obj
 0001:00016331       __dtoui3                   10017331 f   LIBCMT:_ftol3_.obj
 0001:00016340       __dtoul3                   10017340 f   LIBCMT:_ftol3_.obj
 0001:0001634f       __dtol3                    1001734f f   LIBCMT:_ftol3_.obj
 0001:0001635c       __dtol3_NaN                1001735c f   LIBCMT:_ftol3_.obj
 0001:00016379       __dtol3_work               10017379 f   LIBCMT:_ftol3_.obj
 0001:00016460       __ultod3                   10017460 f   LIBCMT:_ftol3_.obj
 0001:000164a0       __ltod3                    100174a0 f   LIBCMT:_ftol3_.obj
 0001:000165a4       ___raise_securityfailure   100175a4 f   LIBCMT:gs_report.obj
 0001:000165d6       ___report_gsfailure        100175d6 f   LIBCMT:gs_report.obj
 0001:0001670f       ___report_rangecheckfailure 1001770f f   LIBCMT:gs_report.obj
 0001:0001671e       ___report_securityfailure  1001771e f   LIBCMT:gs_report.obj
 0001:00016822       ___report_securityfailureEx 10017822 f   LIBCMT:gs_report.obj
 0001:0001697d       @__security_check_cookie@4 1001797d f   LIBCMT:_secchk_.obj
 0001:00016992       ___isa_available_init      10017992 f   LIBCMT:_cpu_disp_.obj
 0001:00016f93       __CRT_INIT@12              10017f93 f   LIBCMT:dll_dllmain.obj
 0001:00016f9e       __DllMainCRTStartup@12     10017f9e f   LIBCMT:dll_dllmain.obj
 0001:0001702b       ___security_init_cookie    1001802b f   LIBCMT:gs_support.obj
 0001:00017088       ?__scrt_initialize_type_info@@YAXXZ 10018088 f   LIBCMT:tncleanup.obj
 0001:00017097       ?__scrt_uninitialize_type_info@@YAXXZ 10018097 f   LIBCMT:tncleanup.obj
 0001:000170a6       ___local_stdio_scanf_options 100180a6 f i LIBCMT:default_local_stdio_options.obj
 0001:000170ac       ___scrt_initialize_default_local_stdio_options 100180ac f   LIBCMT:default_local_stdio_options.obj
 0001:000170d0       ??$__crt_fast_decode_pointer@PAP6AXXZ@@YAPAP6AXXZQAP6AXXZ@Z 100180d0 f i LIBCMT:utility.obj
 0001:000170e9       ??$__crt_fast_encode_pointer@PAP6AXXZ@@YAPAP6AXXZQAP6AXXZ@Z 100180e9 f i LIBCMT:utility.obj
 0001:0001710d       ?__crt_rotate_pointer_value@@YAIIH@Z 1001810d f i LIBCMT:utility.obj
 0001:0001711d       ?configure_argv@__scrt_narrow_argv_policy@@SAHXZ 1001811d f i LIBCMT:utility.obj
 0001:00017182       ?initialize_environment@__scrt_narrow_environment_policy@@SAHXZ 10018182 f i LIBCMT:utility.obj
 0001:000171c8       _NtCurrentTeb              100181c8 f i LIBCMT:utility.obj
 0001:000171cf       ___scrt_acquire_startup_lock 100181cf f   LIBCMT:utility.obj
 0001:0001720d       ___scrt_dllmain_after_initialize_c 1001820d f   LIBCMT:utility.obj
 0001:00017242       ___scrt_dllmain_before_initialize_c 10018242 f   LIBCMT:utility.obj
 0001:00017253       ___scrt_dllmain_crt_thread_attach 10018253 f   LIBCMT:utility.obj
 0001:00017279       ___scrt_dllmain_crt_thread_detach 10018279 f   LIBCMT:utility.obj
 0001:00017289       ___scrt_dllmain_exception_filter 10018289 f   LIBCMT:utility.obj
 0001:000172ca       ___scrt_dllmain_uninitialize_c 100182ca f   LIBCMT:utility.obj
 0001:000172f5       ___scrt_dllmain_uninitialize_critical 100182f5 f   LIBCMT:utility.obj
 0001:00017305       ___scrt_initialize_crt     10018305 f   LIBCMT:utility.obj
 0001:0001734c       ___scrt_initialize_onexit_tables 1001834c f   LIBCMT:utility.obj
 0001:00017420       ___scrt_is_nonwritable_in_current_image 10018420 f   LIBCMT:utility.obj
 0001:000174cc       ___scrt_release_startup_lock 100184cc f   LIBCMT:utility.obj
 0001:000174f0       ___scrt_uninitialize_crt   100184f0 f   LIBCMT:utility.obj
 0001:00017522       __onexit                   10018522 f   LIBCMT:utility.obj
 0001:0001756b       _at_quick_exit             1001856b f   LIBCMT:utility.obj
 0001:000175a8       _atexit                    100185a8 f   LIBCMT:utility.obj
 0001:000175c2       ___scrt_get_dyn_tls_init_callback 100185c2 f   LIBCMT:dyn_tls_init.obj
 0001:000175c8       ___scrt_fastfail           100185c8 f   LIBCMT:utility_desktop.obj
 0001:0001772b       ___scrt_get_show_window_mode 1001872b f   LIBCMT:utility_desktop.obj
 0001:0001776a       ___scrt_initialize_winrt   1001876a f   LIBCMT:utility_desktop.obj
 0001:0001776d       ___scrt_is_managed_app     1001876d f   LIBCMT:utility_desktop.obj
 0001:000177c0       ___scrt_set_unhandled_exception_filter 100187c0 f   LIBCMT:utility_desktop.obj
 0001:000177cf       ___scrt_unhandled_exception_filter@4 100187cf f   LIBCMT:utility_desktop.obj
 0001:00017820       __crt_debugger_hook        10018820 f   LIBCMT:utility_desktop.obj
 0001:0001782a       __RTC_Initialize           1001882a f   LIBCMT:_initsect_.obj
 0001:00017861       __RTC_Terminate            10018861 f   LIBCMT:_initsect_.obj
 0001:000178a0       __SEH_prolog4              100188a0 f   LIBCMT:_sehprolg4_.obj
 0001:000178e6       __SEH_epilog4              100188e6 f   LIBCMT:_sehprolg4_.obj
 0001:00017911       @_guard_check_icall_nop@4  10018911 f i LIBCMT:guard_support.obj
 0001:00017912       _ReadNoFence               10018912 f i LIBCMT:guard_support.obj
 0001:0001791e       _ReadPointerNoFence        1001891e f i LIBCMT:guard_support.obj
 0001:0001792a       __guard_icall_checks_enforced 1001892a f i LIBCMT:guard_support.obj
 0001:00017940       __get_startup_argv_mode    10018940 f   LIBCMT:argv_mode.obj
 0001:00017944       ___scrt_is_ucrt_dll_in_use 10018944 f   LIBCMT:ucrt_detection.obj
 0001:00017953       _GetModuleHandleA@4        10018953 f   kernel32:KERNEL32.dll
 0001:00017959       _GetProcAddress@8          10018959 f   kernel32:KERNEL32.dll
 0001:0001795f       _UnhandledExceptionFilter@4 1001895f f   kernel32:KERNEL32.dll
 0001:00017965       _SetUnhandledExceptionFilter@4 10018965 f   kernel32:KERNEL32.dll
 0001:0001796b       _GetCurrentProcess@0       1001896b f   kernel32:KERNEL32.dll
 0001:00017971       _TerminateProcess@8        10018971 f   kernel32:KERNEL32.dll
 0001:00017977       _IsProcessorFeaturePresent@4 10018977 f   kernel32:KERNEL32.dll
 0001:0001797d       _QueryPerformanceCounter@4 1001897d f   kernel32:KERNEL32.dll
 0001:00017983       _GetCurrentProcessId@0     10018983 f   kernel32:KERNEL32.dll
 0001:00017989       _GetCurrentThreadId@0      10018989 f   kernel32:KERNEL32.dll
 0001:0001798f       _GetSystemTimeAsFileTime@4 1001898f f   kernel32:KERNEL32.dll
 0001:00017995       _InitializeSListHead@4     10018995 f   kernel32:KERNEL32.dll
 0001:0001799b       _IsDebuggerPresent@0       1001899b f   kernel32:KERNEL32.dll
 0001:000179a1       _GetStartupInfoW@4         100189a1 f   kernel32:KERNEL32.dll
 0001:000179a7       _GetModuleHandleW@4        100189a7 f   kernel32:KERNEL32.dll
 0001:000179b0       _memset                    100189b0 f   libvcruntime:memset.obj
 0001:00017b60       _memcpy                    10018b60 f   libvcruntime:memcpy.obj
 0001:00018240       _strchr                    10019240 f   libvcruntime:strchr.obj
 0001:000182ae       ___from_strstr_to_strchr   100192ae     libvcruntime:strchr.obj
 0001:000183c0       _memmove                   100193c0 f   libvcruntime:memmove.obj
 0001:00018ae0       __except_handler4          10019ae0 f   libvcruntime:_chandler4_.obj
 0001:00018c9c       ??$?RD@__crt_internal_free_policy@@QBEXQBD@Z 10019c9c f i libvcruntime:std_type_info.obj
 0001:00018cb0       ??$?RX@__crt_internal_free_policy@@QBEXQBX@Z 10019cb0 f i libvcruntime:std_type_info.obj
 0001:00018cc4       ??$__crt_interlocked_compare_exchange_pointer@$$CBDPAD$$T@@YAPBDPDSBDQAD$$T@Z 10019cc4 f i libvcruntime:std_type_info.obj
 0001:00018cda       ??$__crt_interlocked_read_pointer@$$CBD@@YAPBDPDSBD@Z 10019cda f i libvcruntime:std_type_info.obj
 0001:00018ce6       ??0?$__crt_unique_heap_ptr@DU__crt_internal_free_policy@@@@QAE@QAD@Z 10019ce6 f i libvcruntime:std_type_info.obj
 0001:00018cf7       ??0?$__crt_unique_heap_ptr@XU__crt_internal_free_policy@@@@QAE@QAX@Z 10019cf7 f i libvcruntime:std_type_info.obj
 0001:00018d08       ??1?$__crt_unique_heap_ptr@DU__crt_internal_free_policy@@@@QAE@XZ 10019d08 f i libvcruntime:std_type_info.obj
 0001:00018d1c       ??1?$__crt_unique_heap_ptr@XU__crt_internal_free_policy@@@@QAE@XZ 10019d1c f i libvcruntime:std_type_info.obj
 0001:00018d3c       ??B?$__crt_unique_heap_ptr@DU__crt_internal_free_policy@@@@QBE_NXZ 10019d3c f i libvcruntime:std_type_info.obj
 0001:00018d43       ??B?$__crt_unique_heap_ptr@XU__crt_internal_free_policy@@@@QBE_NXZ 10019d43 f i libvcruntime:std_type_info.obj
 0001:00018d72       ?__crt_interlocked_read_32@@YAHPDH@Z 10019d72 f i libvcruntime:std_type_info.obj
 0001:00018d7e       ?detach@?$__crt_unique_heap_ptr@XU__crt_internal_free_policy@@@@QAEPAXXZ 10019d7e f i libvcruntime:std_type_info.obj
 0001:00018d84       ?get@?$__crt_unique_heap_ptr@DU__crt_internal_free_policy@@@@QBEPADXZ 10019d84 f i libvcruntime:std_type_info.obj
 0001:00018d87       ?get@?$__crt_unique_heap_ptr@XU__crt_internal_free_policy@@@@QBEPAXXZ 10019d87 f i libvcruntime:std_type_info.obj
 0001:00018d8a       ?is_valid@?$__crt_unique_heap_ptr@DU__crt_internal_free_policy@@@@QBE_NXZ 10019d8a f i libvcruntime:std_type_info.obj
 0001:00018d91       ?is_valid@?$__crt_unique_heap_ptr@XU__crt_internal_free_policy@@@@QBE_NXZ 10019d91 f i libvcruntime:std_type_info.obj
 0001:00018d98       ?release@?$__crt_unique_heap_ptr@DU__crt_internal_free_policy@@@@QAEXXZ 10019d98 f i libvcruntime:std_type_info.obj
 0001:00018dac       ?release@?$__crt_unique_heap_ptr@XU__crt_internal_free_policy@@@@QAEXXZ 10019dac f i libvcruntime:std_type_info.obj
 0001:00018dc0       ___std_type_info_compare   10019dc0 f   libvcruntime:std_type_info.obj
 0001:00018e0b       ___std_type_info_destroy_list 10019e0b f   libvcruntime:std_type_info.obj
 0001:00018e36       ___std_type_info_hash      10019e36 f   libvcruntime:std_type_info.obj
 0001:00018e65       ___std_type_info_name      10019e65 f   libvcruntime:std_type_info.obj
 0001:00018f5b       ___vcrt_initialize         10019f5b f   libvcruntime:initialization.obj
 0001:00018f8e       ___vcrt_thread_attach      10019f8e f   libvcruntime:initialization.obj
 0001:00018f9b       ___vcrt_thread_detach      10019f9b f   libvcruntime:initialization.obj
 0001:00018fa8       ___vcrt_uninitialize       10019fa8 f   libvcruntime:initialization.obj
 0001:00018fce       ___vcrt_uninitialize_critical 10019fce f   libvcruntime:initialization.obj
 0001:00018fe0       __local_unwind4            10019fe0 f   libvcruntime:_exsup4_.obj
 0001:000190b8       __seh_longjmp_unwind4@4    1001a0b8 f   libvcruntime:_exsup4_.obj
 0001:000190e0       @_EH4_CallFilterFunc@8     1001a0e0 f   libvcruntime:_exsup4_.obj
 0001:000190f8       @_EH4_TransferToHandler@8  1001a0f8 f   libvcruntime:_exsup4_.obj
 0001:00019114       @_EH4_GlobalUnwind2@8      1001a114 f   libvcruntime:_exsup4_.obj
 0001:00019130       @_EH4_LocalUnwind@16       1001a130 f   libvcruntime:_exsup4_.obj
 0001:000191ad       ___except_validate_context_record 1001a1ad f   libvcruntime:jbcxrval.obj
 0001:000191e9       ___except_validate_jump_buffer 1001a1e9 f   libvcruntime:jbcxrval.obj
 0001:00019221       ___except_validate_jump_buffer_common 1001a221 f i libvcruntime:jbcxrval.obj
 0001:00019268       ??0Block@_HeapManager@@QAE@XZ 1001a268 f i libvcruntime:undname.obj
 0001:0001926e       ??0DName@@QAE@AAPBDD@Z     1001a26e f   libvcruntime:undname.obj
 0001:0001934c       ??0DName@@QAE@ABV0@@Z      1001a34c f i libvcruntime:undname.obj
 0001:00019367       ??0DName@@QAE@D@Z          1001a367 f   libvcruntime:undname.obj
 0001:00019395       ??0DName@@QAE@PAV0@@Z      1001a395 f   libvcruntime:undname.obj
 0001:000193ef       ??0DName@@QAE@PBD@Z        1001a3ef f   libvcruntime:undname.obj
 0001:0001942e       ??0DName@@QAE@W4DNameStatus@@@Z 1001a42e f   libvcruntime:undname.obj
 0001:0001946b       ??0DName@@QAE@XZ           1001a46b f i libvcruntime:undname.obj
 0001:00019477       ??0DName@@QAE@_J@Z         1001a477 f   libvcruntime:undname.obj
 0001:00019528       ??0DName@@QAE@_K@Z         1001a528 f   libvcruntime:undname.obj
 0001:000195aa       ??0DNameNode@@IAE@XZ       1001a5aa f i libvcruntime:undname.obj
 0001:000195b5       ??0Replicator@@QAE@XZ      1001a5b5 f i libvcruntime:undname.obj
 0001:000195c6       ??0UnDecorator@@QAE@PBDP6APADJ@ZK@Z 1001a5c6 f i libvcruntime:undname.obj
 0001:00019625       ??0charNode@@QAE@D@Z       1001a625 f i libvcruntime:undname.obj
 0001:0001963f       ??0pDNameNode@@QAE@PAVDName@@@Z 1001a63f f   libvcruntime:undname.obj
 0001:00019671       ??0pairNode@@QAE@PBVDNameNode@@0@Z 1001a671 f i libvcruntime:undname.obj
 0001:00019697       ??0pcharNode@@QAE@PBDH@Z   1001a697 f   libvcruntime:undname.obj
 0001:0001970d       ??2@YAPAXIAAV_HeapManager@@H@Z 1001a70d f i libvcruntime:undname.obj
 0001:00019727       ??4DName@@QAEAAV0@ABV0@@Z  1001a727 f   libvcruntime:undname.obj
 0001:00019742       ??4DName@@QAEAAV0@D@Z      1001a742 f i libvcruntime:undname.obj
 0001:00019770       ??4DName@@QAEAAV0@PAV0@@Z  1001a770 f   libvcruntime:undname.obj
 0001:000197c2       ??4DName@@QAEAAV0@PBD@Z    1001a7c2 f   libvcruntime:undname.obj
 0001:000197f7       ??4DName@@QAEAAV0@W4DNameStatus@@@Z 1001a7f7 f   libvcruntime:undname.obj
 0001:00019820       ??AReplicator@@QBE?AVDName@@H@Z 1001a820 f   libvcruntime:undname.obj
 0001:0001986b       ??H@YA?AVDName@@DABV0@@Z   1001a86b f i libvcruntime:undname.obj
 0001:00019898       ??H@YA?AVDName@@PBDABV0@@Z 1001a898 f i libvcruntime:undname.obj
 0001:000198c5       ??H@YA?AVDName@@W4DNameStatus@@ABV0@@Z 1001a8c5 f i libvcruntime:undname.obj
 0001:000198f2       ??HDName@@QBE?AV0@ABV0@@Z  1001a8f2 f   libvcruntime:undname.obj
 0001:0001991c       ??HDName@@QBE?AV0@D@Z      1001a91c f   libvcruntime:undname.obj
 0001:00019946       ??HDName@@QBE?AV0@PAV0@@Z  1001a946 f   libvcruntime:undname.obj
 0001:00019970       ??HDName@@QBE?AV0@PBD@Z    1001a970 f   libvcruntime:undname.obj
 0001:0001999a       ??HDName@@QBE?AV0@W4DNameStatus@@@Z 1001a99a f   libvcruntime:undname.obj
 0001:000199c4       ??YDName@@QAEAAV0@ABV0@@Z  1001a9c4 f   libvcruntime:undname.obj
 0001:00019a15       ??YDName@@QAEAAV0@D@Z      1001aa15 f   libvcruntime:undname.obj
 0001:00019a79       ??YDName@@QAEAAV0@PAV0@@Z  1001aa79 f   libvcruntime:undname.obj
 0001:00019af7       ??YDName@@QAEAAV0@PBD@Z    1001aaf7 f   libvcruntime:undname.obj
 0001:00019b70       ??YDName@@QAEAAV0@W4DNameStatus@@@Z 1001ab70 f   libvcruntime:undname.obj
 0001:00019bcd       ??YReplicator@@QAEAAV0@ABVDName@@@Z 1001abcd f   libvcruntime:undname.obj
 0001:00019c29       ??_5DName@@QAEAAV0@ABV0@@Z 1001ac29 f   libvcruntime:undname.obj
 0001:00019c4c       ?Constructor@_HeapManager@@QAEXP6APAXI@ZP6AXPAX@Z@Z 1001ac4c f i libvcruntime:undname.obj
 0001:00019c70       ?Destructor@_HeapManager@@QAEXXZ 1001ac70 f i libvcruntime:undname.obj
 0001:00019cb6       ?UScore@UnDecorator@@SAPBDW4Tokens@@@Z 1001acb6 f   libvcruntime:undname.obj
 0001:00019cda       ?append@DName@@AAEXPBVDNameNode@@@Z 1001acda f   libvcruntime:undname.obj
 0001:00019d31       ?composeDeclaration@UnDecorator@@CA?AVDName@@ABV2@@Z 1001ad31 f i libvcruntime:undname.obj
 0001:0001add1       ?doAccessSpecifiers@UnDecorator@@SAHXZ 1001bdd1 f i libvcruntime:undname.obj
 0001:0001ade2       ?doAllocationLanguage@UnDecorator@@SAHXZ 1001bde2 f i libvcruntime:undname.obj
 0001:0001adf3       ?doAllocationModel@UnDecorator@@SAHXZ 1001bdf3 f i libvcruntime:undname.obj
 0001:0001ae04       ?doEcsu@UnDecorator@@SAHXZ 1001be04 f i libvcruntime:undname.obj
 0001:0001ae15       ?doEllipsis@UnDecorator@@SAHXZ 1001be15 f i libvcruntime:undname.obj
 0001:0001ae26       ?doFunctionReturns@UnDecorator@@SAHXZ 1001be26 f i libvcruntime:undname.obj
 0001:0001ae37       ?doMSKeywords@UnDecorator@@SAHXZ 1001be37 f i libvcruntime:undname.obj
 0001:0001ae47       ?doMemberTypes@UnDecorator@@SAHXZ 1001be47 f i libvcruntime:undname.obj
 0001:0001ae58       ?doNameOnly@UnDecorator@@SAHXZ 1001be58 f i libvcruntime:undname.obj
 0001:0001ae65       ?doNoIdentCharCheck@UnDecorator@@SAHXZ 1001be65 f i libvcruntime:undname.obj
 0001:0001ae72       ?doPchar@DName@@AAEXPBDH@Z 1001be72 f   libvcruntime:undname.obj
 0001:0001af19       ?doPtr64@UnDecorator@@SAHXZ 1001bf19 f i libvcruntime:undname.obj
 0001:0001af2a       ?doRestrictionSpec@UnDecorator@@SAHXZ 1001bf2a f i libvcruntime:undname.obj
 0001:0001af3b       ?doThisTypes@UnDecorator@@SAHXZ 1001bf3b f i libvcruntime:undname.obj
 0001:0001af51       ?doThrowTypes@UnDecorator@@SAHXZ 1001bf51 f i libvcruntime:undname.obj
 0001:0001af62       ?doTypeOnly@UnDecorator@@SAHXZ 1001bf62 f i libvcruntime:undname.obj
 0001:0001af6f       ?doUnderScore@UnDecorator@@SAHXZ 1001bf6f f i libvcruntime:undname.obj
 0001:0001af7c       ?getArgumentList@UnDecorator@@CA?AVDName@@XZ 1001bf7c f   libvcruntime:undname.obj
 0001:0001b0b2       ?getArgumentTypes@UnDecorator@@CA?AVDName@@XZ 1001c0b2 f   libvcruntime:undname.obj
 0001:0001b1ac       ?getArrayType@UnDecorator@@CA?AVDName@@ABV2@@Z 1001c1ac f i libvcruntime:undname.obj
 0001:0001b41e       ?getBasedType@UnDecorator@@CA?AVDName@@XZ 1001c41e f   libvcruntime:undname.obj
 0001:0001b4eb       ?getBasicDataType@UnDecorator@@CA?AVDName@@ABV2@@Z 1001c4eb f   libvcruntime:undname.obj
 0001:0001b9a8       ?getCHPEName@UnDecorator@@QAEPADPADH@Z 1001c9a8 f i libvcruntime:undname.obj
 0001:0001bac1       ?getCallIndex@UnDecorator@@CA?AVDName@@XZ 1001cac1 f i libvcruntime:undname.obj
 0001:0001bada       ?getCallingConvention@UnDecorator@@CA?AVDName@@XZ 1001cada f   libvcruntime:undname.obj
 0001:0001bbfe       ?getDataIndirectType@UnDecorator@@CA?AVDName@@ABV2@PBD0H@Z 1001cbfe f   libvcruntime:undname.obj
 0001:0001c3d0       ?getDataIndirectType@UnDecorator@@CA?AVDName@@XZ 1001d3d0 f i libvcruntime:undname.obj
 0001:0001c411       ?getDataType@UnDecorator@@CA?AVDName@@PAV2@@Z 1001d411 f   libvcruntime:undname.obj
 0001:0001c512       ?getDecoratedName@UnDecorator@@CA?AVDName@@XZ 1001d512 f   libvcruntime:undname.obj
 0001:0001c802       ?getDimension@UnDecorator@@CA?AVDName@@_N@Z 1001d802 f   libvcruntime:undname.obj
 0001:0001c953       ?getDispatchTarget@UnDecorator@@CA?AVDName@@XZ 1001d953 f   libvcruntime:undname.obj
 0001:0001c9ba       ?getDisplacement@UnDecorator@@CA?AVDName@@XZ 1001d9ba f i libvcruntime:undname.obj
 0001:0001c9d3       ?getECSUDataType@UnDecorator@@CA?AVDName@@XZ 1001d9d3 f   libvcruntime:undname.obj
 0001:0001cb2d       ?getECSUName@UnDecorator@@CA?AVDName@@XZ 1001db2d f i libvcruntime:undname.obj
 0001:0001cb42       ?getEnumType@UnDecorator@@CA?AVDName@@XZ 1001db42 f i libvcruntime:undname.obj
 0001:0001cc64       ?getExtendedDataIndirectType@UnDecorator@@CA?AVDName@@AAPBDAA_NH@Z 1001dc64 f   libvcruntime:undname.obj
 0001:0001ce88       ?getExternalDataType@UnDecorator@@CA?AVDName@@ABV2@@Z 1001de88 f i libvcruntime:undname.obj
 0001:0001cf16       ?getFunctionIndirectType@UnDecorator@@CA?AVDName@@ABV2@@Z 1001df16 f   libvcruntime:undname.obj
 0001:0001d400       ?getGuardNumber@UnDecorator@@CA?AVDName@@XZ 1001e400 f i libvcruntime:undname.obj
 0001:0001d419       ?getLastChar@DName@@QBEDXZ 1001e419 f i libvcruntime:undname.obj
 0001:0001d441       ?getLastChar@DNameStatusNode@@UBEDXZ 1001e441 f i libvcruntime:undname.obj
 0001:0001d450       ?getLastChar@charNode@@UBEDXZ 1001e450 f i libvcruntime:undname.obj
 0001:0001d454       ?getLastChar@pDNameNode@@UBEDXZ 1001e454 f i libvcruntime:undname.obj
 0001:0001d484       ?getLastChar@pairNode@@UBEDXZ 1001e484 f i libvcruntime:undname.obj
 0001:0001d4c6       ?getLastChar@pcharNode@@UBEDXZ 1001e4c6 f i libvcruntime:undname.obj
 0001:0001d4dc       ?getLexicalFrame@UnDecorator@@CA?AVDName@@XZ 1001e4dc f i libvcruntime:undname.obj
 0001:0001d528       ?getMemory@_HeapManager@@QAEPAXIH@Z 1001e528 f   libvcruntime:undname.obj
 0001:0001d5d0       ?getNoexcept@UnDecorator@@CA?AVDName@@XZ 1001e5d0 f   libvcruntime:undname.obj
 0001:0001d626       ?getNumberOfDimensions@UnDecorator@@CAHXZ 1001e626 f   libvcruntime:undname.obj
 0001:0001d69f       ?getOperatorName@UnDecorator@@CA?AVDName@@_NPA_N@Z 1001e69f f i libvcruntime:undname.obj
 0001:0001de83       ?getPointerType@UnDecorator@@CA?AVDName@@ABV2@0@Z 1001ee83 f i libvcruntime:undname.obj
 0001:0001dea8       ?getPointerTypeArray@UnDecorator@@CA?AVDName@@ABV2@0@Z 1001eea8 f i libvcruntime:undname.obj
 0001:0001decd       ?getPrimaryDataType@UnDecorator@@CA?AVDName@@ABV2@@Z 1001eecd f   libvcruntime:undname.obj
 0001:0001e127       ?getPtrRefDataType@UnDecorator@@CA?AVDName@@ABV2@H@Z 1001f127 f   libvcruntime:undname.obj
 0001:0001e2a6       ?getPtrRefType@UnDecorator@@CA?AVDName@@ABV2@0PBD@Z 1001f2a6 f   libvcruntime:undname.obj
 0001:0001e3e1       ?getReferenceType@UnDecorator@@CA?AVDName@@ABV2@0PBD@Z 1001f3e1 f i libvcruntime:undname.obj
 0001:0001e404       ?getRestrictionSpec@UnDecorator@@CA?AVDName@@XZ 1001f404 f   libvcruntime:undname.obj
 0001:0001e54c       ?getReturnType@UnDecorator@@CA?AVDName@@PAV2@@Z 1001f54c f   libvcruntime:undname.obj
 0001:0001e586       ?getScope@UnDecorator@@CA?AVDName@@XZ 1001f586 f   libvcruntime:undname.obj
 0001:0001ea24       ?getScopedName@UnDecorator@@CA?AVDName@@XZ 1001fa24 f   libvcruntime:undname.obj
 0001:0001eb37       ?getSignedDimension@UnDecorator@@CA?AVDName@@XZ 1001fb37 f   libvcruntime:undname.obj
 0001:0001eb9e       ?getStorageConvention@UnDecorator@@CA?AVDName@@XZ 1001fb9e f i libvcruntime:undname.obj
 0001:0001ebb3       ?getString@DName@@QBEPADPAD0@Z 1001fbb3 f i libvcruntime:undname.obj
 0001:0001ebeb       ?getString@DName@@QBEPADPADH@Z 1001fbeb f i libvcruntime:undname.obj
 0001:0001ec66       ?getString@DNameStatusNode@@UBEPADPAD0@Z 1001fc66 f i libvcruntime:undname.obj
 0001:0001ec96       ?getString@charNode@@UBEPADPAD0@Z 1001fc96 f i libvcruntime:undname.obj
 0001:0001ecb0       ?getString@pDNameNode@@UBEPADPAD0@Z 1001fcb0 f i libvcruntime:undname.obj
 0001:0001eccc       ?getString@pairNode@@UBEPADPAD0@Z 1001fccc f i libvcruntime:undname.obj
 0001:0001ed23       ?getString@pcharNode@@UBEPADPAD0@Z 1001fd23 f i libvcruntime:undname.obj
 0001:0001ed44       ?getStringEncoding@UnDecorator@@CA?AVDName@@PBDH@Z 1001fd44 f   libvcruntime:undname.obj
 0001:0001ee13       ?getStringHelper@@YAPADPADPBD1H@Z 1001fe13 f i libvcruntime:undname.obj
 0001:0001ee57       ?getSymbolName@UnDecorator@@CA?AVDName@@XZ 1001fe57 f i libvcruntime:undname.obj
 0001:0001eeb1       ?getTemplateArgumentList@UnDecorator@@CA?AVDName@@XZ 1001feb1 f   libvcruntime:undname.obj
 0001:0001f215       ?getTemplateConstant@UnDecorator@@CA?AVDName@@XZ 10020215 f   libvcruntime:undname.obj
 0001:0001f622       ?getTemplateName@UnDecorator@@CA?AVDName@@_N@Z 10020622 f   libvcruntime:undname.obj
 0001:0001f7f6       ?getThisType@UnDecorator@@CA?AVDName@@XZ 100207f6 f i libvcruntime:undname.obj
 0001:0001f838       ?getThrowTypes@UnDecorator@@CA?AVDName@@XZ 10020838 f   libvcruntime:undname.obj
 0001:0001f863       ?getTypeEncoding@UnDecorator@@CAHXZ 10020863 f i libvcruntime:undname.obj
 0001:0001fc2d       ?getUndecoratedName@UnDecorator@@QAEPADPADH@Z 10020c2d f i libvcruntime:undname.obj
 0001:0001fd3c       ?getVCallThunkType@UnDecorator@@CA?AVDName@@XZ 10020d3c f i libvcruntime:undname.obj
 0001:0001fd85       ?getVbTableType@UnDecorator@@CA?AVDName@@ABV2@@Z 10020d85 f i libvcruntime:undname.obj
 0001:0001fd9f       ?getVdispMapType@UnDecorator@@CA?AVDName@@ABV2@@Z 10020d9f f i libvcruntime:undname.obj
 0001:0001fe0a       ?getVfTableType@UnDecorator@@CA?AVDName@@ABV2@@Z 10020e0a f i libvcruntime:undname.obj
 0001:0001ffe7       ?getZName@UnDecorator@@CA?AVDName@@_N0@Z 10020fe7 f   libvcruntime:undname.obj
 0001:00020277       ?haveTemplateParameters@UnDecorator@@SAHXZ 10021277 f i libvcruntime:undname.obj
 0001:00020284       ?isArray@DName@@QBEHXZ     10021284 f i libvcruntime:undname.obj
 0001:00020290       ?isComArray@DName@@QBEHXZ  10021290 f i libvcruntime:undname.obj
 0001:0002029c       ?isEmpty@DName@@QBEHXZ     1002129c f i libvcruntime:undname.obj
 0001:000202a6       ?isFull@Replicator@@QBEHXZ 100212a6 f i libvcruntime:undname.obj
 0001:000202b1       ?isNoTE@DName@@QBEHXZ      100212b1 f i libvcruntime:undname.obj
 0001:000202bd       ?isPinPtr@DName@@QBEHXZ    100212bd f i libvcruntime:undname.obj
 0001:000202c9       ?isPtrRef@DName@@QBEHXZ    100212c9 f i libvcruntime:undname.obj
 0001:000202d5       ?isUDC@DName@@QBEHXZ       100212d5 f i libvcruntime:undname.obj
 0001:000202ea       ?isUDTThunk@DName@@QBEHXZ  100212ea f i libvcruntime:undname.obj
 0001:000202ff       ?isVCallThunk@DName@@QBEHXZ 100212ff f i libvcruntime:undname.obj
 0001:0002030b       ?isValid@DName@@QBEHXZ     1002130b f i libvcruntime:undname.obj
 0001:00020317       ?length@DName@@QBEHXZ      10021317 f i libvcruntime:undname.obj
 0001:0002033d       ?length@DNameStatusNode@@UBEHXZ 1002133d f i libvcruntime:undname.obj
 0001:00020341       ?length@charNode@@UBEHXZ   10021341 f i libvcruntime:undname.obj
 0001:00020345       ?length@pDNameNode@@UBEHXZ 10021345 f i libvcruntime:undname.obj
 0001:00020374       ?length@pairNode@@UBEHXZ   10021374 f i libvcruntime:undname.obj
 0001:000203ce       ?length@pcharNode@@UBEHXZ  100213ce f i libvcruntime:undname.obj
 0001:000203d2       ?make@DNameStatusNode@@SAPBV1@W4DNameStatus@@@Z 100213d2 f i libvcruntime:undname.obj
 0001:000203f5       ?parseDecoratedName@UnDecorator@@CA?AVDName@@XZ 100213f5 f   libvcruntime:undname.obj
 0001:00020518       ?setIsArray@DName@@QAEXXZ  10021518 f i libvcruntime:undname.obj
 0001:00020522       ?setIsComArray@DName@@QAEXXZ 10021522 f i libvcruntime:undname.obj
 0001:0002052c       ?setIsNoTE@DName@@QAEXXZ   1002152c f i libvcruntime:undname.obj
 0001:00020536       ?setIsPinPtr@DName@@QAEXXZ 10021536 f i libvcruntime:undname.obj
 0001:00020540       ?setIsUDC@DName@@QAEXXZ    10021540 f i libvcruntime:undname.obj
 0001:00020550       ?setIsVCallThunk@DName@@QAEXXZ 10021550 f i libvcruntime:undname.obj
 0001:0002055a       ?setPtrRef@DName@@QAEAAV1@XZ 1002155a f i libvcruntime:undname.obj
 0001:00020566       ?status@DName@@QBE?AW4DNameStatus@@XZ 10021566 f i libvcruntime:undname.obj
 0001:000205eb       ___unDName                 100215eb f   libvcruntime:undname.obj
 0001:00020616       ___unDNameEx               10021616 f   libvcruntime:undname.obj
 0001:000206d0       __vsprintf_s_l             100216d0 f i libvcruntime:undname.obj
 0001:00020708       _sprintf_s                 10021708 f i libvcruntime:undname.obj
 0001:0002072b       _unDNameGenerateCHPE       1002172b f   libvcruntime:undname.obj
 0001:0002079e       ??$?RU__vcrt_ptd@@@__crt_internal_free_policy@@QBEXQBU__vcrt_ptd@@@Z 1002179e f i libvcruntime:per_thread_data.obj
 0001:000207b2       ??0?$__crt_unique_heap_ptr@U__vcrt_ptd@@U__crt_internal_free_policy@@@@QAE@QAU__vcrt_ptd@@@Z 100217b2 f i libvcruntime:per_thread_data.obj
 0001:000207d5       ??1?$__crt_unique_heap_ptr@U__vcrt_ptd@@U__crt_internal_free_policy@@@@QAE@XZ 100217d5 f i libvcruntime:per_thread_data.obj
 0001:000207f4       ??B?$__crt_unique_heap_ptr@U__vcrt_ptd@@U__crt_internal_free_policy@@@@QBE_NXZ 100217f4 f i libvcruntime:per_thread_data.obj
 0001:000207fb       ?detach@?$__crt_unique_heap_ptr@U__vcrt_ptd@@U__crt_internal_free_policy@@@@QAEPAU__vcrt_ptd@@XZ 100217fb f i libvcruntime:per_thread_data.obj
 0001:00020801       ?get@?$__crt_unique_heap_ptr@U__vcrt_ptd@@U__crt_internal_free_policy@@@@QBEPAU__vcrt_ptd@@XZ 10021801 f i libvcruntime:per_thread_data.obj
 0001:00020804       ?is_valid@?$__crt_unique_heap_ptr@U__vcrt_ptd@@U__crt_internal_free_policy@@@@QBE_NXZ 10021804 f i libvcruntime:per_thread_data.obj
 0001:0002080b       ?release@?$__crt_unique_heap_ptr@U__vcrt_ptd@@U__crt_internal_free_policy@@@@QAEXXZ 1002180b f i libvcruntime:per_thread_data.obj
 0001:0002083f       ___vcrt_freefls@4          1002183f f   libvcruntime:per_thread_data.obj
 0001:00020862       ___vcrt_freeptd            10021862 f   libvcruntime:per_thread_data.obj
 0001:000208b5       ___vcrt_getptd             100218b5 f   libvcruntime:per_thread_data.obj
 0001:000208c6       ___vcrt_getptd_noexit      100218c6 f   libvcruntime:per_thread_data.obj
 0001:0002097c       ___vcrt_getptd_noinit      1002197c f   libvcruntime:per_thread_data.obj
 0001:000209c0       ___vcrt_initialize_ptd     100219c0 f   libvcruntime:per_thread_data.obj
 0001:00020a15       ___vcrt_uninitialize_ptd   10021a15 f   libvcruntime:per_thread_data.obj
 0001:00020a36       ___vcrt_initialize_locks   10021a36 f   libvcruntime:locks.obj
 0001:00020a81       ___vcrt_lock               10021a81 f   libvcruntime:locks.obj
 0001:00020a9b       ___vcrt_uninitialize_locks 10021a9b f   libvcruntime:locks.obj
 0001:00020ad5       ___vcrt_unlock             10021ad5 f   libvcruntime:locks.obj
 0001:00020aef       ??$?BX@__crt_fast_encoded_nullptr_t@@QBEPAXXZ 10021aef f i libvcruntime:winapi_downlevel.obj
 0001:00020af5       ??$__crt_fast_decode_pointer@PAX@@YAPAXQAX@Z 10021af5 f i libvcruntime:winapi_downlevel.obj
 0001:00020b0e       ??$__crt_fast_encode_pointer@PAX@@YAPAXQAX@Z 10021b0e f i libvcruntime:winapi_downlevel.obj
 0001:00020b32       ??$__crt_interlocked_exchange_pointer@UHINSTANCE__@@PAU1@@@YAPAUHINSTANCE__@@PDSAU0@QAU0@@Z 10021b32 f i libvcruntime:winapi_downlevel.obj
 0001:00020b42       ??$__crt_interlocked_exchange_pointer@UHINSTANCE__@@PAX@@YAPAUHINSTANCE__@@PDSAU0@QAX@Z 10021b42 f i libvcruntime:winapi_downlevel.obj
 0001:00020b52       ??$__crt_interlocked_exchange_pointer@XPAX@@YAPAXPDSAXQAX@Z 10021b52 f i libvcruntime:winapi_downlevel.obj
 0001:00020b62       ??$__crt_interlocked_read_pointer@UHINSTANCE__@@@@YAPAUHINSTANCE__@@PDSAU0@@Z 10021b62 f i libvcruntime:winapi_downlevel.obj
 0001:00020b6e       ??$__crt_interlocked_read_pointer@X@@YAPAXPDSAX@Z 10021b6e f i libvcruntime:winapi_downlevel.obj
 0001:00020b7a       ?__crt_fast_encode_pointer@@YA?AU__crt_fast_encoded_nullptr_t@@$$T@Z 10021b7a f i libvcruntime:winapi_downlevel.obj
 0001:00020eb1       ___vcrt_FlsAlloc           10021eb1 f   libvcruntime:winapi_downlevel.obj
 0001:00020efa       ___vcrt_FlsFree            10021efa f   libvcruntime:winapi_downlevel.obj
 0001:00020f43       ___vcrt_FlsGetValue        10021f43 f   libvcruntime:winapi_downlevel.obj
 0001:00020f8c       ___vcrt_FlsSetValue        10021f8c f   libvcruntime:winapi_downlevel.obj
 0001:00020fd9       ___vcrt_InitializeCriticalSectionEx 10021fd9 f   libvcruntime:winapi_downlevel.obj
 0001:00021031       ___vcrt_initialize_winapi_thunks 10022031 f   libvcruntime:winapi_downlevel.obj
 0001:00021064       ___vcrt_uninitialize_winapi_thunks 10022064 f   libvcruntime:winapi_downlevel.obj
 0001:000210a2       ??$?B$$A6AXXZ@__crt_fast_encoded_nullptr_t@@QBEP6AXXZXZ 100220a2 f i libvcruntime:purevirt_data.obj
 0001:000210a8       ??$__crt_fast_encode_pointer@P6AXXZ@@YAP6AXXZQ6AXXZ@Z 100220a8 f i libvcruntime:purevirt_data.obj
 0001:000210cc       ___vcrt_initialize_pure_virtual_call_handler 100220cc f   libvcruntime:purevirt_data.obj
 0001:000210e0       __global_unwind2           100220e0 f   libvcruntime:_exsup_.obj
 0001:00021146       __local_unwind2            10022146 f   libvcruntime:_exsup_.obj
 0001:000211ca       __abnormal_termination     100221ca f   libvcruntime:_exsup_.obj
 0001:000211f0       __NLG_Notify1              100221f0 f   libvcruntime:_exsup_.obj
 0001:000211fc       __NLG_Notify               100221fc f   libvcruntime:_exsup_.obj
 0001:00021213       __NLG_Dispatch             10022213     libvcruntime:_exsup_.obj
 0001:00021213       __NLG_Dispatch2            10022213     libvcruntime:_exsup_.obj
 0001:0002121b       __NLG_Call                 1002221b f   libvcruntime:_exsup_.obj
 0001:0002121d       __NLG_Return2              1002221d     libvcruntime:_exsup_.obj
 0001:0002126d       ??$__crt_fast_decode_pointer@P6AXXZ@@YAP6AXXZQ6AXXZ@Z 1002226d f i libvcruntime:purevirt.obj
 0001:00021286       ??$__crt_interlocked_exchange_pointer@$$A6AXXZP6AXXZ@@YAP6AXXZPDS6AXXZQ6AXXZ@Z 10022286 f i libvcruntime:purevirt.obj
 0001:00021296       ??$__crt_interlocked_read_pointer@$$A6AXXZ@@YAP6AXXZPDS6AXXZ@Z 10022296 f i libvcruntime:purevirt.obj
 0001:000212a2       __get_purecall_handler     100222a2 f   libvcruntime:purevirt.obj
 0001:000212bc       __purecall                 100222bc f   libvcruntime:purevirt.obj
 0001:000212ef       __set_purecall_handler     100222ef f   libvcruntime:purevirt.obj
 0001:0002131d       ?_CallCatchBlock2@@YAPAXPAUEHRegistrationNode@@PBU_s_FuncInfo@@PAXHK@Z 1002231d f   libvcruntime:trnsctrl.obj
 0001:00021395       ?_CallSETranslator@@YAHPAUEHExceptionRecord@@PAUEHRegistrationNode@@PAX2PBU_s_FuncInfo@@H1@Z 10022395 f   libvcruntime:trnsctrl.obj
 0001:000214a9       ?_GetRangeOfTrysToCheck@@YAPBU_s_TryBlockMapEntry@@PBU_s_FuncInfo@@HHPAI1@Z 100224a9 f   libvcruntime:trnsctrl.obj
 0001:0002153f       ?_JumpToContinuation@@YGXPAXPAUEHRegistrationNode@@@Z 1002253f f   libvcruntime:trnsctrl.obj
 0001:0002157d       ?_UnwindNestedFrames@@YGXPAUEHRegistrationNode@@PAUEHExceptionRecord@@@Z 1002257d f   libvcruntime:trnsctrl.obj
 0001:000215e7       __CatchGuardHandler        100225e7 f   libvcruntime:trnsctrl.obj
 0001:00021624       __CreateFrameInfo          10022624 f   libvcruntime:trnsctrl.obj
 0001:00021651       __FindAndUnlinkFrame       10022651 f   libvcruntime:trnsctrl.obj
 0001:000216a7       __TranslatorGuardHandler   100226a7 f   libvcruntime:trnsctrl.obj
 0001:0002176d       ___CxxFrameHandler         1002276d f   libvcruntime:trnsctrl.obj
 0001:000217b0       ___CxxFrameHandler2        100227b0 f   libvcruntime:trnsctrl.obj
 0001:000217f3       ___CxxFrameHandler3        100227f3 f   libvcruntime:trnsctrl.obj
 0001:00021836       ___CxxLongjmpUnwind@4      10022836 f   libvcruntime:trnsctrl.obj
 0001:00021870       __CallSettingFrame@12      10022870 f   libvcruntime:lowhelpr.obj
 0001:00021897       __NLG_Return               10022897     libvcruntime:lowhelpr.obj
 0001:000218cf       ??0bad_exception@std@@QAE@ABV01@@Z 100228cf f i libvcruntime:frame.obj
 0001:000218f0       ??0bad_exception@std@@QAE@XZ 100228f0 f i libvcruntime:frame.obj
 0001:0002190e       ??0exception@std@@QAE@ABV01@@Z 1002290e f i libvcruntime:frame.obj
 0001:00021945       ??0exception@std@@QAE@QBDH@Z 10022945 f i libvcruntime:frame.obj
 0001:00021969       ??1bad_exception@std@@UAE@XZ 10022969 f i libvcruntime:frame.obj
 0001:0002197e       ??1exception@std@@UAE@XZ   1002297e f i libvcruntime:frame.obj
 0001:00021993       ??8type_info@@QBE_NABV0@@Z 10022993 f i libvcruntime:frame.obj
 0001:000219b9       ??_Ebad_exception@std@@UAEPAXI@Z 100229b9 f i libvcruntime:frame.obj
 0001:000219b9       ??_Gbad_exception@std@@UAEPAXI@Z 100229b9 f i libvcruntime:frame.obj
 0001:000219f1       ??_Gexception@std@@UAEPAXI@Z 100229f1 f i libvcruntime:frame.obj
 0001:000219f1       ??_Eexception@std@@UAEPAXI@Z 100229f1 f i libvcruntime:frame.obj
 0001:0002245b       ?_CallMemberFunction1@@YGXQAX00@Z 1002345b f i libvcruntime:frame.obj
 0001:0002246f       ?_CallMemberFunction2@@YGXQAX00H@Z 1002346f f i libvcruntime:frame.obj
 0001:00022486       ?_ValidateExecute@@YA_NP6GHXZ@Z 10023486 f i libvcruntime:frame.obj
 0001:00022495       ?_ValidateRead@@YA_NPBXI@Z 10023495 f i libvcruntime:frame.obj
 0001:000224a4       ?_ValidateWrite@@YA_NPAXI@Z 100234a4 f i libvcruntime:frame.obj
 0001:000224b3       ?what@exception@std@@UBEPBDXZ 100234b3 f i libvcruntime:frame.obj
 0001:000224c3       ___BuildCatchObject        100234c3 f   libvcruntime:frame.obj
 0001:00022575       ___BuildCatchObjectHelper  10023575 f   libvcruntime:frame.obj
 0001:000226f6       ___FrameUnwindToState      100236f6 f   libvcruntime:frame.obj
 0001:000227f6       ___InternalCxxFrameHandler 100237f6 f   libvcruntime:frame.obj
 0001:00022932       ___TypeMatch               10023932 f   libvcruntime:frame.obj
 0001:000229e3       ___vcrt_EncodePointer      100239e3 f i libvcruntime:frame.obj
 0001:00022a0d       __get_unexpected           10023a0d f   libvcruntime:unexpected.obj
 0001:00022a23       _set_unexpected            10023a23 f   libvcruntime:unexpected.obj
 0001:00022a48       _unexpected                10023a48 f   libvcruntime:unexpected.obj
 0001:00022a6c       ___DestructExceptionObject 10023a6c f   libvcruntime:ehhelpers.obj
 0001:00022b27       ?_CallMemberFunction0@@YGXQAX0@Z 10023b27 f i libvcruntime:ehhelpers.obj
 0001:00022b37       ?raw_name@type_info@@QBEPBDXZ 10023b37 f i libvcruntime:ehhelpers.obj
 0001:00022b3b       __IsExceptionObjectToBeDestroyed 10023b3b f   libvcruntime:ehhelpers.obj
 0001:00022b6a       __SetWinRTOutOfMemoryExceptionCallback 10023b6a f   libvcruntime:ehhelpers.obj
 0001:00022b7a       ___AdjustPointer           10023b7a f   libvcruntime:ehhelpers.obj
 0001:00022ba8       ___FrameUnwindFilter       10023ba8 f   libvcruntime:ehhelpers.obj
 0001:00022bfe       ___GetPlatformExceptionInfo 10023bfe f   libvcruntime:ehhelpers.obj
 0001:00022c5f       ___current_exception       10023c5f f   libvcruntime:ehhelpers.obj
 0001:00022c6a       ___current_exception_context 10023c6a f   libvcruntime:ehhelpers.obj
 0001:00022c75       ___processing_throw        10023c75 f   libvcruntime:ehhelpers.obj
 0001:00022c80       ___std_terminate           10023c80 f   libvcruntime:ehhelpers.obj
 0001:00022c85       __is_exception_typeof      10023c85 f   libvcruntime:ehhelpers.obj
 0001:00022d52       ??$?RD@__crt_public_free_policy@@QBEXQBD@Z 10023d52 f i libvcruntime:std_exception.obj
 0001:00022d66       ??0?$__crt_unique_heap_ptr@DU__crt_public_free_policy@@@@QAE@QAD@Z 10023d66 f i libvcruntime:std_exception.obj
 0001:00022d77       ??1?$__crt_unique_heap_ptr@DU__crt_public_free_policy@@@@QAE@XZ 10023d77 f i libvcruntime:std_exception.obj
 0001:00022d8b       ??B?$__crt_unique_heap_ptr@DU__crt_public_free_policy@@@@QBE_NXZ 10023d8b f i libvcruntime:std_exception.obj
 0001:00022d92       ?detach@?$__crt_unique_heap_ptr@DU__crt_public_free_policy@@@@QAEPADXZ 10023d92 f i libvcruntime:std_exception.obj
 0001:00022d98       ?get@?$__crt_unique_heap_ptr@DU__crt_public_free_policy@@@@QBEPADXZ 10023d98 f i libvcruntime:std_exception.obj
 0001:00022d9b       ?is_valid@?$__crt_unique_heap_ptr@DU__crt_public_free_policy@@@@QBE_NXZ 10023d9b f i libvcruntime:std_exception.obj
 0001:00022da2       ?release@?$__crt_unique_heap_ptr@DU__crt_public_free_policy@@@@QAEXXZ 10023da2 f i libvcruntime:std_exception.obj
 0001:00022db6       ___std_exception_copy      10023db6 f   libvcruntime:std_exception.obj
 0001:00022e31       ___std_exception_destroy   10023e31 f   libvcruntime:std_exception.obj
 0001:00022e57       __CxxThrowException@8      10023e57 f   libvcruntime:throw.obj
 0001:00022ee1       _malloc                    10023ee1 f   libucrt:malloc.obj
 0001:00022eee       ??$?RPAU__crt_stdio_stream_data@@@__crt_internal_free_policy@@QBEXQBQAU__crt_stdio_stream_data@@@Z 10023eee f i libucrt:_file.obj
 0001:00022f04       ??0?$__crt_unique_heap_ptr@PAU__crt_stdio_stream_data@@U__crt_internal_free_policy@@@@QAE@QAPAU__crt_stdio_stream_data@@@Z 10023f04 f i libucrt:_file.obj
 0001:00022f18       ??0__crt_stdio_stream@@QAE@QAU_iobuf@@@Z 10023f18 f i libucrt:_file.obj
 0001:00022f2c       ??1?$__crt_unique_heap_ptr@PAU__crt_stdio_stream_data@@U__crt_internal_free_policy@@@@QAE@XZ 10023f2c f i libucrt:_file.obj
 0001:00022f42       ??C__crt_stdio_stream@@QBEPAU__crt_stdio_stream_data@@XZ 10023f42 f i libucrt:_file.obj
 0001:00022f45       ?detach@?$__crt_unique_heap_ptr@PAU__crt_stdio_stream_data@@U__crt_internal_free_policy@@@@QAEPAPAU__crt_stdio_stream_data@@XZ 10023f45 f i libucrt:_file.obj
 0001:00022f4b       ?release@?$__crt_unique_heap_ptr@PAU__crt_stdio_stream_data@@U__crt_internal_free_policy@@@@QAEXXZ 10023f4b f i libucrt:_file.obj
 0001:00022f61       ___acrt_initialize_stdio   10023f61 f   libucrt:_file.obj
 0001:0002305b       ___acrt_iob_func           1002405b f   libucrt:_file.obj
 0001:0002306f       ___acrt_uninitialize_stdio 1002406f f   libucrt:_file.obj
 0001:000230ce       __get_stream_buffer_pointers 100240ce f   libucrt:_file.obj
 0001:00023125       __lock_file                10024125 f   libucrt:_file.obj
 0001:0002313e       __unlock_file              1002413e f   libucrt:_file.obj
 0001:00023157       ??$?0ABV?$stream_output_adapter@D@__crt_stdio_output@@AB_KABQBDABQAU__crt_locale_pointers@@ABQAD@?$format_validation_base@DV?$stream_output_adapter@D@__crt_stdio_output@@@__crt_stdio_output@@IAE@ABV?$stream_output_adapter@D@1@AB_KABQBDABQAU__crt_locale_pointers@@ABQAD@Z 10024157 f i libucrt:output.obj
 0001:00023182       ??$?0ABV?$stream_output_adapter@D@__crt_stdio_output@@AB_KABQBDABQAU__crt_locale_pointers@@ABQAD@?$positional_parameter_base@DV?$stream_output_adapter@D@__crt_stdio_output@@@__crt_stdio_output@@IAE@ABV?$stream_output_adapter@D@1@AB_KABQBDABQAU__crt_locale_pointers@@ABQAD@Z 10024182 f i libucrt:output.obj
 0001:000231dc       ??$?0ABV?$stream_output_adapter@D@__crt_stdio_output@@AB_KABQBDABQAU__crt_locale_pointers@@ABQAD@?$standard_base@DV?$stream_output_adapter@D@__crt_stdio_output@@@__crt_stdio_output@@IAE@ABV?$stream_output_adapter@D@1@AB_KABQBDABQAU__crt_locale_pointers@@ABQAD@Z 100241dc f i libucrt:output.obj
 0001:0002321e       ??$?0ABV?$stream_output_adapter@_W@__crt_stdio_output@@AB_KABQB_WABQAU__crt_locale_pointers@@ABQAD@?$format_validation_base@_WV?$stream_output_adapter@_W@__crt_stdio_output@@@__crt_stdio_output@@IAE@ABV?$stream_output_adapter@_W@1@AB_KABQB_WABQAU__crt_locale_pointers@@ABQAD@Z 1002421e f i libucrt:output.obj
 0001:00023249       ??$?0ABV?$stream_output_adapter@_W@__crt_stdio_output@@AB_KABQB_WABQAU__crt_locale_pointers@@ABQAD@?$positional_parameter_base@_WV?$stream_output_adapter@_W@__crt_stdio_output@@@__crt_stdio_output@@IAE@ABV?$stream_output_adapter@_W@1@AB_KABQB_WABQAU__crt_locale_pointers@@ABQAD@Z 10024249 f i libucrt:output.obj
 0001:000232a3       ??$?0ABV?$stream_output_adapter@_W@__crt_stdio_output@@AB_KABQB_WABQAU__crt_locale_pointers@@ABQAD@?$standard_base@_WV?$stream_output_adapter@_W@__crt_stdio_output@@@__crt_stdio_output@@IAE@ABV?$stream_output_adapter@_W@1@AB_KABQB_WABQAU__crt_locale_pointers@@ABQAD@Z 100242a3 f i libucrt:output.obj
 0001:000232e5       ??$?0ABV?$string_output_adapter@D@__crt_stdio_output@@AB_KABQBDABQAU__crt_locale_pointers@@ABQAD@?$format_validation_base@DV?$string_output_adapter@D@__crt_stdio_output@@@__crt_stdio_output@@IAE@ABV?$string_output_adapter@D@1@AB_KABQBDABQAU__crt_locale_pointers@@ABQAD@Z 100242e5 f i libucrt:output.obj
 0001:00023310       ??$?0ABV?$string_output_adapter@D@__crt_stdio_output@@AB_KABQBDABQAU__crt_locale_pointers@@ABQAD@?$positional_parameter_base@DV?$string_output_adapter@D@__crt_stdio_output@@@__crt_stdio_output@@IAE@ABV?$string_output_adapter@D@1@AB_KABQBDABQAU__crt_locale_pointers@@ABQAD@Z 10024310 f i libucrt:output.obj
 0001:0002336a       ??$?0ABV?$string_output_adapter@D@__crt_stdio_output@@AB_KABQBDABQAU__crt_locale_pointers@@ABQAD@?$standard_base@DV?$string_output_adapter@D@__crt_stdio_output@@@__crt_stdio_output@@IAE@ABV?$string_output_adapter@D@1@AB_KABQBDABQAU__crt_locale_pointers@@ABQAD@Z 1002436a f i libucrt:output.obj
 0001:000233ac       ??$?0ABV?$string_output_adapter@_W@__crt_stdio_output@@AB_KABQB_WABQAU__crt_locale_pointers@@ABQAD@?$format_validation_base@_WV?$string_output_adapter@_W@__crt_stdio_output@@@__crt_stdio_output@@IAE@ABV?$string_output_adapter@_W@1@AB_KABQB_WABQAU__crt_locale_pointers@@ABQAD@Z 100243ac f i libucrt:output.obj
 0001:000233d7       ??$?0ABV?$string_output_adapter@_W@__crt_stdio_output@@AB_KABQB_WABQAU__crt_locale_pointers@@ABQAD@?$positional_parameter_base@_WV?$string_output_adapter@_W@__crt_stdio_output@@@__crt_stdio_output@@IAE@ABV?$string_output_adapter@_W@1@AB_KABQB_WABQAU__crt_locale_pointers@@ABQAD@Z 100243d7 f i libucrt:output.obj
 0001:00023431       ??$?0ABV?$string_output_adapter@_W@__crt_stdio_output@@AB_KABQB_WABQAU__crt_locale_pointers@@ABQAD@?$standard_base@_WV?$string_output_adapter@_W@__crt_stdio_output@@@__crt_stdio_output@@IAE@ABV?$string_output_adapter@_W@1@AB_KABQB_WABQAU__crt_locale_pointers@@ABQAD@Z 10024431 f i libucrt:output.obj
 0001:000237fd       ??$__crt_interlocked_read@J@@YAJPDJ@Z 100247fd f i libucrt:output.obj
 0001:00024a66       ??$count@D@formatting_buffer@__crt_stdio_output@@QBEIXZ 10025a66 f i libucrt:output.obj
 0001:00024a84       ??$count@_W@formatting_buffer@__crt_stdio_output@@QBEIXZ 10025a84 f i libucrt:output.obj
 0001:00024aa3       ??$data@D@formatting_buffer@__crt_stdio_output@@QAEPADXZ 10025aa3 f i libucrt:output.obj
 0001:00024ab3       ??$data@_W@formatting_buffer@__crt_stdio_output@@QAEPA_WXZ 10025ab3 f i libucrt:output.obj
 0001:00024ac3       ??$ensure_buffer_is_big_enough@D@formatting_buffer@__crt_stdio_output@@QAE_NI@Z 10025ac3 f i libucrt:output.obj
 0001:00024b61       ??$ensure_buffer_is_big_enough@_W@formatting_buffer@__crt_stdio_output@@QAE_NI@Z 10025b61 f i libucrt:output.obj
 0001:00024c01       ??$extract_argument_from_va_list@C_J@?$positional_parameter_base@DV?$stream_output_adapter@D@__crt_stdio_output@@@__crt_stdio_output@@IAE_NAA_J@Z 10025c01 f i libucrt:output.obj
 0001:00024c98       ??$extract_argument_from_va_list@C_J@?$positional_parameter_base@DV?$string_output_adapter@D@__crt_stdio_output@@@__crt_stdio_output@@IAE_NAA_J@Z 10025c98 f i libucrt:output.obj
 0001:00024d2f       ??$extract_argument_from_va_list@C_J@?$positional_parameter_base@_WV?$stream_output_adapter@_W@__crt_stdio_output@@@__crt_stdio_output@@IAE_NAA_J@Z 10025d2f f i libucrt:output.obj
 0001:00024dc6       ??$extract_argument_from_va_list@C_J@?$positional_parameter_base@_WV?$string_output_adapter@_W@__crt_stdio_output@@@__crt_stdio_output@@IAE_NAA_J@Z 10025dc6 f i libucrt:output.obj
 0001:00024e5d       ??$extract_argument_from_va_list@C_J@?$standard_base@DV?$stream_output_adapter@D@__crt_stdio_output@@@__crt_stdio_output@@IAE_NAA_J@Z 10025e5d f i libucrt:output.obj
 0001:00024e83       ??$extract_argument_from_va_list@C_J@?$standard_base@DV?$string_output_adapter@D@__crt_stdio_output@@@__crt_stdio_output@@IAE_NAA_J@Z 10025e83 f i libucrt:output.obj
 0001:00024ea9       ??$extract_argument_from_va_list@C_J@?$standard_base@_WV?$stream_output_adapter@_W@__crt_stdio_output@@@__crt_stdio_output@@IAE_NAA_J@Z 10025ea9 f i libucrt:output.obj
 0001:00024ecf       ??$extract_argument_from_va_list@C_J@?$standard_base@_WV?$string_output_adapter@_W@__crt_stdio_output@@@__crt_stdio_output@@IAE_NAA_J@Z 10025ecf f i libucrt:output.obj
 0001:00024ef5       ??$extract_argument_from_va_list@E_J@?$positional_parameter_base@DV?$stream_output_adapter@D@__crt_stdio_output@@@__crt_stdio_output@@IAE_NAA_J@Z 10025ef5 f i libucrt:output.obj
 0001:00024f8c       ??$extract_argument_from_va_list@E_J@?$positional_parameter_base@DV?$string_output_adapter@D@__crt_stdio_output@@@__crt_stdio_output@@IAE_NAA_J@Z 10025f8c f i libucrt:output.obj
 0001:00025023       ??$extract_argument_from_va_list@E_J@?$positional_parameter_base@_WV?$stream_output_adapter@_W@__crt_stdio_output@@@__crt_stdio_output@@IAE_NAA_J@Z 10026023 f i libucrt:output.obj
 0001:000250ba       ??$extract_argument_from_va_list@E_J@?$positional_parameter_base@_WV?$string_output_adapter@_W@__crt_stdio_output@@@__crt_stdio_output@@IAE_NAA_J@Z 100260ba f i libucrt:output.obj
 0001:00025151       ??$extract_argument_from_va_list@E_J@?$standard_base@DV?$stream_output_adapter@D@__crt_stdio_output@@@__crt_stdio_output@@IAE_NAA_J@Z 10026151 f i libucrt:output.obj
 0001:00025177       ??$extract_argument_from_va_list@E_J@?$standard_base@DV?$string_output_adapter@D@__crt_stdio_output@@@__crt_stdio_output@@IAE_NAA_J@Z 10026177 f i libucrt:output.obj
 0001:0002519d       ??$extract_argument_from_va_list@E_J@?$standard_base@_WV?$stream_output_adapter@_W@__crt_stdio_output@@@__crt_stdio_output@@IAE_NAA_J@Z 1002619d f i libucrt:output.obj
 0001:000251c3       ??$extract_argument_from_va_list@E_J@?$standard_base@_WV?$string_output_adapter@_W@__crt_stdio_output@@@__crt_stdio_output@@IAE_NAA_J@Z 100261c3 f i libucrt:output.obj
 0001:000251e9       ??$extract_argument_from_va_list@F_J@?$positional_parameter_base@DV?$stream_output_adapter@D@__crt_stdio_output@@@__crt_stdio_output@@IAE_NAA_J@Z 100261e9 f i libucrt:output.obj
 0001:00025280       ??$extract_argument_from_va_list@F_J@?$positional_parameter_base@DV?$string_output_adapter@D@__crt_stdio_output@@@__crt_stdio_output@@IAE_NAA_J@Z 10026280 f i libucrt:output.obj
 0001:00025317       ??$extract_argument_from_va_list@F_J@?$positional_parameter_base@_WV?$stream_output_adapter@_W@__crt_stdio_output@@@__crt_stdio_output@@IAE_NAA_J@Z 10026317 f i libucrt:output.obj
 0001:000253ae       ??$extract_argument_from_va_list@F_J@?$positional_parameter_base@_WV?$string_output_adapter@_W@__crt_stdio_output@@@__crt_stdio_output@@IAE_NAA_J@Z 100263ae f i libucrt:output.obj
 0001:00025445       ??$extract_argument_from_va_list@F_J@?$standard_base@DV?$stream_output_adapter@D@__crt_stdio_output@@@__crt_stdio_output@@IAE_NAA_J@Z 10026445 f i libucrt:output.obj
 0001:0002546b       ??$extract_argument_from_va_list@F_J@?$standard_base@DV?$string_output_adapter@D@__crt_stdio_output@@@__crt_stdio_output@@IAE_NAA_J@Z 1002646b f i libucrt:output.obj
 0001:00025491       ??$extract_argument_from_va_list@F_J@?$standard_base@_WV?$stream_output_adapter@_W@__crt_stdio_output@@@__crt_stdio_output@@IAE_NAA_J@Z 10026491 f i libucrt:output.obj
 0001:000254b7       ??$extract_argument_from_va_list@F_J@?$standard_base@_WV?$string_output_adapter@_W@__crt_stdio_output@@@__crt_stdio_output@@IAE_NAA_J@Z 100264b7 f i libucrt:output.obj
 0001:000254dd       ??$extract_argument_from_va_list@GD@?$positional_parameter_base@DV?$stream_output_adapter@D@__crt_stdio_output@@@__crt_stdio_output@@IAE_NAAD@Z 100264dd f i libucrt:output.obj
 0001:00025573       ??$extract_argument_from_va_list@GD@?$positional_parameter_base@DV?$string_output_adapter@D@__crt_stdio_output@@@__crt_stdio_output@@IAE_NAAD@Z 10026573 f i libucrt:output.obj
 0001:00025609       ??$extract_argument_from_va_list@GD@?$standard_base@DV?$stream_output_adapter@D@__crt_stdio_output@@@__crt_stdio_output@@IAE_NAAD@Z 10026609 f i libucrt:output.obj
 0001:00025629       ??$extract_argument_from_va_list@GD@?$standard_base@DV?$string_output_adapter@D@__crt_stdio_output@@@__crt_stdio_output@@IAE_NAAD@Z 10026629 f i libucrt:output.obj
 0001:00025649       ??$extract_argument_from_va_list@G_J@?$positional_parameter_base@DV?$stream_output_adapter@D@__crt_stdio_output@@@__crt_stdio_output@@IAE_NAA_J@Z 10026649 f i libucrt:output.obj
 0001:000256e0       ??$extract_argument_from_va_list@G_J@?$positional_parameter_base@DV?$string_output_adapter@D@__crt_stdio_output@@@__crt_stdio_output@@IAE_NAA_J@Z 100266e0 f i libucrt:output.obj
 0001:00025777       ??$extract_argument_from_va_list@G_J@?$positional_parameter_base@_WV?$stream_output_adapter@_W@__crt_stdio_output@@@__crt_stdio_output@@IAE_NAA_J@Z 10026777 f i libucrt:output.obj
 0001:0002580e       ??$extract_argument_from_va_list@G_J@?$positional_parameter_base@_WV?$string_output_adapter@_W@__crt_stdio_output@@@__crt_stdio_output@@IAE_NAA_J@Z 1002680e f i libucrt:output.obj
 0001:000258a5       ??$extract_argument_from_va_list@G_J@?$standard_base@DV?$stream_output_adapter@D@__crt_stdio_output@@@__crt_stdio_output@@IAE_NAA_J@Z 100268a5 f i libucrt:output.obj
 0001:000258cb       ??$extract_argument_from_va_list@G_J@?$standard_base@DV?$string_output_adapter@D@__crt_stdio_output@@@__crt_stdio_output@@IAE_NAA_J@Z 100268cb f i libucrt:output.obj
 0001:000258f1       ??$extract_argument_from_va_list@G_J@?$standard_base@_WV?$stream_output_adapter@_W@__crt_stdio_output@@@__crt_stdio_output@@IAE_NAA_J@Z 100268f1 f i libucrt:output.obj
 0001:00025917       ??$extract_argument_from_va_list@G_J@?$standard_base@_WV?$string_output_adapter@_W@__crt_stdio_output@@@__crt_stdio_output@@IAE_NAA_J@Z 10026917 f i libucrt:output.obj
 0001:0002593d       ??$extract_argument_from_va_list@H_J@?$positional_parameter_base@DV?$stream_output_adapter@D@__crt_stdio_output@@@__crt_stdio_output@@IAE_NAA_J@Z 1002693d f i libucrt:output.obj
 0001:000259d1       ??$extract_argument_from_va_list@H_J@?$positional_parameter_base@DV?$string_output_adapter@D@__crt_stdio_output@@@__crt_stdio_output@@IAE_NAA_J@Z 100269d1 f i libucrt:output.obj
 0001:00025a65       ??$extract_argument_from_va_list@H_J@?$positional_parameter_base@_WV?$stream_output_adapter@_W@__crt_stdio_output@@@__crt_stdio_output@@IAE_NAA_J@Z 10026a65 f i libucrt:output.obj
 0001:00025af9       ??$extract_argument_from_va_list@H_J@?$positional_parameter_base@_WV?$string_output_adapter@_W@__crt_stdio_output@@@__crt_stdio_output@@IAE_NAA_J@Z 10026af9 f i libucrt:output.obj
 0001:00025b8d       ??$extract_argument_from_va_list@H_J@?$standard_base@DV?$stream_output_adapter@D@__crt_stdio_output@@@__crt_stdio_output@@IAE_NAA_J@Z 10026b8d f i libucrt:output.obj
 0001:00025bb2       ??$extract_argument_from_va_list@H_J@?$standard_base@DV?$string_output_adapter@D@__crt_stdio_output@@@__crt_stdio_output@@IAE_NAA_J@Z 10026bb2 f i libucrt:output.obj
 0001:00025bd7       ??$extract_argument_from_va_list@H_J@?$standard_base@_WV?$stream_output_adapter@_W@__crt_stdio_output@@@__crt_stdio_output@@IAE_NAA_J@Z 10026bd7 f i libucrt:output.obj
 0001:00025bfc       ??$extract_argument_from_va_list@H_J@?$standard_base@_WV?$string_output_adapter@_W@__crt_stdio_output@@@__crt_stdio_output@@IAE_NAA_J@Z 10026bfc f i libucrt:output.obj
 0001:00025c21       ??$extract_argument_from_va_list@I_J@?$positional_parameter_base@DV?$stream_output_adapter@D@__crt_stdio_output@@@__crt_stdio_output@@IAE_NAA_J@Z 10026c21 f i libucrt:output.obj
 0001:00025cc1       ??$extract_argument_from_va_list@I_J@?$positional_parameter_base@DV?$string_output_adapter@D@__crt_stdio_output@@@__crt_stdio_output@@IAE_NAA_J@Z 10026cc1 f i libucrt:output.obj
 0001:00025d61       ??$extract_argument_from_va_list@I_J@?$positional_parameter_base@_WV?$stream_output_adapter@_W@__crt_stdio_output@@@__crt_stdio_output@@IAE_NAA_J@Z 10026d61 f i libucrt:output.obj
 0001:00025e01       ??$extract_argument_from_va_list@I_J@?$positional_parameter_base@_WV?$string_output_adapter@_W@__crt_stdio_output@@@__crt_stdio_output@@IAE_NAA_J@Z 10026e01 f i libucrt:output.obj
 0001:00025ea1       ??$extract_argument_from_va_list@I_J@?$standard_base@DV?$stream_output_adapter@D@__crt_stdio_output@@@__crt_stdio_output@@IAE_NAA_J@Z 10026ea1 f i libucrt:output.obj
 0001:00025ec6       ??$extract_argument_from_va_list@I_J@?$standard_base@DV?$string_output_adapter@D@__crt_stdio_output@@@__crt_stdio_output@@IAE_NAA_J@Z 10026ec6 f i libucrt:output.obj
 0001:00025eeb       ??$extract_argument_from_va_list@I_J@?$standard_base@_WV?$stream_output_adapter@_W@__crt_stdio_output@@@__crt_stdio_output@@IAE_NAA_J@Z 10026eeb f i libucrt:output.obj
 0001:00025f10       ??$extract_argument_from_va_list@I_J@?$standard_base@_WV?$string_output_adapter@_W@__crt_stdio_output@@@__crt_stdio_output@@IAE_NAA_J@Z 10026f10 f i libucrt:output.obj
 0001:00025f35       ??$extract_argument_from_va_list@PADPAD@?$positional_parameter_base@DV?$stream_output_adapter@D@__crt_stdio_output@@@__crt_stdio_output@@IAE_NAAPAD@Z 10026f35 f i libucrt:output.obj
 0001:00025fcb       ??$extract_argument_from_va_list@PADPAD@?$positional_parameter_base@DV?$string_output_adapter@D@__crt_stdio_output@@@__crt_stdio_output@@IAE_NAAPAD@Z 10026fcb f i libucrt:output.obj
 0001:00026061       ??$extract_argument_from_va_list@PADPAD@?$positional_parameter_base@_WV?$stream_output_adapter@_W@__crt_stdio_output@@@__crt_stdio_output@@IAE_NAAPAD@Z 10027061 f i libucrt:output.obj
 0001:000260f7       ??$extract_argument_from_va_list@PADPAD@?$positional_parameter_base@_WV?$string_output_adapter@_W@__crt_stdio_output@@@__crt_stdio_output@@IAE_NAAPAD@Z 100270f7 f i libucrt:output.obj
 0001:0002618d       ??$extract_argument_from_va_list@PADPAD@?$standard_base@DV?$stream_output_adapter@D@__crt_stdio_output@@@__crt_stdio_output@@IAE_NAAPAD@Z 1002718d f i libucrt:output.obj
 0001:000261ad       ??$extract_argument_from_va_list@PADPAD@?$standard_base@DV?$string_output_adapter@D@__crt_stdio_output@@@__crt_stdio_output@@IAE_NAAPAD@Z 100271ad f i libucrt:output.obj
 0001:000261cd       ??$extract_argument_from_va_list@PADPAD@?$standard_base@_WV?$stream_output_adapter@_W@__crt_stdio_output@@@__crt_stdio_output@@IAE_NAAPAD@Z 100271cd f i libucrt:output.obj
 0001:000261ed       ??$extract_argument_from_va_list@PADPAD@?$standard_base@_WV?$string_output_adapter@_W@__crt_stdio_output@@@__crt_stdio_output@@IAE_NAAPAD@Z 100271ed f i libucrt:output.obj
 0001:000265e5       ??$extract_argument_from_va_list@PAXPAX@?$positional_parameter_base@DV?$stream_output_adapter@D@__crt_stdio_output@@@__crt_stdio_output@@IAE_NAAPAX@Z 100275e5 f i libucrt:output.obj
 0001:0002667b       ??$extract_argument_from_va_list@PAXPAX@?$positional_parameter_base@DV?$string_output_adapter@D@__crt_stdio_output@@@__crt_stdio_output@@IAE_NAAPAX@Z 1002767b f i libucrt:output.obj
 0001:00026711       ??$extract_argument_from_va_list@PAXPAX@?$positional_parameter_base@_WV?$stream_output_adapter@_W@__crt_stdio_output@@@__crt_stdio_output@@IAE_NAAPAX@Z 10027711 f i libucrt:output.obj
 0001:000267a7       ??$extract_argument_from_va_list@PAXPAX@?$positional_parameter_base@_WV?$string_output_adapter@_W@__crt_stdio_output@@@__crt_stdio_output@@IAE_NAAPAX@Z 100277a7 f i libucrt:output.obj
 0001:0002683d       ??$extract_argument_from_va_list@PAXPAX@?$standard_base@DV?$stream_output_adapter@D@__crt_stdio_output@@@__crt_stdio_output@@IAE_NAAPAX@Z 1002783d f i libucrt:output.obj
 0001:0002685d       ??$extract_argument_from_va_list@PAXPAX@?$standard_base@DV?$string_output_adapter@D@__crt_stdio_output@@@__crt_stdio_output@@IAE_NAAPAX@Z 1002785d f i libucrt:output.obj
 0001:0002687d       ??$extract_argument_from_va_list@PAXPAX@?$standard_base@_WV?$stream_output_adapter@_W@__crt_stdio_output@@@__crt_stdio_output@@IAE_NAAPAX@Z 1002787d f i libucrt:output.obj
 0001:0002689d       ??$extract_argument_from_va_list@PAXPAX@?$standard_base@_WV?$string_output_adapter@_W@__crt_stdio_output@@@__crt_stdio_output@@IAE_NAAPAX@Z 1002789d f i libucrt:output.obj
 0001:000268bd       ??$extract_argument_from_va_list@U_CRT_DOUBLE@@U1@@?$positional_parameter_base@DV?$stream_output_adapter@D@__crt_stdio_output@@@__crt_stdio_output@@IAE_NAAU_CRT_DOUBLE@@@Z 100278bd f i libucrt:output.obj
 0001:00026964       ??$extract_argument_from_va_list@U_CRT_DOUBLE@@U1@@?$positional_parameter_base@DV?$string_output_adapter@D@__crt_stdio_output@@@__crt_stdio_output@@IAE_NAAU_CRT_DOUBLE@@@Z 10027964 f i libucrt:output.obj
 0001:00026a0b       ??$extract_argument_from_va_list@U_CRT_DOUBLE@@U1@@?$positional_parameter_base@_WV?$stream_output_adapter@_W@__crt_stdio_output@@@__crt_stdio_output@@IAE_NAAU_CRT_DOUBLE@@@Z 10027a0b f i libucrt:output.obj
 0001:00026ab2       ??$extract_argument_from_va_list@U_CRT_DOUBLE@@U1@@?$positional_parameter_base@_WV?$string_output_adapter@_W@__crt_stdio_output@@@__crt_stdio_output@@IAE_NAAU_CRT_DOUBLE@@@Z 10027ab2 f i libucrt:output.obj
 0001:00026b59       ??$extract_argument_from_va_list@U_CRT_DOUBLE@@U1@@?$standard_base@DV?$stream_output_adapter@D@__crt_stdio_output@@@__crt_stdio_output@@IAE_NAAU_CRT_DOUBLE@@@Z 10027b59 f i libucrt:output.obj
 0001:00026b81       ??$extract_argument_from_va_list@U_CRT_DOUBLE@@U1@@?$standard_base@DV?$string_output_adapter@D@__crt_stdio_output@@@__crt_stdio_output@@IAE_NAAU_CRT_DOUBLE@@@Z 10027b81 f i libucrt:output.obj
 0001:00026ba9       ??$extract_argument_from_va_list@U_CRT_DOUBLE@@U1@@?$standard_base@_WV?$stream_output_adapter@_W@__crt_stdio_output@@@__crt_stdio_output@@IAE_NAAU_CRT_DOUBLE@@@Z 10027ba9 f i libucrt:output.obj
 0001:00026bd1       ??$extract_argument_from_va_list@U_CRT_DOUBLE@@U1@@?$standard_base@_WV?$string_output_adapter@_W@__crt_stdio_output@@@__crt_stdio_output@@IAE_NAAU_CRT_DOUBLE@@@Z 10027bd1 f i libucrt:output.obj
 0001:00026bf9       ??$extract_argument_from_va_list@_J_J@?$positional_parameter_base@DV?$stream_output_adapter@D@__crt_stdio_output@@@__crt_stdio_output@@IAE_NAA_J@Z 10027bf9 f i libucrt:output.obj
 0001:00026ca0       ??$extract_argument_from_va_list@_J_J@?$positional_parameter_base@DV?$string_output_adapter@D@__crt_stdio_output@@@__crt_stdio_output@@IAE_NAA_J@Z 10027ca0 f i libucrt:output.obj
 0001:00026d47       ??$extract_argument_from_va_list@_J_J@?$positional_parameter_base@_WV?$stream_output_adapter@_W@__crt_stdio_output@@@__crt_stdio_output@@IAE_NAA_J@Z 10027d47 f i libucrt:output.obj
 0001:00026dee       ??$extract_argument_from_va_list@_J_J@?$positional_parameter_base@_WV?$string_output_adapter@_W@__crt_stdio_output@@@__crt_stdio_output@@IAE_NAA_J@Z 10027dee f i libucrt:output.obj
 0001:00026e95       ??$extract_argument_from_va_list@_J_J@?$standard_base@DV?$stream_output_adapter@D@__crt_stdio_output@@@__crt_stdio_output@@IAE_NAA_J@Z 10027e95 f i libucrt:output.obj
 0001:00026ebd       ??$extract_argument_from_va_list@_J_J@?$standard_base@DV?$string_output_adapter@D@__crt_stdio_output@@@__crt_stdio_output@@IAE_NAA_J@Z 10027ebd f i libucrt:output.obj
 0001:00026ee5       ??$extract_argument_from_va_list@_J_J@?$standard_base@_WV?$stream_output_adapter@_W@__crt_stdio_output@@@__crt_stdio_output@@IAE_NAA_J@Z 10027ee5 f i libucrt:output.obj
 0001:00026f0d       ??$extract_argument_from_va_list@_J_J@?$standard_base@_WV?$string_output_adapter@_W@__crt_stdio_output@@@__crt_stdio_output@@IAE_NAA_J@Z 10027f0d f i libucrt:output.obj
 0001:00026f35       ??$extract_argument_from_va_list@_K_J@?$positional_parameter_base@DV?$stream_output_adapter@D@__crt_stdio_output@@@__crt_stdio_output@@IAE_NAA_J@Z 10027f35 f i libucrt:output.obj
 0001:00026fdc       ??$extract_argument_from_va_list@_K_J@?$positional_parameter_base@DV?$string_output_adapter@D@__crt_stdio_output@@@__crt_stdio_output@@IAE_NAA_J@Z 10027fdc f i libucrt:output.obj
 0001:00027083       ??$extract_argument_from_va_list@_K_J@?$positional_parameter_base@_WV?$stream_output_adapter@_W@__crt_stdio_output@@@__crt_stdio_output@@IAE_NAA_J@Z 10028083 f i libucrt:output.obj
 0001:0002712a       ??$extract_argument_from_va_list@_K_J@?$positional_parameter_base@_WV?$string_output_adapter@_W@__crt_stdio_output@@@__crt_stdio_output@@IAE_NAA_J@Z 1002812a f i libucrt:output.obj
 0001:000271d1       ??$extract_argument_from_va_list@_K_J@?$standard_base@DV?$stream_output_adapter@D@__crt_stdio_output@@@__crt_stdio_output@@IAE_NAA_J@Z 100281d1 f i libucrt:output.obj
 0001:000271f9       ??$extract_argument_from_va_list@_K_J@?$standard_base@DV?$string_output_adapter@D@__crt_stdio_output@@@__crt_stdio_output@@IAE_NAA_J@Z 100281f9 f i libucrt:output.obj
 0001:00027221       ??$extract_argument_from_va_list@_K_J@?$standard_base@_WV?$stream_output_adapter@_W@__crt_stdio_output@@@__crt_stdio_output@@IAE_NAA_J@Z 10028221 f i libucrt:output.obj
 0001:00027249       ??$extract_argument_from_va_list@_K_J@?$standard_base@_WV?$string_output_adapter@_W@__crt_stdio_output@@@__crt_stdio_output@@IAE_NAA_J@Z 10028249 f i libucrt:output.obj
 0001:00027271       ??$extract_argument_from_va_list@_W_W@?$positional_parameter_base@DV?$stream_output_adapter@D@__crt_stdio_output@@@__crt_stdio_output@@IAE_NAA_W@Z 10028271 f i libucrt:output.obj
 0001:0002730c       ??$extract_argument_from_va_list@_W_W@?$positional_parameter_base@DV?$string_output_adapter@D@__crt_stdio_output@@@__crt_stdio_output@@IAE_NAA_W@Z 1002830c f i libucrt:output.obj
 0001:000273a7       ??$extract_argument_from_va_list@_W_W@?$positional_parameter_base@_WV?$stream_output_adapter@_W@__crt_stdio_output@@@__crt_stdio_output@@IAE_NAA_W@Z 100283a7 f i libucrt:output.obj
 0001:00027442       ??$extract_argument_from_va_list@_W_W@?$positional_parameter_base@_WV?$string_output_adapter@_W@__crt_stdio_output@@@__crt_stdio_output@@IAE_NAA_W@Z 10028442 f i libucrt:output.obj
 0001:000274dd       ??$extract_argument_from_va_list@_W_W@?$standard_base@DV?$stream_output_adapter@D@__crt_stdio_output@@@__crt_stdio_output@@IAE_NAA_W@Z 100284dd f i libucrt:output.obj
 0001:00027500       ??$extract_argument_from_va_list@_W_W@?$standard_base@DV?$string_output_adapter@D@__crt_stdio_output@@@__crt_stdio_output@@IAE_NAA_W@Z 10028500 f i libucrt:output.obj
 0001:00027523       ??$extract_argument_from_va_list@_W_W@?$standard_base@_WV?$stream_output_adapter@_W@__crt_stdio_output@@@__crt_stdio_output@@IAE_NAA_W@Z 10028523 f i libucrt:output.obj
 0001:00027546       ??$extract_argument_from_va_list@_W_W@?$standard_base@_WV?$string_output_adapter@_W@__crt_stdio_output@@@__crt_stdio_output@@IAE_NAA_W@Z 10028546 f i libucrt:output.obj
 0001:00027569       ??$get_parameter_type@D@?$positional_parameter_base@DV?$stream_output_adapter@D@__crt_stdio_output@@@__crt_stdio_output@@CA?AW4parameter_type@01@PAD@Z 10028569 f i libucrt:output.obj
 0001:0002756d       ??$get_parameter_type@D@?$positional_parameter_base@DV?$string_output_adapter@D@__crt_stdio_output@@@__crt_stdio_output@@CA?AW4parameter_type@01@PAD@Z 1002856d f i libucrt:output.obj
 0001:00027571       ??$get_parameter_type@D@?$positional_parameter_base@_WV?$stream_output_adapter@_W@__crt_stdio_output@@@__crt_stdio_output@@CA?AW4parameter_type@01@PAD@Z 10028571 f i libucrt:output.obj
 0001:00027575       ??$get_parameter_type@D@?$positional_parameter_base@_WV?$string_output_adapter@_W@__crt_stdio_output@@@__crt_stdio_output@@CA?AW4parameter_type@01@PAD@Z 10028575 f i libucrt:output.obj
 0001:00027589       ??$get_parameter_type@X@?$positional_parameter_base@DV?$stream_output_adapter@D@__crt_stdio_output@@@__crt_stdio_output@@CA?AW4parameter_type@01@PAX@Z 10028589 f i libucrt:output.obj
 0001:0002758d       ??$get_parameter_type@X@?$positional_parameter_base@DV?$string_output_adapter@D@__crt_stdio_output@@@__crt_stdio_output@@CA?AW4parameter_type@01@PAX@Z 1002858d f i libucrt:output.obj
 0001:00027591       ??$get_parameter_type@X@?$positional_parameter_base@_WV?$stream_output_adapter@_W@__crt_stdio_output@@@__crt_stdio_output@@CA?AW4parameter_type@01@PAX@Z 10028591 f i libucrt:output.obj
 0001:00027595       ??$get_parameter_type@X@?$positional_parameter_base@_WV?$string_output_adapter@_W@__crt_stdio_output@@@__crt_stdio_output@@CA?AW4parameter_type@01@PAX@Z 10028595 f i libucrt:output.obj
 0001:00027599       ??$is_character_specifier@D@?$positional_parameter_base@DV?$stream_output_adapter@D@__crt_stdio_output@@@__crt_stdio_output@@CA_ND@Z 10028599 f i libucrt:output.obj
 0001:000275b7       ??$is_character_specifier@D@?$positional_parameter_base@DV?$string_output_adapter@D@__crt_stdio_output@@@__crt_stdio_output@@CA_ND@Z 100285b7 f i libucrt:output.obj
 0001:000275d5       ??$is_character_specifier@_W@?$positional_parameter_base@_WV?$stream_output_adapter@_W@__crt_stdio_output@@@__crt_stdio_output@@CA_N_W@Z 100285d5 f i libucrt:output.obj
 0001:000275f6       ??$is_character_specifier@_W@?$positional_parameter_base@_WV?$string_output_adapter@_W@__crt_stdio_output@@@__crt_stdio_output@@CA_N_W@Z 100285f6 f i libucrt:output.obj
 0001:00027617       ??$is_integral_specifier@D@?$positional_parameter_base@DV?$stream_output_adapter@D@__crt_stdio_output@@@__crt_stdio_output@@CA_ND@Z 10028617 f i libucrt:output.obj
 0001:0002764e       ??$is_integral_specifier@D@?$positional_parameter_base@DV?$string_output_adapter@D@__crt_stdio_output@@@__crt_stdio_output@@CA_ND@Z 1002864e f i libucrt:output.obj
 0001:00027685       ??$is_integral_specifier@_W@?$positional_parameter_base@_WV?$stream_output_adapter@_W@__crt_stdio_output@@@__crt_stdio_output@@CA_N_W@Z 10028685 f i libucrt:output.obj
 0001:000276ce       ??$is_integral_specifier@_W@?$positional_parameter_base@_WV?$string_output_adapter@_W@__crt_stdio_output@@@__crt_stdio_output@@CA_N_W@Z 100286ce f i libucrt:output.obj
 0001:00027717       ??$is_pointer_specifier@D@?$positional_parameter_base@DV?$stream_output_adapter@D@__crt_stdio_output@@@__crt_stdio_output@@CA_ND@Z 10028717 f i libucrt:output.obj
 0001:00027728       ??$is_pointer_specifier@D@?$positional_parameter_base@DV?$string_output_adapter@D@__crt_stdio_output@@@__crt_stdio_output@@CA_ND@Z 10028728 f i libucrt:output.obj
 0001:00027739       ??$is_pointer_specifier@_W@?$positional_parameter_base@_WV?$stream_output_adapter@_W@__crt_stdio_output@@@__crt_stdio_output@@CA_N_W@Z 10028739 f i libucrt:output.obj
 0001:0002774b       ??$is_pointer_specifier@_W@?$positional_parameter_base@_WV?$string_output_adapter@_W@__crt_stdio_output@@@__crt_stdio_output@@CA_N_W@Z 1002874b f i libucrt:output.obj
 0001:0002775d       ??$is_string_specifier@D@?$positional_parameter_base@DV?$stream_output_adapter@D@__crt_stdio_output@@@__crt_stdio_output@@CA_ND@Z 1002875d f i libucrt:output.obj
 0001:0002777b       ??$is_string_specifier@D@?$positional_parameter_base@DV?$string_output_adapter@D@__crt_stdio_output@@@__crt_stdio_output@@CA_ND@Z 1002877b f i libucrt:output.obj
 0001:00027799       ??$is_string_specifier@_W@?$positional_parameter_base@_WV?$stream_output_adapter@_W@__crt_stdio_output@@@__crt_stdio_output@@CA_N_W@Z 10028799 f i libucrt:output.obj
 0001:000277ba       ??$is_string_specifier@_W@?$positional_parameter_base@_WV?$string_output_adapter@_W@__crt_stdio_output@@@__crt_stdio_output@@CA_N_W@Z 100287ba f i libucrt:output.obj
 0001:000277db       ??$is_wide_character_specifier@D@__crt_stdio_output@@YA_N_KDW4length_modifier@0@@Z 100287db f i libucrt:output.obj
 0001:00027818       ??$is_wide_character_specifier@_W@__crt_stdio_output@@YA_N_K_WW4length_modifier@0@@Z 10028818 f i libucrt:output.obj
 0001:00027879       ??$peek_va_arg@C@__crt_stdio_output@@YACPAD@Z 10028879 f i libucrt:output.obj
 0001:00027888       ??$peek_va_arg@E@__crt_stdio_output@@YAEPAD@Z 10028888 f i libucrt:output.obj
 0001:00027897       ??$peek_va_arg@F@__crt_stdio_output@@YAFPAD@Z 10028897 f i libucrt:output.obj
 0001:000278a7       ??$peek_va_arg@G@__crt_stdio_output@@YAGPAD@Z 100288a7 f i libucrt:output.obj
 0001:000278b7       ??$peek_va_arg@H@__crt_stdio_output@@YAHPAD@Z 100288b7 f i libucrt:output.obj
 0001:000278c6       ??$peek_va_arg@I@__crt_stdio_output@@YAIPAD@Z 100288c6 f i libucrt:output.obj
 0001:000278d5       ??$peek_va_arg@PAD@__crt_stdio_output@@YAPADPAD@Z 100288d5 f i libucrt:output.obj
 0001:00027920       ??$peek_va_arg@PAX@__crt_stdio_output@@YAPAXPAD@Z 10028920 f i libucrt:output.obj
 0001:0002792f       ??$peek_va_arg@U_CRT_DOUBLE@@@__crt_stdio_output@@YA?AU_CRT_DOUBLE@@PAD@Z 1002892f f i libucrt:output.obj
 0001:00027941       ??$peek_va_arg@_J@__crt_stdio_output@@YA_JPAD@Z 10028941 f i libucrt:output.obj
 0001:00027953       ??$peek_va_arg@_K@__crt_stdio_output@@YA_KPAD@Z 10028953 f i libucrt:output.obj
 0001:00027965       ??$peek_va_arg@_W@__crt_stdio_output@@YA_WPAD@Z 10028965 f i libucrt:output.obj
 0001:00027975       ??$puttc_nolock@ABDPAU_iobuf@@@?$__crt_char_traits@D@@SAHABD$$QAPAU_iobuf@@@Z 10028975 f i libucrt:output.obj
 0001:00027995       ??$puttc_nolock@AB_WPAU_iobuf@@@?$__crt_char_traits@_W@@SAGAB_W$$QAPAU_iobuf@@@Z 10028995 f i libucrt:output.obj
 0001:000279b5       ??$read_va_arg@C@__crt_stdio_output@@YACAAPAD@Z 100289b5 f i libucrt:output.obj
 0001:000279cb       ??$read_va_arg@E@__crt_stdio_output@@YAEAAPAD@Z 100289cb f i libucrt:output.obj
 0001:000279e1       ??$read_va_arg@F@__crt_stdio_output@@YAFAAPAD@Z 100289e1 f i libucrt:output.obj
 0001:000279f8       ??$read_va_arg@G@__crt_stdio_output@@YAGAAPAD@Z 100289f8 f i libucrt:output.obj
 0001:00027a0f       ??$read_va_arg@H@__crt_stdio_output@@YAHAAPAD@Z 10028a0f f i libucrt:output.obj
 0001:00027a25       ??$read_va_arg@I@__crt_stdio_output@@YAIAAPAD@Z 10028a25 f i libucrt:output.obj
 0001:00027a3b       ??$read_va_arg@PAD@__crt_stdio_output@@YAPADAAPAD@Z 10028a3b f i libucrt:output.obj
 0001:00027b59       ??$read_va_arg@PAX@__crt_stdio_output@@YAPAXAAPAD@Z 10028b59 f i libucrt:output.obj
 0001:00027b6f       ??$read_va_arg@U_CRT_DOUBLE@@@__crt_stdio_output@@YA?AU_CRT_DOUBLE@@AAPAD@Z 10028b6f f i libucrt:output.obj
 0001:00027b8a       ??$read_va_arg@_J@__crt_stdio_output@@YA_JAAPAD@Z 10028b8a f i libucrt:output.obj
 0001:00027ba4       ??$read_va_arg@_K@__crt_stdio_output@@YA_KAAPAD@Z 10028ba4 f i libucrt:output.obj
 0001:00027bbe       ??$read_va_arg@_W@__crt_stdio_output@@YA_WAAPAD@Z 10028bbe f i libucrt:output.obj
 0001:00027bd5       ??$scratch_count@D@formatting_buffer@__crt_stdio_output@@QBEIXZ 10028bd5 f i libucrt:output.obj
 0001:00027bda       ??$scratch_data@D@formatting_buffer@__crt_stdio_output@@QAEPADXZ 10028bda f i libucrt:output.obj
 0001:00027bff       ??$tcstol@AAPBDPAPADH@?$__crt_char_traits@D@@SAJAAPBD$$QAPAPAD$$QAH@Z 10028bff f i libucrt:output.obj
 0001:00027c24       ??$tcstol@AAPB_WPAPA_WH@?$__crt_char_traits@_W@@SAJAAPB_W$$QAPAPA_W$$QAH@Z 10028c24 f i libucrt:output.obj
 0001:00027c49       ??$tcstol@PBDPAPADH@?$__crt_char_traits@D@@SAJ$$QAPBD$$QAPAPAD$$QAH@Z 10028c49 f i libucrt:output.obj
 0001:00027c6e       ??$tcstol@PB_WPAPA_WH@?$__crt_char_traits@_W@@SAJ$$QAPB_W$$QAPAPA_W$$QAH@Z 10028c6e f i libucrt:output.obj
 0001:00027c93       ??$type_case_integer_parse_into_buffer@I@?$output_processor@DV?$stream_output_adapter@D@__crt_stdio_output@@V?$format_validation_base@DV?$stream_output_adapter@D@__crt_stdio_output@@@2@@__crt_stdio_output@@AAEXII_N@Z 10028c93 f i libucrt:output.obj
 0001:00027d22       ??$type_case_integer_parse_into_buffer@I@?$output_processor@DV?$stream_output_adapter@D@__crt_stdio_output@@V?$positional_parameter_base@DV?$stream_output_adapter@D@__crt_stdio_output@@@2@@__crt_stdio_output@@AAEXII_N@Z 10028d22 f i libucrt:output.obj
 0001:00027db1       ??$type_case_integer_parse_into_buffer@I@?$output_processor@DV?$stream_output_adapter@D@__crt_stdio_output@@V?$standard_base@DV?$stream_output_adapter@D@__crt_stdio_output@@@2@@__crt_stdio_output@@AAEXII_N@Z 10028db1 f i libucrt:output.obj
 0001:00027e40       ??$type_case_integer_parse_into_buffer@I@?$output_processor@DV?$string_output_adapter@D@__crt_stdio_output@@V?$format_validation_base@DV?$string_output_adapter@D@__crt_stdio_output@@@2@@__crt_stdio_output@@AAEXII_N@Z 10028e40 f i libucrt:output.obj
 0001:00027ecf       ??$type_case_integer_parse_into_buffer@I@?$output_processor@DV?$string_output_adapter@D@__crt_stdio_output@@V?$positional_parameter_base@DV?$string_output_adapter@D@__crt_stdio_output@@@2@@__crt_stdio_output@@AAEXII_N@Z 10028ecf f i libucrt:output.obj
 0001:00027f5e       ??$type_case_integer_parse_into_buffer@I@?$output_processor@DV?$string_output_adapter@D@__crt_stdio_output@@V?$standard_base@DV?$string_output_adapter@D@__crt_stdio_output@@@2@@__crt_stdio_output@@AAEXII_N@Z 10028f5e f i libucrt:output.obj
 0001:00027fed       ??$type_case_integer_parse_into_buffer@I@?$output_processor@_WV?$stream_output_adapter@_W@__crt_stdio_output@@V?$format_validation_base@_WV?$stream_output_adapter@_W@__crt_stdio_output@@@2@@__crt_stdio_output@@AAEXII_N@Z 10028fed f i libucrt:output.obj
 0001:0002808d       ??$type_case_integer_parse_into_buffer@I@?$output_processor@_WV?$stream_output_adapter@_W@__crt_stdio_output@@V?$positional_parameter_base@_WV?$stream_output_adapter@_W@__crt_stdio_output@@@2@@__crt_stdio_output@@AAEXII_N@Z 1002908d f i libucrt:output.obj
 0001:0002812d       ??$type_case_integer_parse_into_buffer@I@?$output_processor@_WV?$stream_output_adapter@_W@__crt_stdio_output@@V?$standard_base@_WV?$stream_output_adapter@_W@__crt_stdio_output@@@2@@__crt_stdio_output@@AAEXII_N@Z 1002912d f i libucrt:output.obj
 0001:000281cd       ??$type_case_integer_parse_into_buffer@I@?$output_processor@_WV?$string_output_adapter@_W@__crt_stdio_output@@V?$format_validation_base@_WV?$string_output_adapter@_W@__crt_stdio_output@@@2@@__crt_stdio_output@@AAEXII_N@Z 100291cd f i libucrt:output.obj
 0001:0002826d       ??$type_case_integer_parse_into_buffer@I@?$output_processor@_WV?$string_output_adapter@_W@__crt_stdio_output@@V?$positional_parameter_base@_WV?$string_output_adapter@_W@__crt_stdio_output@@@2@@__crt_stdio_output@@AAEXII_N@Z 1002926d f i libucrt:output.obj
 0001:0002830d       ??$type_case_integer_parse_into_buffer@I@?$output_processor@_WV?$string_output_adapter@_W@__crt_stdio_output@@V?$standard_base@_WV?$string_output_adapter@_W@__crt_stdio_output@@@2@@__crt_stdio_output@@AAEXII_N@Z 1002930d f i libucrt:output.obj
 0001:000283ad       ??$type_case_integer_parse_into_buffer@_K@?$output_processor@DV?$stream_output_adapter@D@__crt_stdio_output@@V?$format_validation_base@DV?$stream_output_adapter@D@__crt_stdio_output@@@2@@__crt_stdio_output@@AAEX_KI_N@Z 100293ad f i libucrt:output.obj
 0001:0002845f       ??$type_case_integer_parse_into_buffer@_K@?$output_processor@DV?$stream_output_adapter@D@__crt_stdio_output@@V?$positional_parameter_base@DV?$stream_output_adapter@D@__crt_stdio_output@@@2@@__crt_stdio_output@@AAEX_KI_N@Z 1002945f f i libucrt:output.obj
 0001:00028511       ??$type_case_integer_parse_into_buffer@_K@?$output_processor@DV?$stream_output_adapter@D@__crt_stdio_output@@V?$standard_base@DV?$stream_output_adapter@D@__crt_stdio_output@@@2@@__crt_stdio_output@@AAEX_KI_N@Z 10029511 f i libucrt:output.obj
 0001:000285c3       ??$type_case_integer_parse_into_buffer@_K@?$output_processor@DV?$string_output_adapter@D@__crt_stdio_output@@V?$format_validation_base@DV?$string_output_adapter@D@__crt_stdio_output@@@2@@__crt_stdio_output@@AAEX_KI_N@Z 100295c3 f i libucrt:output.obj
 0001:00028675       ??$type_case_integer_parse_into_buffer@_K@?$output_processor@DV?$string_output_adapter@D@__crt_stdio_output@@V?$positional_parameter_base@DV?$string_output_adapter@D@__crt_stdio_output@@@2@@__crt_stdio_output@@AAEX_KI_N@Z 10029675 f i libucrt:output.obj
 0001:00028727       ??$type_case_integer_parse_into_buffer@_K@?$output_processor@DV?$string_output_adapter@D@__crt_stdio_output@@V?$standard_base@DV?$string_output_adapter@D@__crt_stdio_output@@@2@@__crt_stdio_output@@AAEX_KI_N@Z 10029727 f i libucrt:output.obj
 0001:000287d9       ??$type_case_integer_parse_into_buffer@_K@?$output_processor@_WV?$stream_output_adapter@_W@__crt_stdio_output@@V?$format_validation_base@_WV?$stream_output_adapter@_W@__crt_stdio_output@@@2@@__crt_stdio_output@@AAEX_KI_N@Z 100297d9 f i libucrt:output.obj
 0001:0002889c       ??$type_case_integer_parse_into_buffer@_K@?$output_processor@_WV?$stream_output_adapter@_W@__crt_stdio_output@@V?$positional_parameter_base@_WV?$stream_output_adapter@_W@__crt_stdio_output@@@2@@__crt_stdio_output@@AAEX_KI_N@Z 1002989c f i libucrt:output.obj
 0001:0002895f       ??$type_case_integer_parse_into_buffer@_K@?$output_processor@_WV?$stream_output_adapter@_W@__crt_stdio_output@@V?$standard_base@_WV?$stream_output_adapter@_W@__crt_stdio_output@@@2@@__crt_stdio_output@@AAEX_KI_N@Z 1002995f f i libucrt:output.obj
 0001:00028a22       ??$type_case_integer_parse_into_buffer@_K@?$output_processor@_WV?$string_output_adapter@_W@__crt_stdio_output@@V?$format_validation_base@_WV?$string_output_adapter@_W@__crt_stdio_output@@@2@@__crt_stdio_output@@AAEX_KI_N@Z 10029a22 f i libucrt:output.obj
 0001:00028ae5       ??$type_case_integer_parse_into_buffer@_K@?$output_processor@_WV?$string_output_adapter@_W@__crt_stdio_output@@V?$positional_parameter_base@_WV?$string_output_adapter@_W@__crt_stdio_output@@@2@@__crt_stdio_output@@AAEX_KI_N@Z 10029ae5 f i libucrt:output.obj
 0001:00028ba8       ??$type_case_integer_parse_into_buffer@_K@?$output_processor@_WV?$string_output_adapter@_W@__crt_stdio_output@@V?$standard_base@_WV?$string_output_adapter@_W@__crt_stdio_output@@@2@@__crt_stdio_output@@AAEX_KI_N@Z 10029ba8 f i libucrt:output.obj
 0001:00028c6b       ??$write_multiple_characters@V?$stream_output_adapter@D@__crt_stdio_output@@D@__crt_stdio_output@@YAXABV?$stream_output_adapter@D@0@DHQAH@Z 10029c6b f i libucrt:output.obj
 0001:00028cb4       ??$write_multiple_characters@V?$stream_output_adapter@_W@__crt_stdio_output@@D@__crt_stdio_output@@YAXABV?$stream_output_adapter@_W@0@DHQAH@Z 10029cb4 f i libucrt:output.obj
 0001:00028d04       ??$write_multiple_characters@V?$string_output_adapter@D@__crt_stdio_output@@D@__crt_stdio_output@@YAXABV?$string_output_adapter@D@0@DHQAH@Z 10029d04 f i libucrt:output.obj
 0001:00028d3b       ??$write_multiple_characters@V?$string_output_adapter@_W@__crt_stdio_output@@D@__crt_stdio_output@@YAXABV?$string_output_adapter@_W@0@DHQAH@Z 10029d3b f i libucrt:output.obj
 0001:00028fac       ??0?$common_data@D@__crt_stdio_output@@IAE@XZ 10029fac f i libucrt:output.obj
 0001:00029004       ??0?$common_data@_W@__crt_stdio_output@@IAE@XZ 1002a004 f i libucrt:output.obj
 0001:00029063       ??0?$output_adapter_data@DV?$stream_output_adapter@D@__crt_stdio_output@@@__crt_stdio_output@@IAE@ABV?$stream_output_adapter@D@1@_KQBDQAU__crt_locale_pointers@@QAD@Z 1002a063 f i libucrt:output.obj
 0001:000290ae       ??0?$output_adapter_data@DV?$string_output_adapter@D@__crt_stdio_output@@@__crt_stdio_output@@IAE@ABV?$string_output_adapter@D@1@_KQBDQAU__crt_locale_pointers@@QAD@Z 1002a0ae f i libucrt:output.obj
 0001:000290f9       ??0?$output_adapter_data@_WV?$stream_output_adapter@_W@__crt_stdio_output@@@__crt_stdio_output@@IAE@ABV?$stream_output_adapter@_W@1@_KQB_WQAU__crt_locale_pointers@@QAD@Z 1002a0f9 f i libucrt:output.obj
 0001:00029144       ??0?$output_adapter_data@_WV?$string_output_adapter@_W@__crt_stdio_output@@@__crt_stdio_output@@IAE@ABV?$string_output_adapter@_W@1@_KQB_WQAU__crt_locale_pointers@@QAD@Z 1002a144 f i libucrt:output.obj
 0001:0002918f       ??0?$output_processor@DV?$stream_output_adapter@D@__crt_stdio_output@@V?$format_validation_base@DV?$stream_output_adapter@D@__crt_stdio_output@@@2@@__crt_stdio_output@@QAE@ABV?$stream_output_adapter@D@1@_KQBDQAU__crt_locale_pointers@@QAD@Z 1002a18f f i libucrt:output.obj
 0001:000291c7       ??0?$output_processor@DV?$stream_output_adapter@D@__crt_stdio_output@@V?$positional_parameter_base@DV?$stream_output_adapter@D@__crt_stdio_output@@@2@@__crt_stdio_output@@QAE@ABV?$stream_output_adapter@D@1@_KQBDQAU__crt_locale_pointers@@QAD@Z 1002a1c7 f i libucrt:output.obj
 0001:000291f7       ??0?$output_processor@DV?$stream_output_adapter@D@__crt_stdio_output@@V?$standard_base@DV?$stream_output_adapter@D@__crt_stdio_output@@@2@@__crt_stdio_output@@QAE@ABV?$stream_output_adapter@D@1@_KQBDQAU__crt_locale_pointers@@QAD@Z 1002a1f7 f i libucrt:output.obj
 0001:0002922f       ??0?$output_processor@DV?$string_output_adapter@D@__crt_stdio_output@@V?$format_validation_base@DV?$string_output_adapter@D@__crt_stdio_output@@@2@@__crt_stdio_output@@QAE@ABV?$string_output_adapter@D@1@_KQBDQAU__crt_locale_pointers@@QAD@Z 1002a22f f i libucrt:output.obj
 0001:00029267       ??0?$output_processor@DV?$string_output_adapter@D@__crt_stdio_output@@V?$positional_parameter_base@DV?$string_output_adapter@D@__crt_stdio_output@@@2@@__crt_stdio_output@@QAE@ABV?$string_output_adapter@D@1@_KQBDQAU__crt_locale_pointers@@QAD@Z 1002a267 f i libucrt:output.obj
 0001:00029297       ??0?$output_processor@DV?$string_output_adapter@D@__crt_stdio_output@@V?$standard_base@DV?$string_output_adapter@D@__crt_stdio_output@@@2@@__crt_stdio_output@@QAE@ABV?$string_output_adapter@D@1@_KQBDQAU__crt_locale_pointers@@QAD@Z 1002a297 f i libucrt:output.obj
 0001:000292cf       ??0?$output_processor@_WV?$stream_output_adapter@_W@__crt_stdio_output@@V?$format_validation_base@_WV?$stream_output_adapter@_W@__crt_stdio_output@@@2@@__crt_stdio_output@@QAE@ABV?$stream_output_adapter@_W@1@_KQB_WQAU__crt_locale_pointers@@QAD@Z 1002a2cf f i libucrt:output.obj
 0001:00029307       ??0?$output_processor@_WV?$stream_output_adapter@_W@__crt_stdio_output@@V?$positional_parameter_base@_WV?$stream_output_adapter@_W@__crt_stdio_output@@@2@@__crt_stdio_output@@QAE@ABV?$stream_output_adapter@_W@1@_KQB_WQAU__crt_locale_pointers@@QAD@Z 1002a307 f i libucrt:output.obj
 0001:00029337       ??0?$output_processor@_WV?$stream_output_adapter@_W@__crt_stdio_output@@V?$standard_base@_WV?$stream_output_adapter@_W@__crt_stdio_output@@@2@@__crt_stdio_output@@QAE@ABV?$stream_output_adapter@_W@1@_KQB_WQAU__crt_locale_pointers@@QAD@Z 1002a337 f i libucrt:output.obj
 0001:0002936f       ??0?$output_processor@_WV?$string_output_adapter@_W@__crt_stdio_output@@V?$format_validation_base@_WV?$string_output_adapter@_W@__crt_stdio_output@@@2@@__crt_stdio_output@@QAE@ABV?$string_output_adapter@_W@1@_KQB_WQAU__crt_locale_pointers@@QAD@Z 1002a36f f i libucrt:output.obj
 0001:000293a7       ??0?$output_processor@_WV?$string_output_adapter@_W@__crt_stdio_output@@V?$positional_parameter_base@_WV?$string_output_adapter@_W@__crt_stdio_output@@@2@@__crt_stdio_output@@QAE@ABV?$string_output_adapter@_W@1@_KQB_WQAU__crt_locale_pointers@@QAD@Z 1002a3a7 f i libucrt:output.obj
 0001:000293d7       ??0?$output_processor@_WV?$string_output_adapter@_W@__crt_stdio_output@@V?$standard_base@_WV?$string_output_adapter@_W@__crt_stdio_output@@@2@@__crt_stdio_output@@QAE@ABV?$string_output_adapter@_W@1@_KQB_WQAU__crt_locale_pointers@@QAD@Z 1002a3d7 f i libucrt:output.obj
 0001:0002940f       ??0?$stream_output_adapter@D@__crt_stdio_output@@QAE@QAU_iobuf@@@Z 1002a40f f i libucrt:output.obj
 0001:00029423       ??0?$stream_output_adapter@_W@__crt_stdio_output@@QAE@QAU_iobuf@@@Z 1002a423 f i libucrt:output.obj
 0001:00029437       ??0?$string_output_adapter@D@__crt_stdio_output@@QAE@QAU?$string_output_adapter_context@D@1@@Z 1002a437 f i libucrt:output.obj
 0001:0002944b       ??0?$string_output_adapter@_W@__crt_stdio_output@@QAE@QAU?$string_output_adapter_context@_W@1@@Z 1002a44b f i libucrt:output.obj
 0001:0002945f       ??0_LocaleUpdate@@QAE@QAU__crt_locale_pointers@@@Z 1002a45f f i libucrt:output.obj
 0001:00029502       ??0__acrt_stdio_temporary_buffering_guard@@QAE@QAU_iobuf@@@Z 1002a502 f i libucrt:output.obj
 0001:00029527       ??0__crt_deferred_errno_cache@@QAE@XZ 1002a527 f i libucrt:output.obj
 0001:0002952d       ??0__crt_errno_guard@@QAE@QAH@Z 1002a52d f i libucrt:output.obj
 0001:0002954b       ??0formatting_buffer@__crt_stdio_output@@QAE@XZ 1002a54b f i libucrt:output.obj
 0001:00029560       ??1?$common_data@D@__crt_stdio_output@@QAE@XZ 1002a560 f i libucrt:output.obj
 0001:0002956a       ??1?$common_data@_W@__crt_stdio_output@@QAE@XZ 1002a56a f i libucrt:output.obj
 0001:00029574       ??1?$format_validation_base@DV?$stream_output_adapter@D@__crt_stdio_output@@@__crt_stdio_output@@QAE@XZ 1002a574 f i libucrt:output.obj
 0001:0002957e       ??1?$format_validation_base@DV?$string_output_adapter@D@__crt_stdio_output@@@__crt_stdio_output@@QAE@XZ 1002a57e f i libucrt:output.obj
 0001:00029588       ??1?$format_validation_base@_WV?$stream_output_adapter@_W@__crt_stdio_output@@@__crt_stdio_output@@QAE@XZ 1002a588 f i libucrt:output.obj
 0001:00029592       ??1?$format_validation_base@_WV?$string_output_adapter@_W@__crt_stdio_output@@@__crt_stdio_output@@QAE@XZ 1002a592 f i libucrt:output.obj
 0001:0002959c       ??1?$output_adapter_data@DV?$stream_output_adapter@D@__crt_stdio_output@@@__crt_stdio_output@@QAE@XZ 1002a59c f i libucrt:output.obj
 0001:000295a6       ??1?$output_adapter_data@DV?$string_output_adapter@D@__crt_stdio_output@@@__crt_stdio_output@@QAE@XZ 1002a5a6 f i libucrt:output.obj
 0001:000295b0       ??1?$output_adapter_data@_WV?$stream_output_adapter@_W@__crt_stdio_output@@@__crt_stdio_output@@QAE@XZ 1002a5b0 f i libucrt:output.obj
 0001:000295ba       ??1?$output_adapter_data@_WV?$string_output_adapter@_W@__crt_stdio_output@@@__crt_stdio_output@@QAE@XZ 1002a5ba f i libucrt:output.obj
 0001:000295c4       ??1?$output_processor@DV?$stream_output_adapter@D@__crt_stdio_output@@V?$format_validation_base@DV?$stream_output_adapter@D@__crt_stdio_output@@@2@@__crt_stdio_output@@QAE@XZ 1002a5c4 f i libucrt:output.obj
 0001:000295ce       ??1?$output_processor@DV?$stream_output_adapter@D@__crt_stdio_output@@V?$positional_parameter_base@DV?$stream_output_adapter@D@__crt_stdio_output@@@2@@__crt_stdio_output@@QAE@XZ 1002a5ce f i libucrt:output.obj
 0001:000295d8       ??1?$output_processor@DV?$stream_output_adapter@D@__crt_stdio_output@@V?$standard_base@DV?$stream_output_adapter@D@__crt_stdio_output@@@2@@__crt_stdio_output@@QAE@XZ 1002a5d8 f i libucrt:output.obj
 0001:000295e2       ??1?$output_processor@DV?$string_output_adapter@D@__crt_stdio_output@@V?$format_validation_base@DV?$string_output_adapter@D@__crt_stdio_output@@@2@@__crt_stdio_output@@QAE@XZ 1002a5e2 f i libucrt:output.obj
 0001:000295ec       ??1?$output_processor@DV?$string_output_adapter@D@__crt_stdio_output@@V?$positional_parameter_base@DV?$string_output_adapter@D@__crt_stdio_output@@@2@@__crt_stdio_output@@QAE@XZ 1002a5ec f i libucrt:output.obj
 0001:000295f6       ??1?$output_processor@DV?$string_output_adapter@D@__crt_stdio_output@@V?$standard_base@DV?$string_output_adapter@D@__crt_stdio_output@@@2@@__crt_stdio_output@@QAE@XZ 1002a5f6 f i libucrt:output.obj
 0001:00029600       ??1?$output_processor@_WV?$stream_output_adapter@_W@__crt_stdio_output@@V?$format_validation_base@_WV?$stream_output_adapter@_W@__crt_stdio_output@@@2@@__crt_stdio_output@@QAE@XZ 1002a600 f i libucrt:output.obj
 0001:0002960a       ??1?$output_processor@_WV?$stream_output_adapter@_W@__crt_stdio_output@@V?$positional_parameter_base@_WV?$stream_output_adapter@_W@__crt_stdio_output@@@2@@__crt_stdio_output@@QAE@XZ 1002a60a f i libucrt:output.obj
 0001:00029614       ??1?$output_processor@_WV?$stream_output_adapter@_W@__crt_stdio_output@@V?$standard_base@_WV?$stream_output_adapter@_W@__crt_stdio_output@@@2@@__crt_stdio_output@@QAE@XZ 1002a614 f i libucrt:output.obj
 0001:0002961e       ??1?$output_processor@_WV?$string_output_adapter@_W@__crt_stdio_output@@V?$format_validation_base@_WV?$string_output_adapter@_W@__crt_stdio_output@@@2@@__crt_stdio_output@@QAE@XZ 1002a61e f i libucrt:output.obj
 0001:00029628       ??1?$output_processor@_WV?$string_output_adapter@_W@__crt_stdio_output@@V?$positional_parameter_base@_WV?$string_output_adapter@_W@__crt_stdio_output@@@2@@__crt_stdio_output@@QAE@XZ 1002a628 f i libucrt:output.obj
 0001:00029632       ??1?$output_processor@_WV?$string_output_adapter@_W@__crt_stdio_output@@V?$standard_base@_WV?$string_output_adapter@_W@__crt_stdio_output@@@2@@__crt_stdio_output@@QAE@XZ 1002a632 f i libucrt:output.obj
 0001:0002963c       ??1?$positional_parameter_base@DV?$stream_output_adapter@D@__crt_stdio_output@@@__crt_stdio_output@@QAE@XZ 1002a63c f i libucrt:output.obj
 0001:00029646       ??1?$positional_parameter_base@DV?$string_output_adapter@D@__crt_stdio_output@@@__crt_stdio_output@@QAE@XZ 1002a646 f i libucrt:output.obj
 0001:00029650       ??1?$positional_parameter_base@_WV?$stream_output_adapter@_W@__crt_stdio_output@@@__crt_stdio_output@@QAE@XZ 1002a650 f i libucrt:output.obj
 0001:0002965a       ??1?$positional_parameter_base@_WV?$string_output_adapter@_W@__crt_stdio_output@@@__crt_stdio_output@@QAE@XZ 1002a65a f i libucrt:output.obj
 0001:00029664       ??1?$standard_base@DV?$stream_output_adapter@D@__crt_stdio_output@@@__crt_stdio_output@@QAE@XZ 1002a664 f i libucrt:output.obj
 0001:0002966e       ??1?$standard_base@DV?$string_output_adapter@D@__crt_stdio_output@@@__crt_stdio_output@@QAE@XZ 1002a66e f i libucrt:output.obj
 0001:00029678       ??1?$standard_base@_WV?$stream_output_adapter@_W@__crt_stdio_output@@@__crt_stdio_output@@QAE@XZ 1002a678 f i libucrt:output.obj
 0001:00029682       ??1?$standard_base@_WV?$string_output_adapter@_W@__crt_stdio_output@@@__crt_stdio_output@@QAE@XZ 1002a682 f i libucrt:output.obj
 0001:0002968c       ??1_LocaleUpdate@@QAE@XZ   1002a68c f i libucrt:output.obj
 0001:000296a0       ??1__acrt_stdio_temporary_buffering_guard@@QAE@XZ 1002a6a0 f i libucrt:output.obj
 0001:000296b2       ??1__crt_errno_guard@@QAE@XZ 1002a6b2 f i libucrt:output.obj
 0001:000296c7       ??1formatting_buffer@__crt_stdio_output@@QAE@XZ 1002a6c7 f i libucrt:output.obj
 0001:000296e7       ??4?$__crt_unique_heap_ptr@DU__crt_internal_free_policy@@@@QAEAAV0@$$QAV0@@Z 1002a6e7 f i libucrt:output.obj
 0001:00029dc2       ?GetLocaleT@_LocaleUpdate@@QAEPAU__crt_locale_pointers@@XZ 1002adc2 f i libucrt:output.obj
 0001:00029dc6       ?adjust_hexit@?$output_processor@DV?$stream_output_adapter@D@__crt_stdio_output@@V?$format_validation_base@DV?$stream_output_adapter@D@__crt_stdio_output@@@2@@__crt_stdio_output@@CADH_N@Z 1002adc6 f i libucrt:output.obj
 0001:00029ddf       ?adjust_hexit@?$output_processor@DV?$stream_output_adapter@D@__crt_stdio_output@@V?$positional_parameter_base@DV?$stream_output_adapter@D@__crt_stdio_output@@@2@@__crt_stdio_output@@CADH_N@Z 1002addf f i libucrt:output.obj
 0001:00029df8       ?adjust_hexit@?$output_processor@DV?$stream_output_adapter@D@__crt_stdio_output@@V?$standard_base@DV?$stream_output_adapter@D@__crt_stdio_output@@@2@@__crt_stdio_output@@CADH_N@Z 1002adf8 f i libucrt:output.obj
 0001:00029e11       ?adjust_hexit@?$output_processor@DV?$string_output_adapter@D@__crt_stdio_output@@V?$format_validation_base@DV?$string_output_adapter@D@__crt_stdio_output@@@2@@__crt_stdio_output@@CADH_N@Z 1002ae11 f i libucrt:output.obj
 0001:00029e2a       ?adjust_hexit@?$output_processor@DV?$string_output_adapter@D@__crt_stdio_output@@V?$positional_parameter_base@DV?$string_output_adapter@D@__crt_stdio_output@@@2@@__crt_stdio_output@@CADH_N@Z 1002ae2a f i libucrt:output.obj
 0001:00029e43       ?adjust_hexit@?$output_processor@DV?$string_output_adapter@D@__crt_stdio_output@@V?$standard_base@DV?$string_output_adapter@D@__crt_stdio_output@@@2@@__crt_stdio_output@@CADH_N@Z 1002ae43 f i libucrt:output.obj
 0001:00029e5c       ?adjust_hexit@?$output_processor@_WV?$stream_output_adapter@_W@__crt_stdio_output@@V?$format_validation_base@_WV?$stream_output_adapter@_W@__crt_stdio_output@@@2@@__crt_stdio_output@@CADH_N@Z 1002ae5c f i libucrt:output.obj
 0001:00029e75       ?adjust_hexit@?$output_processor@_WV?$stream_output_adapter@_W@__crt_stdio_output@@V?$positional_parameter_base@_WV?$stream_output_adapter@_W@__crt_stdio_output@@@2@@__crt_stdio_output@@CADH_N@Z 1002ae75 f i libucrt:output.obj
 0001:00029e8e       ?adjust_hexit@?$output_processor@_WV?$stream_output_adapter@_W@__crt_stdio_output@@V?$standard_base@_WV?$stream_output_adapter@_W@__crt_stdio_output@@@2@@__crt_stdio_output@@CADH_N@Z 1002ae8e f i libucrt:output.obj
 0001:00029ea7       ?adjust_hexit@?$output_processor@_WV?$string_output_adapter@_W@__crt_stdio_output@@V?$format_validation_base@_WV?$string_output_adapter@_W@__crt_stdio_output@@@2@@__crt_stdio_output@@CADH_N@Z 1002aea7 f i libucrt:output.obj
 0001:00029ec0       ?adjust_hexit@?$output_processor@_WV?$string_output_adapter@_W@__crt_stdio_output@@V?$positional_parameter_base@_WV?$string_output_adapter@_W@__crt_stdio_output@@@2@@__crt_stdio_output@@CADH_N@Z 1002aec0 f i libucrt:output.obj
 0001:00029ed9       ?adjust_hexit@?$output_processor@_WV?$string_output_adapter@_W@__crt_stdio_output@@V?$standard_base@_WV?$string_output_adapter@_W@__crt_stdio_output@@@2@@__crt_stdio_output@@CADH_N@Z 1002aed9 f i libucrt:output.obj
 0001:00029ef2       ?advance_to_next_pass@?$positional_parameter_base@DV?$stream_output_adapter@D@__crt_stdio_output@@@__crt_stdio_output@@IAE_NXZ 1002aef2 f i libucrt:output.obj
 0001:00029f51       ?advance_to_next_pass@?$positional_parameter_base@DV?$string_output_adapter@D@__crt_stdio_output@@@__crt_stdio_output@@IAE_NXZ 1002af51 f i libucrt:output.obj
 0001:00029fb0       ?advance_to_next_pass@?$positional_parameter_base@_WV?$stream_output_adapter@_W@__crt_stdio_output@@@__crt_stdio_output@@IAE_NXZ 1002afb0 f i libucrt:output.obj
 0001:0002a00f       ?advance_to_next_pass@?$positional_parameter_base@_WV?$string_output_adapter@_W@__crt_stdio_output@@@__crt_stdio_output@@IAE_NXZ 1002b00f f i libucrt:output.obj
 0001:0002a06e       ?advance_to_next_pass@?$standard_base@DV?$stream_output_adapter@D@__crt_stdio_output@@@__crt_stdio_output@@IAE_NXZ 1002b06e f i libucrt:output.obj
 0001:0002a083       ?advance_to_next_pass@?$standard_base@DV?$string_output_adapter@D@__crt_stdio_output@@@__crt_stdio_output@@IAE_NXZ 1002b083 f i libucrt:output.obj
 0001:0002a098       ?advance_to_next_pass@?$standard_base@_WV?$stream_output_adapter@_W@__crt_stdio_output@@@__crt_stdio_output@@IAE_NXZ 1002b098 f i libucrt:output.obj
 0001:0002a0ad       ?advance_to_next_pass@?$standard_base@_WV?$string_output_adapter@_W@__crt_stdio_output@@@__crt_stdio_output@@IAE_NXZ 1002b0ad f i libucrt:output.obj
 0001:0002a0c2       ?crop_zeroes@__crt_stdio_output@@YAXPADQAU__crt_locale_pointers@@@Z 1002b0c2 f i libucrt:output.obj
 0001:0002a13a       ?find_next_state@?$output_processor@DV?$stream_output_adapter@D@__crt_stdio_output@@V?$format_validation_base@DV?$stream_output_adapter@D@__crt_stdio_output@@@2@@__crt_stdio_output@@ABE?AW4state@2@DW432@@Z 1002b13a f i libucrt:output.obj
 0001:0002a18c       ?find_next_state@?$output_processor@DV?$stream_output_adapter@D@__crt_stdio_output@@V?$positional_parameter_base@DV?$stream_output_adapter@D@__crt_stdio_output@@@2@@__crt_stdio_output@@ABE?AW4state@2@DW432@@Z 1002b18c f i libucrt:output.obj
 0001:0002a1de       ?find_next_state@?$output_processor@DV?$stream_output_adapter@D@__crt_stdio_output@@V?$standard_base@DV?$stream_output_adapter@D@__crt_stdio_output@@@2@@__crt_stdio_output@@ABE?AW4state@2@DW432@@Z 1002b1de f i libucrt:output.obj
 0001:0002a22c       ?find_next_state@?$output_processor@DV?$string_output_adapter@D@__crt_stdio_output@@V?$format_validation_base@DV?$string_output_adapter@D@__crt_stdio_output@@@2@@__crt_stdio_output@@ABE?AW4state@2@DW432@@Z 1002b22c f i libucrt:output.obj
 0001:0002a27e       ?find_next_state@?$output_processor@DV?$string_output_adapter@D@__crt_stdio_output@@V?$positional_parameter_base@DV?$string_output_adapter@D@__crt_stdio_output@@@2@@__crt_stdio_output@@ABE?AW4state@2@DW432@@Z 1002b27e f i libucrt:output.obj
 0001:0002a2d0       ?find_next_state@?$output_processor@DV?$string_output_adapter@D@__crt_stdio_output@@V?$standard_base@DV?$string_output_adapter@D@__crt_stdio_output@@@2@@__crt_stdio_output@@ABE?AW4state@2@DW432@@Z 1002b2d0 f i libucrt:output.obj
 0001:0002a31e       ?find_next_state@?$output_processor@_WV?$stream_output_adapter@_W@__crt_stdio_output@@V?$format_validation_base@_WV?$stream_output_adapter@_W@__crt_stdio_output@@@2@@__crt_stdio_output@@ABE?AW4state@2@_WW432@@Z 1002b31e f i libucrt:output.obj
 0001:0002a373       ?find_next_state@?$output_processor@_WV?$stream_output_adapter@_W@__crt_stdio_output@@V?$positional_parameter_base@_WV?$stream_output_adapter@_W@__crt_stdio_output@@@2@@__crt_stdio_output@@ABE?AW4state@2@_WW432@@Z 1002b373 f i libucrt:output.obj
 0001:0002a3c8       ?find_next_state@?$output_processor@_WV?$stream_output_adapter@_W@__crt_stdio_output@@V?$standard_base@_WV?$stream_output_adapter@_W@__crt_stdio_output@@@2@@__crt_stdio_output@@ABE?AW4state@2@_WW432@@Z 1002b3c8 f i libucrt:output.obj
 0001:0002a419       ?find_next_state@?$output_processor@_WV?$string_output_adapter@_W@__crt_stdio_output@@V?$format_validation_base@_WV?$string_output_adapter@_W@__crt_stdio_output@@@2@@__crt_stdio_output@@ABE?AW4state@2@_WW432@@Z 1002b419 f i libucrt:output.obj
 0001:0002a46e       ?find_next_state@?$output_processor@_WV?$string_output_adapter@_W@__crt_stdio_output@@V?$positional_parameter_base@_WV?$string_output_adapter@_W@__crt_stdio_output@@@2@@__crt_stdio_output@@ABE?AW4state@2@_WW432@@Z 1002b46e f i libucrt:output.obj
 0001:0002a4c3       ?find_next_state@?$output_processor@_WV?$string_output_adapter@_W@__crt_stdio_output@@V?$standard_base@_WV?$string_output_adapter@_W@__crt_stdio_output@@@2@@__crt_stdio_output@@ABE?AW4state@2@_WW432@@Z 1002b4c3 f i libucrt:output.obj
 0001:0002a514       ?force_decimal_point@__crt_stdio_output@@YAXPADQAU__crt_locale_pointers@@@Z 1002b514 f i libucrt:output.obj
 0001:0002a587       ?get@__crt_deferred_errno_cache@@QAEAAHXZ 1002b587 f i libucrt:output.obj
 0001:0002a5a0       ?get_flags@__crt_stdio_stream@@QBEJXZ 1002b5a0 f i libucrt:output.obj
 0001:0002a5a6       ?get_parameter_type@?$positional_parameter_base@DV?$stream_output_adapter@D@__crt_stdio_output@@@__crt_stdio_output@@CA?AW4parameter_type@12@F@Z 1002b5a6 f i libucrt:output.obj
 0001:0002a5aa       ?get_parameter_type@?$positional_parameter_base@DV?$stream_output_adapter@D@__crt_stdio_output@@@__crt_stdio_output@@CA?AW4parameter_type@12@G@Z 1002b5aa f i libucrt:output.obj
 0001:0002a5ae       ?get_parameter_type@?$positional_parameter_base@DV?$stream_output_adapter@D@__crt_stdio_output@@@__crt_stdio_output@@CA?AW4parameter_type@12@H@Z 1002b5ae f i libucrt:output.obj
 0001:0002a5b2       ?get_parameter_type@?$positional_parameter_base@DV?$stream_output_adapter@D@__crt_stdio_output@@@__crt_stdio_output@@CA?AW4parameter_type@12@I@Z 1002b5b2 f i libucrt:output.obj
 0001:0002a5b6       ?get_parameter_type@?$positional_parameter_base@DV?$stream_output_adapter@D@__crt_stdio_output@@@__crt_stdio_output@@CA?AW4parameter_type@12@U_CRT_DOUBLE@@@Z 1002b5b6 f i libucrt:output.obj
 0001:0002a5ba       ?get_parameter_type@?$positional_parameter_base@DV?$stream_output_adapter@D@__crt_stdio_output@@@__crt_stdio_output@@CA?AW4parameter_type@12@_J@Z 1002b5ba f i libucrt:output.obj
 0001:0002a5be       ?get_parameter_type@?$positional_parameter_base@DV?$stream_output_adapter@D@__crt_stdio_output@@@__crt_stdio_output@@CA?AW4parameter_type@12@_K@Z 1002b5be f i libucrt:output.obj
 0001:0002a5c2       ?get_parameter_type@?$positional_parameter_base@DV?$stream_output_adapter@D@__crt_stdio_output@@@__crt_stdio_output@@CA?AW4parameter_type@12@_W@Z 1002b5c2 f i libucrt:output.obj
 0001:0002a5c6       ?get_parameter_type@?$positional_parameter_base@DV?$string_output_adapter@D@__crt_stdio_output@@@__crt_stdio_output@@CA?AW4parameter_type@12@F@Z 1002b5c6 f i libucrt:output.obj
 0001:0002a5ca       ?get_parameter_type@?$positional_parameter_base@DV?$string_output_adapter@D@__crt_stdio_output@@@__crt_stdio_output@@CA?AW4parameter_type@12@G@Z 1002b5ca f i libucrt:output.obj
 0001:0002a5ce       ?get_parameter_type@?$positional_parameter_base@DV?$string_output_adapter@D@__crt_stdio_output@@@__crt_stdio_output@@CA?AW4parameter_type@12@H@Z 1002b5ce f i libucrt:output.obj
 0001:0002a5d2       ?get_parameter_type@?$positional_parameter_base@DV?$string_output_adapter@D@__crt_stdio_output@@@__crt_stdio_output@@CA?AW4parameter_type@12@I@Z 1002b5d2 f i libucrt:output.obj
 0001:0002a5d6       ?get_parameter_type@?$positional_parameter_base@DV?$string_output_adapter@D@__crt_stdio_output@@@__crt_stdio_output@@CA?AW4parameter_type@12@U_CRT_DOUBLE@@@Z 1002b5d6 f i libucrt:output.obj
 0001:0002a5da       ?get_parameter_type@?$positional_parameter_base@DV?$string_output_adapter@D@__crt_stdio_output@@@__crt_stdio_output@@CA?AW4parameter_type@12@_J@Z 1002b5da f i libucrt:output.obj
 0001:0002a5de       ?get_parameter_type@?$positional_parameter_base@DV?$string_output_adapter@D@__crt_stdio_output@@@__crt_stdio_output@@CA?AW4parameter_type@12@_K@Z 1002b5de f i libucrt:output.obj
 0001:0002a5e2       ?get_parameter_type@?$positional_parameter_base@DV?$string_output_adapter@D@__crt_stdio_output@@@__crt_stdio_output@@CA?AW4parameter_type@12@_W@Z 1002b5e2 f i libucrt:output.obj
 0001:0002a5e6       ?get_parameter_type@?$positional_parameter_base@_WV?$stream_output_adapter@_W@__crt_stdio_output@@@__crt_stdio_output@@CA?AW4parameter_type@12@F@Z 1002b5e6 f i libucrt:output.obj
 0001:0002a5ea       ?get_parameter_type@?$positional_parameter_base@_WV?$stream_output_adapter@_W@__crt_stdio_output@@@__crt_stdio_output@@CA?AW4parameter_type@12@G@Z 1002b5ea f i libucrt:output.obj
 0001:0002a5ee       ?get_parameter_type@?$positional_parameter_base@_WV?$stream_output_adapter@_W@__crt_stdio_output@@@__crt_stdio_output@@CA?AW4parameter_type@12@H@Z 1002b5ee f i libucrt:output.obj
 0001:0002a5f2       ?get_parameter_type@?$positional_parameter_base@_WV?$stream_output_adapter@_W@__crt_stdio_output@@@__crt_stdio_output@@CA?AW4parameter_type@12@I@Z 1002b5f2 f i libucrt:output.obj
 0001:0002a5f6       ?get_parameter_type@?$positional_parameter_base@_WV?$stream_output_adapter@_W@__crt_stdio_output@@@__crt_stdio_output@@CA?AW4parameter_type@12@U_CRT_DOUBLE@@@Z 1002b5f6 f i libucrt:output.obj
 0001:0002a5fa       ?get_parameter_type@?$positional_parameter_base@_WV?$stream_output_adapter@_W@__crt_stdio_output@@@__crt_stdio_output@@CA?AW4parameter_type@12@_J@Z 1002b5fa f i libucrt:output.obj
 0001:0002a5fe       ?get_parameter_type@?$positional_parameter_base@_WV?$stream_output_adapter@_W@__crt_stdio_output@@@__crt_stdio_output@@CA?AW4parameter_type@12@_K@Z 1002b5fe f i libucrt:output.obj
 0001:0002a602       ?get_parameter_type@?$positional_parameter_base@_WV?$stream_output_adapter@_W@__crt_stdio_output@@@__crt_stdio_output@@CA?AW4parameter_type@12@_W@Z 1002b602 f i libucrt:output.obj
 0001:0002a606       ?get_parameter_type@?$positional_parameter_base@_WV?$string_output_adapter@_W@__crt_stdio_output@@@__crt_stdio_output@@CA?AW4parameter_type@12@F@Z 1002b606 f i libucrt:output.obj
 0001:0002a60a       ?get_parameter_type@?$positional_parameter_base@_WV?$string_output_adapter@_W@__crt_stdio_output@@@__crt_stdio_output@@CA?AW4parameter_type@12@G@Z 1002b60a f i libucrt:output.obj
 0001:0002a60e       ?get_parameter_type@?$positional_parameter_base@_WV?$string_output_adapter@_W@__crt_stdio_output@@@__crt_stdio_output@@CA?AW4parameter_type@12@H@Z 1002b60e f i libucrt:output.obj
 0001:0002a612       ?get_parameter_type@?$positional_parameter_base@_WV?$string_output_adapter@_W@__crt_stdio_output@@@__crt_stdio_output@@CA?AW4parameter_type@12@I@Z 1002b612 f i libucrt:output.obj
 0001:0002a616       ?get_parameter_type@?$positional_parameter_base@_WV?$string_output_adapter@_W@__crt_stdio_output@@@__crt_stdio_output@@CA?AW4parameter_type@12@U_CRT_DOUBLE@@@Z 1002b616 f i libucrt:output.obj
 0001:0002a61a       ?get_parameter_type@?$positional_parameter_base@_WV?$string_output_adapter@_W@__crt_stdio_output@@@__crt_stdio_output@@CA?AW4parameter_type@12@_J@Z 1002b61a f i libucrt:output.obj
 0001:0002a61e       ?get_parameter_type@?$positional_parameter_base@_WV?$string_output_adapter@_W@__crt_stdio_output@@@__crt_stdio_output@@CA?AW4parameter_type@12@_K@Z 1002b61e f i libucrt:output.obj
 0001:0002a622       ?get_parameter_type@?$positional_parameter_base@_WV?$string_output_adapter@_W@__crt_stdio_output@@@__crt_stdio_output@@CA?AW4parameter_type@12@_W@Z 1002b622 f i libucrt:output.obj
 0001:0002a626       ?has_flag@?$output_processor@DV?$stream_output_adapter@D@__crt_stdio_output@@V?$format_validation_base@DV?$stream_output_adapter@D@__crt_stdio_output@@@2@@__crt_stdio_output@@ABE_NI@Z 1002b626 f i libucrt:output.obj
 0001:0002a63c       ?has_flag@?$output_processor@DV?$stream_output_adapter@D@__crt_stdio_output@@V?$positional_parameter_base@DV?$stream_output_adapter@D@__crt_stdio_output@@@2@@__crt_stdio_output@@ABE_NI@Z 1002b63c f i libucrt:output.obj
 0001:0002a652       ?has_flag@?$output_processor@DV?$stream_output_adapter@D@__crt_stdio_output@@V?$standard_base@DV?$stream_output_adapter@D@__crt_stdio_output@@@2@@__crt_stdio_output@@ABE_NI@Z 1002b652 f i libucrt:output.obj
 0001:0002a668       ?has_flag@?$output_processor@DV?$string_output_adapter@D@__crt_stdio_output@@V?$format_validation_base@DV?$string_output_adapter@D@__crt_stdio_output@@@2@@__crt_stdio_output@@ABE_NI@Z 1002b668 f i libucrt:output.obj
 0001:0002a67e       ?has_flag@?$output_processor@DV?$string_output_adapter@D@__crt_stdio_output@@V?$positional_parameter_base@DV?$string_output_adapter@D@__crt_stdio_output@@@2@@__crt_stdio_output@@ABE_NI@Z 1002b67e f i libucrt:output.obj
 0001:0002a694       ?has_flag@?$output_processor@DV?$string_output_adapter@D@__crt_stdio_output@@V?$standard_base@DV?$string_output_adapter@D@__crt_stdio_output@@@2@@__crt_stdio_output@@ABE_NI@Z 1002b694 f i libucrt:output.obj
 0001:0002a6aa       ?has_flag@?$output_processor@_WV?$stream_output_adapter@_W@__crt_stdio_output@@V?$format_validation_base@_WV?$stream_output_adapter@_W@__crt_stdio_output@@@2@@__crt_stdio_output@@ABE_NI@Z 1002b6aa f i libucrt:output.obj
 0001:0002a6c0       ?has_flag@?$output_processor@_WV?$stream_output_adapter@_W@__crt_stdio_output@@V?$positional_parameter_base@_WV?$stream_output_adapter@_W@__crt_stdio_output@@@2@@__crt_stdio_output@@ABE_NI@Z 1002b6c0 f i libucrt:output.obj
 0001:0002a6d6       ?has_flag@?$output_processor@_WV?$stream_output_adapter@_W@__crt_stdio_output@@V?$standard_base@_WV?$stream_output_adapter@_W@__crt_stdio_output@@@2@@__crt_stdio_output@@ABE_NI@Z 1002b6d6 f i libucrt:output.obj
 0001:0002a6ec       ?has_flag@?$output_processor@_WV?$string_output_adapter@_W@__crt_stdio_output@@V?$format_validation_base@_WV?$string_output_adapter@_W@__crt_stdio_output@@@2@@__crt_stdio_output@@ABE_NI@Z 1002b6ec f i libucrt:output.obj
 0001:0002a702       ?has_flag@?$output_processor@_WV?$string_output_adapter@_W@__crt_stdio_output@@V?$positional_parameter_base@_WV?$string_output_adapter@_W@__crt_stdio_output@@@2@@__crt_stdio_output@@ABE_NI@Z 1002b702 f i libucrt:output.obj
 0001:0002a718       ?has_flag@?$output_processor@_WV?$string_output_adapter@_W@__crt_stdio_output@@V?$standard_base@_WV?$string_output_adapter@_W@__crt_stdio_output@@@2@@__crt_stdio_output@@ABE_NI@Z 1002b718 f i libucrt:output.obj
 0001:0002a72e       ?is_positional_parameter_reappearance_consistent@?$positional_parameter_base@DV?$stream_output_adapter@D@__crt_stdio_output@@@__crt_stdio_output@@AAE_NABUparameter_data@12@W4parameter_type@12@DW4length_modifier@2@@Z 1002b72e f i libucrt:output.obj
 0001:0002a88e       ?is_positional_parameter_reappearance_consistent@?$positional_parameter_base@DV?$string_output_adapter@D@__crt_stdio_output@@@__crt_stdio_output@@AAE_NABUparameter_data@12@W4parameter_type@12@DW4length_modifier@2@@Z 1002b88e f i libucrt:output.obj
 0001:0002a9ee       ?is_positional_parameter_reappearance_consistent@?$positional_parameter_base@_WV?$stream_output_adapter@_W@__crt_stdio_output@@@__crt_stdio_output@@AAE_NABUparameter_data@12@W4parameter_type@12@_WW4length_modifier@2@@Z 1002b9ee f i libucrt:output.obj
 0001:0002ab4d       ?is_positional_parameter_reappearance_consistent@?$positional_parameter_base@_WV?$string_output_adapter@_W@__crt_stdio_output@@@__crt_stdio_output@@AAE_NABUparameter_data@12@W4parameter_type@12@_WW4length_modifier@2@@Z 1002bb4d f i libucrt:output.obj
 0001:0002acac       ?is_string_backed@__crt_stdio_stream@@QBE_NXZ 1002bcac f i libucrt:output.obj
 0001:0002acb9       ?narrow_null_string@?$output_processor@DV?$stream_output_adapter@D@__crt_stdio_output@@V?$format_validation_base@DV?$stream_output_adapter@D@__crt_stdio_output@@@2@@__crt_stdio_output@@CAPADXZ 1002bcb9 f i libucrt:output.obj
 0001:0002acbf       ?narrow_null_string@?$output_processor@DV?$stream_output_adapter@D@__crt_stdio_output@@V?$positional_parameter_base@DV?$stream_output_adapter@D@__crt_stdio_output@@@2@@__crt_stdio_output@@CAPADXZ 1002bcbf f i libucrt:output.obj
 0001:0002acc5       ?narrow_null_string@?$output_processor@DV?$stream_output_adapter@D@__crt_stdio_output@@V?$standard_base@DV?$stream_output_adapter@D@__crt_stdio_output@@@2@@__crt_stdio_output@@CAPADXZ 1002bcc5 f i libucrt:output.obj
 0001:0002accb       ?narrow_null_string@?$output_processor@DV?$string_output_adapter@D@__crt_stdio_output@@V?$format_validation_base@DV?$string_output_adapter@D@__crt_stdio_output@@@2@@__crt_stdio_output@@CAPADXZ 1002bccb f i libucrt:output.obj
 0001:0002acd1       ?narrow_null_string@?$output_processor@DV?$string_output_adapter@D@__crt_stdio_output@@V?$positional_parameter_base@DV?$string_output_adapter@D@__crt_stdio_output@@@2@@__crt_stdio_output@@CAPADXZ 1002bcd1 f i libucrt:output.obj
 0001:0002acd7       ?narrow_null_string@?$output_processor@DV?$string_output_adapter@D@__crt_stdio_output@@V?$standard_base@DV?$string_output_adapter@D@__crt_stdio_output@@@2@@__crt_stdio_output@@CAPADXZ 1002bcd7 f i libucrt:output.obj
 0001:0002acdd       ?narrow_null_string@?$output_processor@_WV?$stream_output_adapter@_W@__crt_stdio_output@@V?$format_validation_base@_WV?$stream_output_adapter@_W@__crt_stdio_output@@@2@@__crt_stdio_output@@CAPADXZ 1002bcdd f i libucrt:output.obj
 0001:0002ace3       ?narrow_null_string@?$output_processor@_WV?$stream_output_adapter@_W@__crt_stdio_output@@V?$positional_parameter_base@_WV?$stream_output_adapter@_W@__crt_stdio_output@@@2@@__crt_stdio_output@@CAPADXZ 1002bce3 f i libucrt:output.obj
 0001:0002ace9       ?narrow_null_string@?$output_processor@_WV?$stream_output_adapter@_W@__crt_stdio_output@@V?$standard_base@_WV?$stream_output_adapter@_W@__crt_stdio_output@@@2@@__crt_stdio_output@@CAPADXZ 1002bce9 f i libucrt:output.obj
 0001:0002acef       ?narrow_null_string@?$output_processor@_WV?$string_output_adapter@_W@__crt_stdio_output@@V?$format_validation_base@_WV?$string_output_adapter@_W@__crt_stdio_output@@@2@@__crt_stdio_output@@CAPADXZ 1002bcef f i libucrt:output.obj
 0001:0002acf5       ?narrow_null_string@?$output_processor@_WV?$string_output_adapter@_W@__crt_stdio_output@@V?$positional_parameter_base@_WV?$string_output_adapter@_W@__crt_stdio_output@@@2@@__crt_stdio_output@@CAPADXZ 1002bcf5 f i libucrt:output.obj
 0001:0002acfb       ?narrow_null_string@?$output_processor@_WV?$string_output_adapter@_W@__crt_stdio_output@@V?$standard_base@_WV?$string_output_adapter@_W@__crt_stdio_output@@@2@@__crt_stdio_output@@CAPADXZ 1002bcfb f i libucrt:output.obj
 0001:0002ad01       ?parse_int_from_format_string@?$output_processor@DV?$stream_output_adapter@D@__crt_stdio_output@@V?$format_validation_base@DV?$stream_output_adapter@D@__crt_stdio_output@@@2@@__crt_stdio_output@@AAE_NQAH@Z 1002bd01 f i libucrt:output.obj
 0001:0002ad94       ?parse_int_from_format_string@?$output_processor@DV?$stream_output_adapter@D@__crt_stdio_output@@V?$positional_parameter_base@DV?$stream_output_adapter@D@__crt_stdio_output@@@2@@__crt_stdio_output@@AAE_NQAH@Z 1002bd94 f i libucrt:output.obj
 0001:0002ae27       ?parse_int_from_format_string@?$output_processor@DV?$stream_output_adapter@D@__crt_stdio_output@@V?$standard_base@DV?$stream_output_adapter@D@__crt_stdio_output@@@2@@__crt_stdio_output@@AAE_NQAH@Z 1002be27 f i libucrt:output.obj
 0001:0002aeba       ?parse_int_from_format_string@?$output_processor@DV?$string_output_adapter@D@__crt_stdio_output@@V?$format_validation_base@DV?$string_output_adapter@D@__crt_stdio_output@@@2@@__crt_stdio_output@@AAE_NQAH@Z 1002beba f i libucrt:output.obj
 0001:0002af4d       ?parse_int_from_format_string@?$output_processor@DV?$string_output_adapter@D@__crt_stdio_output@@V?$positional_parameter_base@DV?$string_output_adapter@D@__crt_stdio_output@@@2@@__crt_stdio_output@@AAE_NQAH@Z 1002bf4d f i libucrt:output.obj
 0001:0002afe0       ?parse_int_from_format_string@?$output_processor@DV?$string_output_adapter@D@__crt_stdio_output@@V?$standard_base@DV?$string_output_adapter@D@__crt_stdio_output@@@2@@__crt_stdio_output@@AAE_NQAH@Z 1002bfe0 f i libucrt:output.obj
 0001:0002b073       ?parse_int_from_format_string@?$output_processor@_WV?$stream_output_adapter@_W@__crt_stdio_output@@V?$format_validation_base@_WV?$stream_output_adapter@_W@__crt_stdio_output@@@2@@__crt_stdio_output@@AAE_NQAH@Z 1002c073 f i libucrt:output.obj
 0001:0002b109       ?parse_int_from_format_string@?$output_processor@_WV?$stream_output_adapter@_W@__crt_stdio_output@@V?$positional_parameter_base@_WV?$stream_output_adapter@_W@__crt_stdio_output@@@2@@__crt_stdio_output@@AAE_NQAH@Z 1002c109 f i libucrt:output.obj
 0001:0002b19f       ?parse_int_from_format_string@?$output_processor@_WV?$stream_output_adapter@_W@__crt_stdio_output@@V?$standard_base@_WV?$stream_output_adapter@_W@__crt_stdio_output@@@2@@__crt_stdio_output@@AAE_NQAH@Z 1002c19f f i libucrt:output.obj
 0001:0002b235       ?parse_int_from_format_string@?$output_processor@_WV?$string_output_adapter@_W@__crt_stdio_output@@V?$format_validation_base@_WV?$string_output_adapter@_W@__crt_stdio_output@@@2@@__crt_stdio_output@@AAE_NQAH@Z 1002c235 f i libucrt:output.obj
 0001:0002b2cb       ?parse_int_from_format_string@?$output_processor@_WV?$string_output_adapter@_W@__crt_stdio_output@@V?$positional_parameter_base@_WV?$string_output_adapter@_W@__crt_stdio_output@@@2@@__crt_stdio_output@@AAE_NQAH@Z 1002c2cb f i libucrt:output.obj
 0001:0002b361       ?parse_int_from_format_string@?$output_processor@_WV?$string_output_adapter@_W@__crt_stdio_output@@V?$standard_base@_WV?$string_output_adapter@_W@__crt_stdio_output@@@2@@__crt_stdio_output@@AAE_NQAH@Z 1002c361 f i libucrt:output.obj
 0001:0002b3f7       ?process@?$output_processor@DV?$stream_output_adapter@D@__crt_stdio_output@@V?$format_validation_base@DV?$stream_output_adapter@D@__crt_stdio_output@@@2@@__crt_stdio_output@@QAEHXZ 1002c3f7 f i libucrt:output.obj
 0001:0002b569       ?process@?$output_processor@DV?$stream_output_adapter@D@__crt_stdio_output@@V?$positional_parameter_base@DV?$stream_output_adapter@D@__crt_stdio_output@@@2@@__crt_stdio_output@@QAEHXZ 1002c569 f i libucrt:output.obj
 0001:0002b71c       ?process@?$output_processor@DV?$stream_output_adapter@D@__crt_stdio_output@@V?$standard_base@DV?$stream_output_adapter@D@__crt_stdio_output@@@2@@__crt_stdio_output@@QAEHXZ 1002c71c f i libucrt:output.obj
 0001:0002b87f       ?process@?$output_processor@DV?$string_output_adapter@D@__crt_stdio_output@@V?$format_validation_base@DV?$string_output_adapter@D@__crt_stdio_output@@@2@@__crt_stdio_output@@QAEHXZ 1002c87f f i libucrt:output.obj
 0001:0002b9f1       ?process@?$output_processor@DV?$string_output_adapter@D@__crt_stdio_output@@V?$positional_parameter_base@DV?$string_output_adapter@D@__crt_stdio_output@@@2@@__crt_stdio_output@@QAEHXZ 1002c9f1 f i libucrt:output.obj
 0001:0002bba4       ?process@?$output_processor@DV?$string_output_adapter@D@__crt_stdio_output@@V?$standard_base@DV?$string_output_adapter@D@__crt_stdio_output@@@2@@__crt_stdio_output@@QAEHXZ 1002cba4 f i libucrt:output.obj
 0001:0002bd07       ?process@?$output_processor@_WV?$stream_output_adapter@_W@__crt_stdio_output@@V?$format_validation_base@_WV?$stream_output_adapter@_W@__crt_stdio_output@@@2@@__crt_stdio_output@@QAEHXZ 1002cd07 f i libucrt:output.obj
 0001:0002be83       ?process@?$output_processor@_WV?$stream_output_adapter@_W@__crt_stdio_output@@V?$positional_parameter_base@_WV?$stream_output_adapter@_W@__crt_stdio_output@@@2@@__crt_stdio_output@@QAEHXZ 1002ce83 f i libucrt:output.obj
 0001:0002c03b       ?process@?$output_processor@_WV?$stream_output_adapter@_W@__crt_stdio_output@@V?$standard_base@_WV?$stream_output_adapter@_W@__crt_stdio_output@@@2@@__crt_stdio_output@@QAEHXZ 1002d03b f i libucrt:output.obj
 0001:0002c1a3       ?process@?$output_processor@_WV?$string_output_adapter@_W@__crt_stdio_output@@V?$format_validation_base@_WV?$string_output_adapter@_W@__crt_stdio_output@@@2@@__crt_stdio_output@@QAEHXZ 1002d1a3 f i libucrt:output.obj
 0001:0002c31f       ?process@?$output_processor@_WV?$string_output_adapter@_W@__crt_stdio_output@@V?$positional_parameter_base@_WV?$string_output_adapter@_W@__crt_stdio_output@@@2@@__crt_stdio_output@@QAEHXZ 1002d31f f i libucrt:output.obj
 0001:0002c4d7       ?process@?$output_processor@_WV?$string_output_adapter@_W@__crt_stdio_output@@V?$standard_base@_WV?$string_output_adapter@_W@__crt_stdio_output@@@2@@__crt_stdio_output@@QAEHXZ 1002d4d7 f i libucrt:output.obj
 0001:0002c63f       ?public_stream@__crt_stdio_stream@@QBEPAU_iobuf@@XZ 1002d63f f i libucrt:output.obj
 0001:0002c642       ?set_flag@?$output_processor@DV?$stream_output_adapter@D@__crt_stdio_output@@V?$format_validation_base@DV?$stream_output_adapter@D@__crt_stdio_output@@@2@@__crt_stdio_output@@AAEXI@Z 1002d642 f i libucrt:output.obj
 0001:0002c654       ?set_flag@?$output_processor@DV?$stream_output_adapter@D@__crt_stdio_output@@V?$positional_parameter_base@DV?$stream_output_adapter@D@__crt_stdio_output@@@2@@__crt_stdio_output@@AAEXI@Z 1002d654 f i libucrt:output.obj
 0001:0002c666       ?set_flag@?$output_processor@DV?$stream_output_adapter@D@__crt_stdio_output@@V?$standard_base@DV?$stream_output_adapter@D@__crt_stdio_output@@@2@@__crt_stdio_output@@AAEXI@Z 1002d666 f i libucrt:output.obj
 0001:0002c678       ?set_flag@?$output_processor@DV?$string_output_adapter@D@__crt_stdio_output@@V?$format_validation_base@DV?$string_output_adapter@D@__crt_stdio_output@@@2@@__crt_stdio_output@@AAEXI@Z 1002d678 f i libucrt:output.obj
 0001:0002c68a       ?set_flag@?$output_processor@DV?$string_output_adapter@D@__crt_stdio_output@@V?$positional_parameter_base@DV?$string_output_adapter@D@__crt_stdio_output@@@2@@__crt_stdio_output@@AAEXI@Z 1002d68a f i libucrt:output.obj
 0001:0002c69c       ?set_flag@?$output_processor@DV?$string_output_adapter@D@__crt_stdio_output@@V?$standard_base@DV?$string_output_adapter@D@__crt_stdio_output@@@2@@__crt_stdio_output@@AAEXI@Z 1002d69c f i libucrt:output.obj
 0001:0002c6ae       ?set_flag@?$output_processor@_WV?$stream_output_adapter@_W@__crt_stdio_output@@V?$format_validation_base@_WV?$stream_output_adapter@_W@__crt_stdio_output@@@2@@__crt_stdio_output@@AAEXI@Z 1002d6ae f i libucrt:output.obj
 0001:0002c6c0       ?set_flag@?$output_processor@_WV?$stream_output_adapter@_W@__crt_stdio_output@@V?$positional_parameter_base@_WV?$stream_output_adapter@_W@__crt_stdio_output@@@2@@__crt_stdio_output@@AAEXI@Z 1002d6c0 f i libucrt:output.obj
 0001:0002c6d2       ?set_flag@?$output_processor@_WV?$stream_output_adapter@_W@__crt_stdio_output@@V?$standard_base@_WV?$stream_output_adapter@_W@__crt_stdio_output@@@2@@__crt_stdio_output@@AAEXI@Z 1002d6d2 f i libucrt:output.obj
 0001:0002c6e4       ?set_flag@?$output_processor@_WV?$string_output_adapter@_W@__crt_stdio_output@@V?$format_validation_base@_WV?$string_output_adapter@_W@__crt_stdio_output@@@2@@__crt_stdio_output@@AAEXI@Z 1002d6e4 f i libucrt:output.obj
 0001:0002c6f6       ?set_flag@?$output_processor@_WV?$string_output_adapter@_W@__crt_stdio_output@@V?$positional_parameter_base@_WV?$string_output_adapter@_W@__crt_stdio_output@@@2@@__crt_stdio_output@@AAEXI@Z 1002d6f6 f i libucrt:output.obj
 0001:0002c708       ?set_flag@?$output_processor@_WV?$string_output_adapter@_W@__crt_stdio_output@@V?$standard_base@_WV?$string_output_adapter@_W@__crt_stdio_output@@@2@@__crt_stdio_output@@AAEXI@Z 1002d708 f i libucrt:output.obj
 0001:0002c71a       ?should_format@?$positional_parameter_base@DV?$stream_output_adapter@D@__crt_stdio_output@@@__crt_stdio_output@@IAE_NXZ 1002d71a f i libucrt:output.obj
 0001:0002c735       ?should_format@?$positional_parameter_base@DV?$string_output_adapter@D@__crt_stdio_output@@@__crt_stdio_output@@IAE_NXZ 1002d735 f i libucrt:output.obj
 0001:0002c750       ?should_format@?$positional_parameter_base@_WV?$stream_output_adapter@_W@__crt_stdio_output@@@__crt_stdio_output@@IAE_NXZ 1002d750 f i libucrt:output.obj
 0001:0002c76b       ?should_format@?$positional_parameter_base@_WV?$string_output_adapter@_W@__crt_stdio_output@@@__crt_stdio_output@@IAE_NXZ 1002d76b f i libucrt:output.obj
 0001:0002c786       ?should_format@?$standard_base@DV?$stream_output_adapter@D@__crt_stdio_output@@@__crt_stdio_output@@IAE_NXZ 1002d786 f i libucrt:output.obj
 0001:0002c789       ?should_format@?$standard_base@DV?$string_output_adapter@D@__crt_stdio_output@@@__crt_stdio_output@@IAE_NXZ 1002d789 f i libucrt:output.obj
 0001:0002c78c       ?should_format@?$standard_base@_WV?$stream_output_adapter@_W@__crt_stdio_output@@@__crt_stdio_output@@IAE_NXZ 1002d78c f i libucrt:output.obj
 0001:0002c78f       ?should_format@?$standard_base@_WV?$string_output_adapter@_W@__crt_stdio_output@@@__crt_stdio_output@@IAE_NXZ 1002d78f f i libucrt:output.obj
 0001:0002c792       ?should_skip_normal_state_processing@?$positional_parameter_base@DV?$stream_output_adapter@D@__crt_stdio_output@@@__crt_stdio_output@@IAE_NXZ 1002d792 f i libucrt:output.obj
 0001:0002c7c4       ?should_skip_normal_state_processing@?$positional_parameter_base@DV?$string_output_adapter@D@__crt_stdio_output@@@__crt_stdio_output@@IAE_NXZ 1002d7c4 f i libucrt:output.obj
 0001:0002c7f6       ?should_skip_normal_state_processing@?$positional_parameter_base@_WV?$stream_output_adapter@_W@__crt_stdio_output@@@__crt_stdio_output@@IAE_NXZ 1002d7f6 f i libucrt:output.obj
 0001:0002c828       ?should_skip_normal_state_processing@?$positional_parameter_base@_WV?$string_output_adapter@_W@__crt_stdio_output@@@__crt_stdio_output@@IAE_NXZ 1002d828 f i libucrt:output.obj
 0001:0002c85a       ?should_skip_normal_state_processing@?$standard_base@DV?$stream_output_adapter@D@__crt_stdio_output@@@__crt_stdio_output@@IAE_NXZ 1002d85a f i libucrt:output.obj
 0001:0002c85d       ?should_skip_normal_state_processing@?$standard_base@DV?$string_output_adapter@D@__crt_stdio_output@@@__crt_stdio_output@@IAE_NXZ 1002d85d f i libucrt:output.obj
 0001:0002c860       ?should_skip_normal_state_processing@?$standard_base@_WV?$stream_output_adapter@_W@__crt_stdio_output@@@__crt_stdio_output@@IAE_NXZ 1002d860 f i libucrt:output.obj
 0001:0002c863       ?should_skip_normal_state_processing@?$standard_base@_WV?$string_output_adapter@_W@__crt_stdio_output@@@__crt_stdio_output@@IAE_NXZ 1002d863 f i libucrt:output.obj
 0001:0002c866       ?should_skip_type_state_output@?$positional_parameter_base@DV?$stream_output_adapter@D@__crt_stdio_output@@@__crt_stdio_output@@IBE_NXZ 1002d866 f i libucrt:output.obj
 0001:0002c882       ?should_skip_type_state_output@?$positional_parameter_base@DV?$string_output_adapter@D@__crt_stdio_output@@@__crt_stdio_output@@IBE_NXZ 1002d882 f i libucrt:output.obj
 0001:0002c89e       ?should_skip_type_state_output@?$positional_parameter_base@_WV?$stream_output_adapter@_W@__crt_stdio_output@@@__crt_stdio_output@@IBE_NXZ 1002d89e f i libucrt:output.obj
 0001:0002c8ba       ?should_skip_type_state_output@?$positional_parameter_base@_WV?$string_output_adapter@_W@__crt_stdio_output@@@__crt_stdio_output@@IBE_NXZ 1002d8ba f i libucrt:output.obj
 0001:0002c8d6       ?should_skip_type_state_output@?$standard_base@DV?$stream_output_adapter@D@__crt_stdio_output@@@__crt_stdio_output@@IBE_NXZ 1002d8d6 f i libucrt:output.obj
 0001:0002c8d9       ?should_skip_type_state_output@?$standard_base@DV?$string_output_adapter@D@__crt_stdio_output@@@__crt_stdio_output@@IBE_NXZ 1002d8d9 f i libucrt:output.obj
 0001:0002c8dc       ?should_skip_type_state_output@?$standard_base@_WV?$stream_output_adapter@_W@__crt_stdio_output@@@__crt_stdio_output@@IBE_NXZ 1002d8dc f i libucrt:output.obj
 0001:0002c8df       ?should_skip_type_state_output@?$standard_base@_WV?$string_output_adapter@_W@__crt_stdio_output@@@__crt_stdio_output@@IBE_NXZ 1002d8df f i libucrt:output.obj
 0001:0002c8e2       ?state_case_dot@?$output_processor@DV?$stream_output_adapter@D@__crt_stdio_output@@V?$format_validation_base@DV?$stream_output_adapter@D@__crt_stdio_output@@@2@@__crt_stdio_output@@AAE_NXZ 1002d8e2 f i libucrt:output.obj
 0001:0002c8e9       ?state_case_dot@?$output_processor@DV?$stream_output_adapter@D@__crt_stdio_output@@V?$positional_parameter_base@DV?$stream_output_adapter@D@__crt_stdio_output@@@2@@__crt_stdio_output@@AAE_NXZ 1002d8e9 f i libucrt:output.obj
 0001:0002c8f0       ?state_case_dot@?$output_processor@DV?$stream_output_adapter@D@__crt_stdio_output@@V?$standard_base@DV?$stream_output_adapter@D@__crt_stdio_output@@@2@@__crt_stdio_output@@AAE_NXZ 1002d8f0 f i libucrt:output.obj
 0001:0002c8f7       ?state_case_dot@?$output_processor@DV?$string_output_adapter@D@__crt_stdio_output@@V?$format_validation_base@DV?$string_output_adapter@D@__crt_stdio_output@@@2@@__crt_stdio_output@@AAE_NXZ 1002d8f7 f i libucrt:output.obj
 0001:0002c8fe       ?state_case_dot@?$output_processor@DV?$string_output_adapter@D@__crt_stdio_output@@V?$positional_parameter_base@DV?$string_output_adapter@D@__crt_stdio_output@@@2@@__crt_stdio_output@@AAE_NXZ 1002d8fe f i libucrt:output.obj
 0001:0002c905       ?state_case_dot@?$output_processor@DV?$string_output_adapter@D@__crt_stdio_output@@V?$standard_base@DV?$string_output_adapter@D@__crt_stdio_output@@@2@@__crt_stdio_output@@AAE_NXZ 1002d905 f i libucrt:output.obj
 0001:0002c90c       ?state_case_dot@?$output_processor@_WV?$stream_output_adapter@_W@__crt_stdio_output@@V?$format_validation_base@_WV?$stream_output_adapter@_W@__crt_stdio_output@@@2@@__crt_stdio_output@@AAE_NXZ 1002d90c f i libucrt:output.obj
 0001:0002c913       ?state_case_dot@?$output_processor@_WV?$stream_output_adapter@_W@__crt_stdio_output@@V?$positional_parameter_base@_WV?$stream_output_adapter@_W@__crt_stdio_output@@@2@@__crt_stdio_output@@AAE_NXZ 1002d913 f i libucrt:output.obj
 0001:0002c91a       ?state_case_dot@?$output_processor@_WV?$stream_output_adapter@_W@__crt_stdio_output@@V?$standard_base@_WV?$stream_output_adapter@_W@__crt_stdio_output@@@2@@__crt_stdio_output@@AAE_NXZ 1002d91a f i libucrt:output.obj
 0001:0002c921       ?state_case_dot@?$output_processor@_WV?$string_output_adapter@_W@__crt_stdio_output@@V?$format_validation_base@_WV?$string_output_adapter@_W@__crt_stdio_output@@@2@@__crt_stdio_output@@AAE_NXZ 1002d921 f i libucrt:output.obj
 0001:0002c928       ?state_case_dot@?$output_processor@_WV?$string_output_adapter@_W@__crt_stdio_output@@V?$positional_parameter_base@_WV?$string_output_adapter@_W@__crt_stdio_output@@@2@@__crt_stdio_output@@AAE_NXZ 1002d928 f i libucrt:output.obj
 0001:0002c92f       ?state_case_dot@?$output_processor@_WV?$string_output_adapter@_W@__crt_stdio_output@@V?$standard_base@_WV?$string_output_adapter@_W@__crt_stdio_output@@@2@@__crt_stdio_output@@AAE_NXZ 1002d92f f i libucrt:output.obj
 0001:0002c936       ?state_case_flag@?$output_processor@DV?$stream_output_adapter@D@__crt_stdio_output@@V?$format_validation_base@DV?$stream_output_adapter@D@__crt_stdio_output@@@2@@__crt_stdio_output@@AAE_NXZ 1002d936 f i libucrt:output.obj
 0001:0002c982       ?state_case_flag@?$output_processor@DV?$stream_output_adapter@D@__crt_stdio_output@@V?$positional_parameter_base@DV?$stream_output_adapter@D@__crt_stdio_output@@@2@@__crt_stdio_output@@AAE_NXZ 1002d982 f i libucrt:output.obj
 0001:0002c9ce       ?state_case_flag@?$output_processor@DV?$stream_output_adapter@D@__crt_stdio_output@@V?$standard_base@DV?$stream_output_adapter@D@__crt_stdio_output@@@2@@__crt_stdio_output@@AAE_NXZ 1002d9ce f i libucrt:output.obj
 0001:0002ca1a       ?state_case_flag@?$output_processor@DV?$string_output_adapter@D@__crt_stdio_output@@V?$format_validation_base@DV?$string_output_adapter@D@__crt_stdio_output@@@2@@__crt_stdio_output@@AAE_NXZ 1002da1a f i libucrt:output.obj
 0001:0002ca66       ?state_case_flag@?$output_processor@DV?$string_output_adapter@D@__crt_stdio_output@@V?$positional_parameter_base@DV?$string_output_adapter@D@__crt_stdio_output@@@2@@__crt_stdio_output@@AAE_NXZ 1002da66 f i libucrt:output.obj
 0001:0002cab2       ?state_case_flag@?$output_processor@DV?$string_output_adapter@D@__crt_stdio_output@@V?$standard_base@DV?$string_output_adapter@D@__crt_stdio_output@@@2@@__crt_stdio_output@@AAE_NXZ 1002dab2 f i libucrt:output.obj
 0001:0002cafe       ?state_case_flag@?$output_processor@_WV?$stream_output_adapter@_W@__crt_stdio_output@@V?$format_validation_base@_WV?$stream_output_adapter@_W@__crt_stdio_output@@@2@@__crt_stdio_output@@AAE_NXZ 1002dafe f i libucrt:output.obj
 0001:0002cb4a       ?state_case_flag@?$output_processor@_WV?$stream_output_adapter@_W@__crt_stdio_output@@V?$positional_parameter_base@_WV?$stream_output_adapter@_W@__crt_stdio_output@@@2@@__crt_stdio_output@@AAE_NXZ 1002db4a f i libucrt:output.obj
 0001:0002cb96       ?state_case_flag@?$output_processor@_WV?$stream_output_adapter@_W@__crt_stdio_output@@V?$standard_base@_WV?$stream_output_adapter@_W@__crt_stdio_output@@@2@@__crt_stdio_output@@AAE_NXZ 1002db96 f i libucrt:output.obj
 0001:0002cbe2       ?state_case_flag@?$output_processor@_WV?$string_output_adapter@_W@__crt_stdio_output@@V?$format_validation_base@_WV?$string_output_adapter@_W@__crt_stdio_output@@@2@@__crt_stdio_output@@AAE_NXZ 1002dbe2 f i libucrt:output.obj
 0001:0002cc2e       ?state_case_flag@?$output_processor@_WV?$string_output_adapter@_W@__crt_stdio_output@@V?$positional_parameter_base@_WV?$string_output_adapter@_W@__crt_stdio_output@@@2@@__crt_stdio_output@@AAE_NXZ 1002dc2e f i libucrt:output.obj
 0001:0002cc7a       ?state_case_flag@?$output_processor@_WV?$string_output_adapter@_W@__crt_stdio_output@@V?$standard_base@_WV?$string_output_adapter@_W@__crt_stdio_output@@@2@@__crt_stdio_output@@AAE_NXZ 1002dc7a f i libucrt:output.obj
 0001:0002ccc6       ?state_case_normal@?$output_processor@DV?$stream_output_adapter@D@__crt_stdio_output@@V?$format_validation_base@DV?$stream_output_adapter@D@__crt_stdio_output@@@2@@__crt_stdio_output@@AAE_NXZ 1002dcc6 f i libucrt:output.obj
 0001:0002ccec       ?state_case_normal@?$output_processor@DV?$stream_output_adapter@D@__crt_stdio_output@@V?$positional_parameter_base@DV?$stream_output_adapter@D@__crt_stdio_output@@@2@@__crt_stdio_output@@AAE_NXZ 1002dcec f i libucrt:output.obj
 0001:0002cd29       ?state_case_normal@?$output_processor@DV?$stream_output_adapter@D@__crt_stdio_output@@V?$standard_base@DV?$stream_output_adapter@D@__crt_stdio_output@@@2@@__crt_stdio_output@@AAE_NXZ 1002dd29 f i libucrt:output.obj
 0001:0002cd4f       ?state_case_normal@?$output_processor@DV?$string_output_adapter@D@__crt_stdio_output@@V?$format_validation_base@DV?$string_output_adapter@D@__crt_stdio_output@@@2@@__crt_stdio_output@@AAE_NXZ 1002dd4f f i libucrt:output.obj
 0001:0002cd75       ?state_case_normal@?$output_processor@DV?$string_output_adapter@D@__crt_stdio_output@@V?$positional_parameter_base@DV?$string_output_adapter@D@__crt_stdio_output@@@2@@__crt_stdio_output@@AAE_NXZ 1002dd75 f i libucrt:output.obj
 0001:0002cdb2       ?state_case_normal@?$output_processor@DV?$string_output_adapter@D@__crt_stdio_output@@V?$standard_base@DV?$string_output_adapter@D@__crt_stdio_output@@@2@@__crt_stdio_output@@AAE_NXZ 1002ddb2 f i libucrt:output.obj
 0001:0002cdd8       ?state_case_normal@?$output_processor@_WV?$stream_output_adapter@_W@__crt_stdio_output@@V?$format_validation_base@_WV?$stream_output_adapter@_W@__crt_stdio_output@@@2@@__crt_stdio_output@@AAE_NXZ 1002ddd8 f i libucrt:output.obj
 0001:0002cdfe       ?state_case_normal@?$output_processor@_WV?$stream_output_adapter@_W@__crt_stdio_output@@V?$positional_parameter_base@_WV?$stream_output_adapter@_W@__crt_stdio_output@@@2@@__crt_stdio_output@@AAE_NXZ 1002ddfe f i libucrt:output.obj
 0001:0002ce3b       ?state_case_normal@?$output_processor@_WV?$stream_output_adapter@_W@__crt_stdio_output@@V?$standard_base@_WV?$stream_output_adapter@_W@__crt_stdio_output@@@2@@__crt_stdio_output@@AAE_NXZ 1002de3b f i libucrt:output.obj
 0001:0002ce61       ?state_case_normal@?$output_processor@_WV?$string_output_adapter@_W@__crt_stdio_output@@V?$format_validation_base@_WV?$string_output_adapter@_W@__crt_stdio_output@@@2@@__crt_stdio_output@@AAE_NXZ 1002de61 f i libucrt:output.obj
 0001:0002ce87       ?state_case_normal@?$output_processor@_WV?$string_output_adapter@_W@__crt_stdio_output@@V?$positional_parameter_base@_WV?$string_output_adapter@_W@__crt_stdio_output@@@2@@__crt_stdio_output@@AAE_NXZ 1002de87 f i libucrt:output.obj
 0001:0002cec4       ?state_case_normal@?$output_processor@_WV?$string_output_adapter@_W@__crt_stdio_output@@V?$standard_base@_WV?$string_output_adapter@_W@__crt_stdio_output@@@2@@__crt_stdio_output@@AAE_NXZ 1002dec4 f i libucrt:output.obj
 0001:0002ceea       ?state_case_normal_common@?$output_processor@DV?$stream_output_adapter@D@__crt_stdio_output@@V?$format_validation_base@DV?$stream_output_adapter@D@__crt_stdio_output@@@2@@__crt_stdio_output@@AAE_NXZ 1002deea f i libucrt:output.obj
 0001:0002cf35       ?state_case_normal_common@?$output_processor@DV?$stream_output_adapter@D@__crt_stdio_output@@V?$positional_parameter_base@DV?$stream_output_adapter@D@__crt_stdio_output@@@2@@__crt_stdio_output@@AAE_NXZ 1002df35 f i libucrt:output.obj
 0001:0002cf80       ?state_case_normal_common@?$output_processor@DV?$stream_output_adapter@D@__crt_stdio_output@@V?$standard_base@DV?$stream_output_adapter@D@__crt_stdio_output@@@2@@__crt_stdio_output@@AAE_NXZ 1002df80 f i libucrt:output.obj
 0001:0002cfcb       ?state_case_normal_common@?$output_processor@DV?$string_output_adapter@D@__crt_stdio_output@@V?$format_validation_base@DV?$string_output_adapter@D@__crt_stdio_output@@@2@@__crt_stdio_output@@AAE_NXZ 1002dfcb f i libucrt:output.obj
 0001:0002cfff       ?state_case_normal_common@?$output_processor@DV?$string_output_adapter@D@__crt_stdio_output@@V?$positional_parameter_base@DV?$string_output_adapter@D@__crt_stdio_output@@@2@@__crt_stdio_output@@AAE_NXZ 1002dfff f i libucrt:output.obj
 0001:0002d033       ?state_case_normal_common@?$output_processor@DV?$string_output_adapter@D@__crt_stdio_output@@V?$standard_base@DV?$string_output_adapter@D@__crt_stdio_output@@@2@@__crt_stdio_output@@AAE_NXZ 1002e033 f i libucrt:output.obj
 0001:0002d067       ?state_case_normal_common@?$output_processor@_WV?$stream_output_adapter@_W@__crt_stdio_output@@V?$format_validation_base@_WV?$stream_output_adapter@_W@__crt_stdio_output@@@2@@__crt_stdio_output@@AAE_NXZ 1002e067 f i libucrt:output.obj
 0001:0002d09b       ?state_case_normal_common@?$output_processor@_WV?$stream_output_adapter@_W@__crt_stdio_output@@V?$positional_parameter_base@_WV?$stream_output_adapter@_W@__crt_stdio_output@@@2@@__crt_stdio_output@@AAE_NXZ 1002e09b f i libucrt:output.obj
 0001:0002d0cf       ?state_case_normal_common@?$output_processor@_WV?$stream_output_adapter@_W@__crt_stdio_output@@V?$standard_base@_WV?$stream_output_adapter@_W@__crt_stdio_output@@@2@@__crt_stdio_output@@AAE_NXZ 1002e0cf f i libucrt:output.obj
 0001:0002d103       ?state_case_normal_common@?$output_processor@_WV?$string_output_adapter@_W@__crt_stdio_output@@V?$format_validation_base@_WV?$string_output_adapter@_W@__crt_stdio_output@@@2@@__crt_stdio_output@@AAE_NXZ 1002e103 f i libucrt:output.obj
 0001:0002d124       ?state_case_normal_common@?$output_processor@_WV?$string_output_adapter@_W@__crt_stdio_output@@V?$positional_parameter_base@_WV?$string_output_adapter@_W@__crt_stdio_output@@@2@@__crt_stdio_output@@AAE_NXZ 1002e124 f i libucrt:output.obj
 0001:0002d145       ?state_case_normal_common@?$output_processor@_WV?$string_output_adapter@_W@__crt_stdio_output@@V?$standard_base@_WV?$string_output_adapter@_W@__crt_stdio_output@@@2@@__crt_stdio_output@@AAE_NXZ 1002e145 f i libucrt:output.obj
 0001:0002d166       ?state_case_normal_tchar@?$output_processor@DV?$stream_output_adapter@D@__crt_stdio_output@@V?$format_validation_base@DV?$stream_output_adapter@D@__crt_stdio_output@@@2@@__crt_stdio_output@@AAE_ND@Z 1002e166 f i libucrt:output.obj
 0001:0002d1e0       ?state_case_normal_tchar@?$output_processor@DV?$stream_output_adapter@D@__crt_stdio_output@@V?$positional_parameter_base@DV?$stream_output_adapter@D@__crt_stdio_output@@@2@@__crt_stdio_output@@AAE_ND@Z 1002e1e0 f i libucrt:output.obj
 0001:0002d25a       ?state_case_normal_tchar@?$output_processor@DV?$stream_output_adapter@D@__crt_stdio_output@@V?$standard_base@DV?$stream_output_adapter@D@__crt_stdio_output@@@2@@__crt_stdio_output@@AAE_ND@Z 1002e25a f i libucrt:output.obj
 0001:0002d2d4       ?state_case_normal_tchar@?$output_processor@DV?$string_output_adapter@D@__crt_stdio_output@@V?$format_validation_base@DV?$string_output_adapter@D@__crt_stdio_output@@@2@@__crt_stdio_output@@AAE_ND@Z 1002e2d4 f i libucrt:output.obj
 0001:0002d343       ?state_case_normal_tchar@?$output_processor@DV?$string_output_adapter@D@__crt_stdio_output@@V?$positional_parameter_base@DV?$string_output_adapter@D@__crt_stdio_output@@@2@@__crt_stdio_output@@AAE_ND@Z 1002e343 f i libucrt:output.obj
 0001:0002d3b2       ?state_case_normal_tchar@?$output_processor@DV?$string_output_adapter@D@__crt_stdio_output@@V?$standard_base@DV?$string_output_adapter@D@__crt_stdio_output@@@2@@__crt_stdio_output@@AAE_ND@Z 1002e3b2 f i libucrt:output.obj
 0001:0002d421       ?state_case_normal_tchar@?$output_processor@_WV?$stream_output_adapter@_W@__crt_stdio_output@@V?$format_validation_base@_WV?$stream_output_adapter@_W@__crt_stdio_output@@@2@@__crt_stdio_output@@AAE_N_W@Z 1002e421 f i libucrt:output.obj
 0001:0002d42c       ?state_case_normal_tchar@?$output_processor@_WV?$stream_output_adapter@_W@__crt_stdio_output@@V?$positional_parameter_base@_WV?$stream_output_adapter@_W@__crt_stdio_output@@@2@@__crt_stdio_output@@AAE_N_W@Z 1002e42c f i libucrt:output.obj
 0001:0002d437       ?state_case_normal_tchar@?$output_processor@_WV?$stream_output_adapter@_W@__crt_stdio_output@@V?$standard_base@_WV?$stream_output_adapter@_W@__crt_stdio_output@@@2@@__crt_stdio_output@@AAE_N_W@Z 1002e437 f i libucrt:output.obj
 0001:0002d442       ?state_case_normal_tchar@?$output_processor@_WV?$string_output_adapter@_W@__crt_stdio_output@@V?$format_validation_base@_WV?$string_output_adapter@_W@__crt_stdio_output@@@2@@__crt_stdio_output@@AAE_N_W@Z 1002e442 f i libucrt:output.obj
 0001:0002d44d       ?state_case_normal_tchar@?$output_processor@_WV?$string_output_adapter@_W@__crt_stdio_output@@V?$positional_parameter_base@_WV?$string_output_adapter@_W@__crt_stdio_output@@@2@@__crt_stdio_output@@AAE_N_W@Z 1002e44d f i libucrt:output.obj
 0001:0002d458       ?state_case_normal_tchar@?$output_processor@_WV?$string_output_adapter@_W@__crt_stdio_output@@V?$standard_base@_WV?$string_output_adapter@_W@__crt_stdio_output@@@2@@__crt_stdio_output@@AAE_N_W@Z 1002e458 f i libucrt:output.obj
 0001:0002d463       ?state_case_percent@?$output_processor@DV?$stream_output_adapter@D@__crt_stdio_output@@V?$format_validation_base@DV?$stream_output_adapter@D@__crt_stdio_output@@@2@@__crt_stdio_output@@AAE_NXZ 1002e463 f i libucrt:output.obj
 0001:0002d481       ?state_case_percent@?$output_processor@DV?$stream_output_adapter@D@__crt_stdio_output@@V?$positional_parameter_base@DV?$stream_output_adapter@D@__crt_stdio_output@@@2@@__crt_stdio_output@@AAE_NXZ 1002e481 f i libucrt:output.obj
 0001:0002d49f       ?state_case_percent@?$output_processor@DV?$stream_output_adapter@D@__crt_stdio_output@@V?$standard_base@DV?$stream_output_adapter@D@__crt_stdio_output@@@2@@__crt_stdio_output@@AAE_NXZ 1002e49f f i libucrt:output.obj
 0001:0002d4bd       ?state_case_percent@?$output_processor@DV?$string_output_adapter@D@__crt_stdio_output@@V?$format_validation_base@DV?$string_output_adapter@D@__crt_stdio_output@@@2@@__crt_stdio_output@@AAE_NXZ 1002e4bd f i libucrt:output.obj
 0001:0002d4db       ?state_case_percent@?$output_processor@DV?$string_output_adapter@D@__crt_stdio_output@@V?$positional_parameter_base@DV?$string_output_adapter@D@__crt_stdio_output@@@2@@__crt_stdio_output@@AAE_NXZ 1002e4db f i libucrt:output.obj
 0001:0002d4f9       ?state_case_percent@?$output_processor@DV?$string_output_adapter@D@__crt_stdio_output@@V?$standard_base@DV?$string_output_adapter@D@__crt_stdio_output@@@2@@__crt_stdio_output@@AAE_NXZ 1002e4f9 f i libucrt:output.obj
 0001:0002d517       ?state_case_percent@?$output_processor@_WV?$stream_output_adapter@_W@__crt_stdio_output@@V?$format_validation_base@_WV?$stream_output_adapter@_W@__crt_stdio_output@@@2@@__crt_stdio_output@@AAE_NXZ 1002e517 f i libucrt:output.obj
 0001:0002d535       ?state_case_percent@?$output_processor@_WV?$stream_output_adapter@_W@__crt_stdio_output@@V?$positional_parameter_base@_WV?$stream_output_adapter@_W@__crt_stdio_output@@@2@@__crt_stdio_output@@AAE_NXZ 1002e535 f i libucrt:output.obj
 0001:0002d553       ?state_case_percent@?$output_processor@_WV?$stream_output_adapter@_W@__crt_stdio_output@@V?$standard_base@_WV?$stream_output_adapter@_W@__crt_stdio_output@@@2@@__crt_stdio_output@@AAE_NXZ 1002e553 f i libucrt:output.obj
 0001:0002d571       ?state_case_percent@?$output_processor@_WV?$string_output_adapter@_W@__crt_stdio_output@@V?$format_validation_base@_WV?$string_output_adapter@_W@__crt_stdio_output@@@2@@__crt_stdio_output@@AAE_NXZ 1002e571 f i libucrt:output.obj
 0001:0002d58f       ?state_case_percent@?$output_processor@_WV?$string_output_adapter@_W@__crt_stdio_output@@V?$positional_parameter_base@_WV?$string_output_adapter@_W@__crt_stdio_output@@@2@@__crt_stdio_output@@AAE_NXZ 1002e58f f i libucrt:output.obj
 0001:0002d5ad       ?state_case_percent@?$output_processor@_WV?$string_output_adapter@_W@__crt_stdio_output@@V?$standard_base@_WV?$string_output_adapter@_W@__crt_stdio_output@@@2@@__crt_stdio_output@@AAE_NXZ 1002e5ad f i libucrt:output.obj
 0001:0002d5cb       ?state_case_precision@?$output_processor@DV?$stream_output_adapter@D@__crt_stdio_output@@V?$format_validation_base@DV?$stream_output_adapter@D@__crt_stdio_output@@@2@@__crt_stdio_output@@AAE_NXZ 1002e5cb f i libucrt:output.obj
 0001:0002d5fa       ?state_case_precision@?$output_processor@DV?$stream_output_adapter@D@__crt_stdio_output@@V?$positional_parameter_base@DV?$stream_output_adapter@D@__crt_stdio_output@@@2@@__crt_stdio_output@@AAE_NXZ 1002e5fa f i libucrt:output.obj
 0001:0002d642       ?state_case_precision@?$output_processor@DV?$stream_output_adapter@D@__crt_stdio_output@@V?$standard_base@DV?$stream_output_adapter@D@__crt_stdio_output@@@2@@__crt_stdio_output@@AAE_NXZ 1002e642 f i libucrt:output.obj
 0001:0002d671       ?state_case_precision@?$output_processor@DV?$string_output_adapter@D@__crt_stdio_output@@V?$format_validation_base@DV?$string_output_adapter@D@__crt_stdio_output@@@2@@__crt_stdio_output@@AAE_NXZ 1002e671 f i libucrt:output.obj
 0001:0002d6a0       ?state_case_precision@?$output_processor@DV?$string_output_adapter@D@__crt_stdio_output@@V?$positional_parameter_base@DV?$string_output_adapter@D@__crt_stdio_output@@@2@@__crt_stdio_output@@AAE_NXZ 1002e6a0 f i libucrt:output.obj
 0001:0002d6e8       ?state_case_precision@?$output_processor@DV?$string_output_adapter@D@__crt_stdio_output@@V?$standard_base@DV?$string_output_adapter@D@__crt_stdio_output@@@2@@__crt_stdio_output@@AAE_NXZ 1002e6e8 f i libucrt:output.obj
 0001:0002d717       ?state_case_precision@?$output_processor@_WV?$stream_output_adapter@_W@__crt_stdio_output@@V?$format_validation_base@_WV?$stream_output_adapter@_W@__crt_stdio_output@@@2@@__crt_stdio_output@@AAE_NXZ 1002e717 f i libucrt:output.obj
 0001:0002d747       ?state_case_precision@?$output_processor@_WV?$stream_output_adapter@_W@__crt_stdio_output@@V?$positional_parameter_base@_WV?$stream_output_adapter@_W@__crt_stdio_output@@@2@@__crt_stdio_output@@AAE_NXZ 1002e747 f i libucrt:output.obj
 0001:0002d790       ?state_case_precision@?$output_processor@_WV?$stream_output_adapter@_W@__crt_stdio_output@@V?$standard_base@_WV?$stream_output_adapter@_W@__crt_stdio_output@@@2@@__crt_stdio_output@@AAE_NXZ 1002e790 f i libucrt:output.obj
 0001:0002d7c0       ?state_case_precision@?$output_processor@_WV?$string_output_adapter@_W@__crt_stdio_output@@V?$format_validation_base@_WV?$string_output_adapter@_W@__crt_stdio_output@@@2@@__crt_stdio_output@@AAE_NXZ 1002e7c0 f i libucrt:output.obj
 0001:0002d7f0       ?state_case_precision@?$output_processor@_WV?$string_output_adapter@_W@__crt_stdio_output@@V?$positional_parameter_base@_WV?$string_output_adapter@_W@__crt_stdio_output@@@2@@__crt_stdio_output@@AAE_NXZ 1002e7f0 f i libucrt:output.obj
 0001:0002d839       ?state_case_precision@?$output_processor@_WV?$string_output_adapter@_W@__crt_stdio_output@@V?$standard_base@_WV?$string_output_adapter@_W@__crt_stdio_output@@@2@@__crt_stdio_output@@AAE_NXZ 1002e839 f i libucrt:output.obj
 0001:0002d869       ?state_case_size@?$output_processor@DV?$stream_output_adapter@D@__crt_stdio_output@@V?$format_validation_base@DV?$stream_output_adapter@D@__crt_stdio_output@@@2@@__crt_stdio_output@@AAE_NXZ 1002e869 f i libucrt:output.obj
 0001:0002da19       ?state_case_size@?$output_processor@DV?$stream_output_adapter@D@__crt_stdio_output@@V?$positional_parameter_base@DV?$stream_output_adapter@D@__crt_stdio_output@@@2@@__crt_stdio_output@@AAE_NXZ 1002ea19 f i libucrt:output.obj
 0001:0002dbc9       ?state_case_size@?$output_processor@DV?$stream_output_adapter@D@__crt_stdio_output@@V?$standard_base@DV?$stream_output_adapter@D@__crt_stdio_output@@@2@@__crt_stdio_output@@AAE_NXZ 1002ebc9 f i libucrt:output.obj
 0001:0002dd79       ?state_case_size@?$output_processor@DV?$string_output_adapter@D@__crt_stdio_output@@V?$format_validation_base@DV?$string_output_adapter@D@__crt_stdio_output@@@2@@__crt_stdio_output@@AAE_NXZ 1002ed79 f i libucrt:output.obj
 0001:0002df29       ?state_case_size@?$output_processor@DV?$string_output_adapter@D@__crt_stdio_output@@V?$positional_parameter_base@DV?$string_output_adapter@D@__crt_stdio_output@@@2@@__crt_stdio_output@@AAE_NXZ 1002ef29 f i libucrt:output.obj
 0001:0002e0d9       ?state_case_size@?$output_processor@DV?$string_output_adapter@D@__crt_stdio_output@@V?$standard_base@DV?$string_output_adapter@D@__crt_stdio_output@@@2@@__crt_stdio_output@@AAE_NXZ 1002f0d9 f i libucrt:output.obj
 0001:0002e289       ?state_case_size@?$output_processor@_WV?$stream_output_adapter@_W@__crt_stdio_output@@V?$format_validation_base@_WV?$stream_output_adapter@_W@__crt_stdio_output@@@2@@__crt_stdio_output@@AAE_NXZ 1002f289 f i libucrt:output.obj
 0001:0002e451       ?state_case_size@?$output_processor@_WV?$stream_output_adapter@_W@__crt_stdio_output@@V?$positional_parameter_base@_WV?$stream_output_adapter@_W@__crt_stdio_output@@@2@@__crt_stdio_output@@AAE_NXZ 1002f451 f i libucrt:output.obj
 0001:0002e619       ?state_case_size@?$output_processor@_WV?$stream_output_adapter@_W@__crt_stdio_output@@V?$standard_base@_WV?$stream_output_adapter@_W@__crt_stdio_output@@@2@@__crt_stdio_output@@AAE_NXZ 1002f619 f i libucrt:output.obj
 0001:0002e7e1       ?state_case_size@?$output_processor@_WV?$string_output_adapter@_W@__crt_stdio_output@@V?$format_validation_base@_WV?$string_output_adapter@_W@__crt_stdio_output@@@2@@__crt_stdio_output@@AAE_NXZ 1002f7e1 f i libucrt:output.obj
 0001:0002e9a9       ?state_case_size@?$output_processor@_WV?$string_output_adapter@_W@__crt_stdio_output@@V?$positional_parameter_base@_WV?$string_output_adapter@_W@__crt_stdio_output@@@2@@__crt_stdio_output@@AAE_NXZ 1002f9a9 f i libucrt:output.obj
 0001:0002eb71       ?state_case_size@?$output_processor@_WV?$string_output_adapter@_W@__crt_stdio_output@@V?$standard_base@_WV?$string_output_adapter@_W@__crt_stdio_output@@@2@@__crt_stdio_output@@AAE_NXZ 1002fb71 f i libucrt:output.obj
 0001:0002ed39       ?state_case_type@?$output_processor@DV?$stream_output_adapter@D@__crt_stdio_output@@V?$format_validation_base@DV?$stream_output_adapter@D@__crt_stdio_output@@@2@@__crt_stdio_output@@AAE_NXZ 1002fd39 f i libucrt:output.obj
 0001:0002efec       ?state_case_type@?$output_processor@DV?$stream_output_adapter@D@__crt_stdio_output@@V?$positional_parameter_base@DV?$stream_output_adapter@D@__crt_stdio_output@@@2@@__crt_stdio_output@@AAE_NXZ 1002ffec f i libucrt:output.obj
 0001:0002f2ad       ?state_case_type@?$output_processor@DV?$stream_output_adapter@D@__crt_stdio_output@@V?$standard_base@DV?$stream_output_adapter@D@__crt_stdio_output@@@2@@__crt_stdio_output@@AAE_NXZ 100302ad f i libucrt:output.obj
 0001:0002f560       ?state_case_type@?$output_processor@DV?$string_output_adapter@D@__crt_stdio_output@@V?$format_validation_base@DV?$string_output_adapter@D@__crt_stdio_output@@@2@@__crt_stdio_output@@AAE_NXZ 10030560 f i libucrt:output.obj
 0001:0002f813       ?state_case_type@?$output_processor@DV?$string_output_adapter@D@__crt_stdio_output@@V?$positional_parameter_base@DV?$string_output_adapter@D@__crt_stdio_output@@@2@@__crt_stdio_output@@AAE_NXZ 10030813 f i libucrt:output.obj
 0001:0002fad4       ?state_case_type@?$output_processor@DV?$string_output_adapter@D@__crt_stdio_output@@V?$standard_base@DV?$string_output_adapter@D@__crt_stdio_output@@@2@@__crt_stdio_output@@AAE_NXZ 10030ad4 f i libucrt:output.obj
 0001:0002fd87       ?state_case_type@?$output_processor@_WV?$stream_output_adapter@_W@__crt_stdio_output@@V?$format_validation_base@_WV?$stream_output_adapter@_W@__crt_stdio_output@@@2@@__crt_stdio_output@@AAE_NXZ 10030d87 f i libucrt:output.obj
 0001:00030087       ?state_case_type@?$output_processor@_WV?$stream_output_adapter@_W@__crt_stdio_output@@V?$positional_parameter_base@_WV?$stream_output_adapter@_W@__crt_stdio_output@@@2@@__crt_stdio_output@@AAE_NXZ 10031087 f i libucrt:output.obj
 0001:0003039a       ?state_case_type@?$output_processor@_WV?$stream_output_adapter@_W@__crt_stdio_output@@V?$standard_base@_WV?$stream_output_adapter@_W@__crt_stdio_output@@@2@@__crt_stdio_output@@AAE_NXZ 1003139a f i libucrt:output.obj
 0001:0003069a       ?state_case_type@?$output_processor@_WV?$string_output_adapter@_W@__crt_stdio_output@@V?$format_validation_base@_WV?$string_output_adapter@_W@__crt_stdio_output@@@2@@__crt_stdio_output@@AAE_NXZ 1003169a f i libucrt:output.obj
 0001:0003099a       ?state_case_type@?$output_processor@_WV?$string_output_adapter@_W@__crt_stdio_output@@V?$positional_parameter_base@_WV?$string_output_adapter@_W@__crt_stdio_output@@@2@@__crt_stdio_output@@AAE_NXZ 1003199a f i libucrt:output.obj
 0001:00030cad       ?state_case_type@?$output_processor@_WV?$string_output_adapter@_W@__crt_stdio_output@@V?$standard_base@_WV?$string_output_adapter@_W@__crt_stdio_output@@@2@@__crt_stdio_output@@AAE_NXZ 10031cad f i libucrt:output.obj
 0001:00030fad       ?state_case_width@?$output_processor@DV?$stream_output_adapter@D@__crt_stdio_output@@V?$format_validation_base@DV?$stream_output_adapter@D@__crt_stdio_output@@@2@@__crt_stdio_output@@AAE_NXZ 10031fad f i libucrt:output.obj
 0001:00030fe2       ?state_case_width@?$output_processor@DV?$stream_output_adapter@D@__crt_stdio_output@@V?$positional_parameter_base@DV?$stream_output_adapter@D@__crt_stdio_output@@@2@@__crt_stdio_output@@AAE_NXZ 10031fe2 f i libucrt:output.obj
 0001:00031032       ?state_case_width@?$output_processor@DV?$stream_output_adapter@D@__crt_stdio_output@@V?$standard_base@DV?$stream_output_adapter@D@__crt_stdio_output@@@2@@__crt_stdio_output@@AAE_NXZ 10032032 f i libucrt:output.obj
 0001:00031067       ?state_case_width@?$output_processor@DV?$string_output_adapter@D@__crt_stdio_output@@V?$format_validation_base@DV?$string_output_adapter@D@__crt_stdio_output@@@2@@__crt_stdio_output@@AAE_NXZ 10032067 f i libucrt:output.obj
 0001:0003109c       ?state_case_width@?$output_processor@DV?$string_output_adapter@D@__crt_stdio_output@@V?$positional_parameter_base@DV?$string_output_adapter@D@__crt_stdio_output@@@2@@__crt_stdio_output@@AAE_NXZ 1003209c f i libucrt:output.obj
 0001:000310ec       ?state_case_width@?$output_processor@DV?$string_output_adapter@D@__crt_stdio_output@@V?$standard_base@DV?$string_output_adapter@D@__crt_stdio_output@@@2@@__crt_stdio_output@@AAE_NXZ 100320ec f i libucrt:output.obj
 0001:00031121       ?state_case_width@?$output_processor@_WV?$stream_output_adapter@_W@__crt_stdio_output@@V?$format_validation_base@_WV?$stream_output_adapter@_W@__crt_stdio_output@@@2@@__crt_stdio_output@@AAE_NXZ 10032121 f i libucrt:output.obj
 0001:00031158       ?state_case_width@?$output_processor@_WV?$stream_output_adapter@_W@__crt_stdio_output@@V?$positional_parameter_base@_WV?$stream_output_adapter@_W@__crt_stdio_output@@@2@@__crt_stdio_output@@AAE_NXZ 10032158 f i libucrt:output.obj
 0001:000311a9       ?state_case_width@?$output_processor@_WV?$stream_output_adapter@_W@__crt_stdio_output@@V?$standard_base@_WV?$stream_output_adapter@_W@__crt_stdio_output@@@2@@__crt_stdio_output@@AAE_NXZ 100321a9 f i libucrt:output.obj
 0001:000311e0       ?state_case_width@?$output_processor@_WV?$string_output_adapter@_W@__crt_stdio_output@@V?$format_validation_base@_WV?$string_output_adapter@_W@__crt_stdio_output@@@2@@__crt_stdio_output@@AAE_NXZ 100321e0 f i libucrt:output.obj
 0001:00031217       ?state_case_width@?$output_processor@_WV?$string_output_adapter@_W@__crt_stdio_output@@V?$positional_parameter_base@_WV?$string_output_adapter@_W@__crt_stdio_output@@@2@@__crt_stdio_output@@AAE_NXZ 10032217 f i libucrt:output.obj
 0001:00031268       ?state_case_width@?$output_processor@_WV?$string_output_adapter@_W@__crt_stdio_output@@V?$standard_base@_WV?$string_output_adapter@_W@__crt_stdio_output@@@2@@__crt_stdio_output@@AAE_NXZ 10032268 f i libucrt:output.obj
 0001:0003129f       ?state_count@?$format_validation_base@DV?$stream_output_adapter@D@__crt_stdio_output@@@__crt_stdio_output@@KAIXZ 1003229f f i libucrt:output.obj
 0001:000312a3       ?state_count@?$format_validation_base@DV?$string_output_adapter@D@__crt_stdio_output@@@__crt_stdio_output@@KAIXZ 100322a3 f i libucrt:output.obj
 0001:000312a7       ?state_count@?$format_validation_base@_WV?$stream_output_adapter@_W@__crt_stdio_output@@@__crt_stdio_output@@KAIXZ 100322a7 f i libucrt:output.obj
 0001:000312ab       ?state_count@?$format_validation_base@_WV?$string_output_adapter@_W@__crt_stdio_output@@@__crt_stdio_output@@KAIXZ 100322ab f i libucrt:output.obj
 0001:000312af       ?state_count@?$standard_base@DV?$stream_output_adapter@D@__crt_stdio_output@@@__crt_stdio_output@@KAIXZ 100322af f i libucrt:output.obj
 0001:000312b3       ?state_count@?$standard_base@DV?$string_output_adapter@D@__crt_stdio_output@@@__crt_stdio_output@@KAIXZ 100322b3 f i libucrt:output.obj
 0001:000312b7       ?state_count@?$standard_base@_WV?$stream_output_adapter@_W@__crt_stdio_output@@@__crt_stdio_output@@KAIXZ 100322b7 f i libucrt:output.obj
 0001:000312bb       ?state_count@?$standard_base@_WV?$string_output_adapter@_W@__crt_stdio_output@@@__crt_stdio_output@@KAIXZ 100322bb f i libucrt:output.obj
 0001:000312bf       ?state_transition_table@?$format_validation_base@DV?$stream_output_adapter@D@__crt_stdio_output@@@__crt_stdio_output@@KAPBEXZ 100322bf f i libucrt:output.obj
 0001:000312c5       ?state_transition_table@?$format_validation_base@DV?$string_output_adapter@D@__crt_stdio_output@@@__crt_stdio_output@@KAPBEXZ 100322c5 f i libucrt:output.obj
 0001:000312cb       ?state_transition_table@?$format_validation_base@_WV?$stream_output_adapter@_W@__crt_stdio_output@@@__crt_stdio_output@@KAPBEXZ 100322cb f i libucrt:output.obj
 0001:000312d1       ?state_transition_table@?$format_validation_base@_WV?$string_output_adapter@_W@__crt_stdio_output@@@__crt_stdio_output@@KAPBEXZ 100322d1 f i libucrt:output.obj
 0001:000312d7       ?state_transition_table@?$standard_base@DV?$stream_output_adapter@D@__crt_stdio_output@@@__crt_stdio_output@@KAPBEXZ 100322d7 f i libucrt:output.obj
 0001:000312dd       ?state_transition_table@?$standard_base@DV?$string_output_adapter@D@__crt_stdio_output@@@__crt_stdio_output@@KAPBEXZ 100322dd f i libucrt:output.obj
 0001:000312e3       ?state_transition_table@?$standard_base@_WV?$stream_output_adapter@_W@__crt_stdio_output@@@__crt_stdio_output@@KAPBEXZ 100322e3 f i libucrt:output.obj
 0001:000312e9       ?state_transition_table@?$standard_base@_WV?$string_output_adapter@_W@__crt_stdio_output@@@__crt_stdio_output@@KAPBEXZ 100322e9 f i libucrt:output.obj
 0001:000312ef       ?tchar_string@?$common_data@D@__crt_stdio_output@@IAEAAPADD@Z 100322ef f i libucrt:output.obj
 0001:000312f5       ?tchar_string@?$common_data@D@__crt_stdio_output@@IAEAAPADXZ 100322f5 f i libucrt:output.obj
 0001:000312f9       ?tchar_string@?$common_data@_W@__crt_stdio_output@@IAEAAPA_WXZ 100322f9 f i libucrt:output.obj
 0001:000312fd       ?tchar_string@?$common_data@_W@__crt_stdio_output@@IAEAAPA_W_W@Z 100322fd f i libucrt:output.obj
 0001:00031303       ?to_integer_size@__crt_stdio_output@@YAIW4length_modifier@1@@Z 10032303 f i libucrt:output.obj
 0001:00031376       ?type_case_X@?$output_processor@DV?$stream_output_adapter@D@__crt_stdio_output@@V?$format_validation_base@DV?$stream_output_adapter@D@__crt_stdio_output@@@2@@__crt_stdio_output@@AAE_NXZ 10032376 f i libucrt:output.obj
 0001:00031382       ?type_case_X@?$output_processor@DV?$stream_output_adapter@D@__crt_stdio_output@@V?$positional_parameter_base@DV?$stream_output_adapter@D@__crt_stdio_output@@@2@@__crt_stdio_output@@AAE_NXZ 10032382 f i libucrt:output.obj
 0001:0003138e       ?type_case_X@?$output_processor@DV?$stream_output_adapter@D@__crt_stdio_output@@V?$standard_base@DV?$stream_output_adapter@D@__crt_stdio_output@@@2@@__crt_stdio_output@@AAE_NXZ 1003238e f i libucrt:output.obj
 0001:0003139a       ?type_case_X@?$output_processor@DV?$string_output_adapter@D@__crt_stdio_output@@V?$format_validation_base@DV?$string_output_adapter@D@__crt_stdio_output@@@2@@__crt_stdio_output@@AAE_NXZ 1003239a f i libucrt:output.obj
 0001:000313a6       ?type_case_X@?$output_processor@DV?$string_output_adapter@D@__crt_stdio_output@@V?$positional_parameter_base@DV?$string_output_adapter@D@__crt_stdio_output@@@2@@__crt_stdio_output@@AAE_NXZ 100323a6 f i libucrt:output.obj
 0001:000313b2       ?type_case_X@?$output_processor@DV?$string_output_adapter@D@__crt_stdio_output@@V?$standard_base@DV?$string_output_adapter@D@__crt_stdio_output@@@2@@__crt_stdio_output@@AAE_NXZ 100323b2 f i libucrt:output.obj
 0001:000313be       ?type_case_X@?$output_processor@_WV?$stream_output_adapter@_W@__crt_stdio_output@@V?$format_validation_base@_WV?$stream_output_adapter@_W@__crt_stdio_output@@@2@@__crt_stdio_output@@AAE_NXZ 100323be f i libucrt:output.obj
 0001:000313ca       ?type_case_X@?$output_processor@_WV?$stream_output_adapter@_W@__crt_stdio_output@@V?$positional_parameter_base@_WV?$stream_output_adapter@_W@__crt_stdio_output@@@2@@__crt_stdio_output@@AAE_NXZ 100323ca f i libucrt:output.obj
 0001:000313d6       ?type_case_X@?$output_processor@_WV?$stream_output_adapter@_W@__crt_stdio_output@@V?$standard_base@_WV?$stream_output_adapter@_W@__crt_stdio_output@@@2@@__crt_stdio_output@@AAE_NXZ 100323d6 f i libucrt:output.obj
 0001:000313e2       ?type_case_X@?$output_processor@_WV?$string_output_adapter@_W@__crt_stdio_output@@V?$format_validation_base@_WV?$string_output_adapter@_W@__crt_stdio_output@@@2@@__crt_stdio_output@@AAE_NXZ 100323e2 f i libucrt:output.obj
 0001:000313ee       ?type_case_X@?$output_processor@_WV?$string_output_adapter@_W@__crt_stdio_output@@V?$positional_parameter_base@_WV?$string_output_adapter@_W@__crt_stdio_output@@@2@@__crt_stdio_output@@AAE_NXZ 100323ee f i libucrt:output.obj
 0001:000313fa       ?type_case_X@?$output_processor@_WV?$string_output_adapter@_W@__crt_stdio_output@@V?$standard_base@_WV?$string_output_adapter@_W@__crt_stdio_output@@@2@@__crt_stdio_output@@AAE_NXZ 100323fa f i libucrt:output.obj
 0001:00031406       ?type_case_Z@?$output_processor@DV?$stream_output_adapter@D@__crt_stdio_output@@V?$format_validation_base@DV?$stream_output_adapter@D@__crt_stdio_output@@@2@@__crt_stdio_output@@AAE_NXZ 10032406 f i libucrt:output.obj
 0001:0003147f       ?type_case_Z@?$output_processor@DV?$stream_output_adapter@D@__crt_stdio_output@@V?$positional_parameter_base@DV?$stream_output_adapter@D@__crt_stdio_output@@@2@@__crt_stdio_output@@AAE_NXZ 1003247f f i libucrt:output.obj
 0001:00031595       ?type_case_Z@?$output_processor@DV?$stream_output_adapter@D@__crt_stdio_output@@V?$standard_base@DV?$stream_output_adapter@D@__crt_stdio_output@@@2@@__crt_stdio_output@@AAE_NXZ 10032595 f i libucrt:output.obj
 0001:0003160e       ?type_case_Z@?$output_processor@DV?$string_output_adapter@D@__crt_stdio_output@@V?$format_validation_base@DV?$string_output_adapter@D@__crt_stdio_output@@@2@@__crt_stdio_output@@AAE_NXZ 1003260e f i libucrt:output.obj
 0001:00031687       ?type_case_Z@?$output_processor@DV?$string_output_adapter@D@__crt_stdio_output@@V?$positional_parameter_base@DV?$string_output_adapter@D@__crt_stdio_output@@@2@@__crt_stdio_output@@AAE_NXZ 10032687 f i libucrt:output.obj
 0001:0003179d       ?type_case_Z@?$output_processor@DV?$string_output_adapter@D@__crt_stdio_output@@V?$standard_base@DV?$string_output_adapter@D@__crt_stdio_output@@@2@@__crt_stdio_output@@AAE_NXZ 1003279d f i libucrt:output.obj
 0001:00031816       ?type_case_Z@?$output_processor@_WV?$stream_output_adapter@_W@__crt_stdio_output@@V?$format_validation_base@_WV?$stream_output_adapter@_W@__crt_stdio_output@@@2@@__crt_stdio_output@@AAE_NXZ 10032816 f i libucrt:output.obj
 0001:0003188f       ?type_case_Z@?$output_processor@_WV?$stream_output_adapter@_W@__crt_stdio_output@@V?$positional_parameter_base@_WV?$stream_output_adapter@_W@__crt_stdio_output@@@2@@__crt_stdio_output@@AAE_NXZ 1003288f f i libucrt:output.obj
 0001:000319a5       ?type_case_Z@?$output_processor@_WV?$stream_output_adapter@_W@__crt_stdio_output@@V?$standard_base@_WV?$stream_output_adapter@_W@__crt_stdio_output@@@2@@__crt_stdio_output@@AAE_NXZ 100329a5 f i libucrt:output.obj
 0001:00031a1e       ?type_case_Z@?$output_processor@_WV?$string_output_adapter@_W@__crt_stdio_output@@V?$format_validation_base@_WV?$string_output_adapter@_W@__crt_stdio_output@@@2@@__crt_stdio_output@@AAE_NXZ 10032a1e f i libucrt:output.obj
 0001:00031a97       ?type_case_Z@?$output_processor@_WV?$string_output_adapter@_W@__crt_stdio_output@@V?$positional_parameter_base@_WV?$string_output_adapter@_W@__crt_stdio_output@@@2@@__crt_stdio_output@@AAE_NXZ 10032a97 f i libucrt:output.obj
 0001:00031bad       ?type_case_Z@?$output_processor@_WV?$string_output_adapter@_W@__crt_stdio_output@@V?$standard_base@_WV?$string_output_adapter@_W@__crt_stdio_output@@@2@@__crt_stdio_output@@AAE_NXZ 10032bad f i libucrt:output.obj
 0001:00031c26       ?type_case_a@?$output_processor@DV?$stream_output_adapter@D@__crt_stdio_output@@V?$format_validation_base@DV?$stream_output_adapter@D@__crt_stdio_output@@@2@@__crt_stdio_output@@AAE_NXZ 10032c26 f i libucrt:output.obj
 0001:00031dd5       ?type_case_a@?$output_processor@DV?$stream_output_adapter@D@__crt_stdio_output@@V?$positional_parameter_base@DV?$stream_output_adapter@D@__crt_stdio_output@@@2@@__crt_stdio_output@@AAE_NXZ 10032dd5 f i libucrt:output.obj
 0001:00031fab       ?type_case_a@?$output_processor@DV?$stream_output_adapter@D@__crt_stdio_output@@V?$standard_base@DV?$stream_output_adapter@D@__crt_stdio_output@@@2@@__crt_stdio_output@@AAE_NXZ 10032fab f i libucrt:output.obj
 0001:0003215a       ?type_case_a@?$output_processor@DV?$string_output_adapter@D@__crt_stdio_output@@V?$format_validation_base@DV?$string_output_adapter@D@__crt_stdio_output@@@2@@__crt_stdio_output@@AAE_NXZ 1003315a f i libucrt:output.obj
 0001:00032309       ?type_case_a@?$output_processor@DV?$string_output_adapter@D@__crt_stdio_output@@V?$positional_parameter_base@DV?$string_output_adapter@D@__crt_stdio_output@@@2@@__crt_stdio_output@@AAE_NXZ 10033309 f i libucrt:output.obj
 0001:000324df       ?type_case_a@?$output_processor@DV?$string_output_adapter@D@__crt_stdio_output@@V?$standard_base@DV?$string_output_adapter@D@__crt_stdio_output@@@2@@__crt_stdio_output@@AAE_NXZ 100334df f i libucrt:output.obj
 0001:0003268e       ?type_case_a@?$output_processor@_WV?$stream_output_adapter@_W@__crt_stdio_output@@V?$format_validation_base@_WV?$stream_output_adapter@_W@__crt_stdio_output@@@2@@__crt_stdio_output@@AAE_NXZ 1003368e f i libucrt:output.obj
 0001:00032858       ?type_case_a@?$output_processor@_WV?$stream_output_adapter@_W@__crt_stdio_output@@V?$positional_parameter_base@_WV?$stream_output_adapter@_W@__crt_stdio_output@@@2@@__crt_stdio_output@@AAE_NXZ 10033858 f i libucrt:output.obj
 0001:00032a49       ?type_case_a@?$output_processor@_WV?$stream_output_adapter@_W@__crt_stdio_output@@V?$standard_base@_WV?$stream_output_adapter@_W@__crt_stdio_output@@@2@@__crt_stdio_output@@AAE_NXZ 10033a49 f i libucrt:output.obj
 0001:00032c13       ?type_case_a@?$output_processor@_WV?$string_output_adapter@_W@__crt_stdio_output@@V?$format_validation_base@_WV?$string_output_adapter@_W@__crt_stdio_output@@@2@@__crt_stdio_output@@AAE_NXZ 10033c13 f i libucrt:output.obj
 0001:00032ddd       ?type_case_a@?$output_processor@_WV?$string_output_adapter@_W@__crt_stdio_output@@V?$positional_parameter_base@_WV?$string_output_adapter@_W@__crt_stdio_output@@@2@@__crt_stdio_output@@AAE_NXZ 10033ddd f i libucrt:output.obj
 0001:00032fce       ?type_case_a@?$output_processor@_WV?$string_output_adapter@_W@__crt_stdio_output@@V?$standard_base@_WV?$string_output_adapter@_W@__crt_stdio_output@@@2@@__crt_stdio_output@@AAE_NXZ 10033fce f i libucrt:output.obj
 0001:00033198       ?type_case_c@?$output_processor@DV?$stream_output_adapter@D@__crt_stdio_output@@V?$format_validation_base@DV?$stream_output_adapter@D@__crt_stdio_output@@@2@@__crt_stdio_output@@AAE_NXZ 10034198 f i libucrt:output.obj
 0001:000331a2       ?type_case_c@?$output_processor@DV?$stream_output_adapter@D@__crt_stdio_output@@V?$positional_parameter_base@DV?$stream_output_adapter@D@__crt_stdio_output@@@2@@__crt_stdio_output@@AAE_NXZ 100341a2 f i libucrt:output.obj
 0001:000331ac       ?type_case_c@?$output_processor@DV?$stream_output_adapter@D@__crt_stdio_output@@V?$standard_base@DV?$stream_output_adapter@D@__crt_stdio_output@@@2@@__crt_stdio_output@@AAE_NXZ 100341ac f i libucrt:output.obj
 0001:000331b6       ?type_case_c@?$output_processor@DV?$string_output_adapter@D@__crt_stdio_output@@V?$format_validation_base@DV?$string_output_adapter@D@__crt_stdio_output@@@2@@__crt_stdio_output@@AAE_NXZ 100341b6 f i libucrt:output.obj
 0001:000331c0       ?type_case_c@?$output_processor@DV?$string_output_adapter@D@__crt_stdio_output@@V?$positional_parameter_base@DV?$string_output_adapter@D@__crt_stdio_output@@@2@@__crt_stdio_output@@AAE_NXZ 100341c0 f i libucrt:output.obj
 0001:000331ca       ?type_case_c@?$output_processor@DV?$string_output_adapter@D@__crt_stdio_output@@V?$standard_base@DV?$string_output_adapter@D@__crt_stdio_output@@@2@@__crt_stdio_output@@AAE_NXZ 100341ca f i libucrt:output.obj
 0001:000331d4       ?type_case_c@?$output_processor@_WV?$stream_output_adapter@_W@__crt_stdio_output@@V?$format_validation_base@_WV?$stream_output_adapter@_W@__crt_stdio_output@@@2@@__crt_stdio_output@@AAE_NXZ 100341d4 f i libucrt:output.obj
 0001:000331de       ?type_case_c@?$output_processor@_WV?$stream_output_adapter@_W@__crt_stdio_output@@V?$positional_parameter_base@_WV?$stream_output_adapter@_W@__crt_stdio_output@@@2@@__crt_stdio_output@@AAE_NXZ 100341de f i libucrt:output.obj
 0001:000331e8       ?type_case_c@?$output_processor@_WV?$stream_output_adapter@_W@__crt_stdio_output@@V?$standard_base@_WV?$stream_output_adapter@_W@__crt_stdio_output@@@2@@__crt_stdio_output@@AAE_NXZ 100341e8 f i libucrt:output.obj
 0001:000331f2       ?type_case_c@?$output_processor@_WV?$string_output_adapter@_W@__crt_stdio_output@@V?$format_validation_base@_WV?$string_output_adapter@_W@__crt_stdio_output@@@2@@__crt_stdio_output@@AAE_NXZ 100341f2 f i libucrt:output.obj
 0001:000331fc       ?type_case_c@?$output_processor@_WV?$string_output_adapter@_W@__crt_stdio_output@@V?$positional_parameter_base@_WV?$string_output_adapter@_W@__crt_stdio_output@@@2@@__crt_stdio_output@@AAE_NXZ 100341fc f i libucrt:output.obj
 0001:00033206       ?type_case_c@?$output_processor@_WV?$string_output_adapter@_W@__crt_stdio_output@@V?$standard_base@_WV?$string_output_adapter@_W@__crt_stdio_output@@@2@@__crt_stdio_output@@AAE_NXZ 10034206 f i libucrt:output.obj
 0001:00033210       ?type_case_c_tchar@?$output_processor@DV?$stream_output_adapter@D@__crt_stdio_output@@V?$format_validation_base@DV?$stream_output_adapter@D@__crt_stdio_output@@@2@@__crt_stdio_output@@AAE_ND@Z 10034210 f i libucrt:output.obj
 0001:000332c4       ?type_case_c_tchar@?$output_processor@DV?$stream_output_adapter@D@__crt_stdio_output@@V?$positional_parameter_base@DV?$stream_output_adapter@D@__crt_stdio_output@@@2@@__crt_stdio_output@@AAE_ND@Z 100342c4 f i libucrt:output.obj
 0001:000333b4       ?type_case_c_tchar@?$output_processor@DV?$stream_output_adapter@D@__crt_stdio_output@@V?$standard_base@DV?$stream_output_adapter@D@__crt_stdio_output@@@2@@__crt_stdio_output@@AAE_ND@Z 100343b4 f i libucrt:output.obj
 0001:00033468       ?type_case_c_tchar@?$output_processor@DV?$string_output_adapter@D@__crt_stdio_output@@V?$format_validation_base@DV?$string_output_adapter@D@__crt_stdio_output@@@2@@__crt_stdio_output@@AAE_ND@Z 10034468 f i libucrt:output.obj
 0001:0003351c       ?type_case_c_tchar@?$output_processor@DV?$string_output_adapter@D@__crt_stdio_output@@V?$positional_parameter_base@DV?$string_output_adapter@D@__crt_stdio_output@@@2@@__crt_stdio_output@@AAE_ND@Z 1003451c f i libucrt:output.obj
 0001:0003360c       ?type_case_c_tchar@?$output_processor@DV?$string_output_adapter@D@__crt_stdio_output@@V?$standard_base@DV?$string_output_adapter@D@__crt_stdio_output@@@2@@__crt_stdio_output@@AAE_ND@Z 1003460c f i libucrt:output.obj
 0001:000336c0       ?type_case_c_tchar@?$output_processor@_WV?$stream_output_adapter@_W@__crt_stdio_output@@V?$format_validation_base@_WV?$stream_output_adapter@_W@__crt_stdio_output@@@2@@__crt_stdio_output@@AAE_N_W@Z 100346c0 f i libucrt:output.obj
 0001:0003377e       ?type_case_c_tchar@?$output_processor@_WV?$stream_output_adapter@_W@__crt_stdio_output@@V?$positional_parameter_base@_WV?$stream_output_adapter@_W@__crt_stdio_output@@@2@@__crt_stdio_output@@AAE_N_W@Z 1003477e f i libucrt:output.obj
 0001:00033858       ?type_case_c_tchar@?$output_processor@_WV?$stream_output_adapter@_W@__crt_stdio_output@@V?$standard_base@_WV?$stream_output_adapter@_W@__crt_stdio_output@@@2@@__crt_stdio_output@@AAE_N_W@Z 10034858 f i libucrt:output.obj
 0001:00033916       ?type_case_c_tchar@?$output_processor@_WV?$string_output_adapter@_W@__crt_stdio_output@@V?$format_validation_base@_WV?$string_output_adapter@_W@__crt_stdio_output@@@2@@__crt_stdio_output@@AAE_N_W@Z 10034916 f i libucrt:output.obj
 0001:000339d4       ?type_case_c_tchar@?$output_processor@_WV?$string_output_adapter@_W@__crt_stdio_output@@V?$positional_parameter_base@_WV?$string_output_adapter@_W@__crt_stdio_output@@@2@@__crt_stdio_output@@AAE_N_W@Z 100349d4 f i libucrt:output.obj
 0001:00033aae       ?type_case_c_tchar@?$output_processor@_WV?$string_output_adapter@_W@__crt_stdio_output@@V?$standard_base@_WV?$string_output_adapter@_W@__crt_stdio_output@@@2@@__crt_stdio_output@@AAE_N_W@Z 10034aae f i libucrt:output.obj
 0001:00033b6c       ?type_case_d@?$output_processor@DV?$stream_output_adapter@D@__crt_stdio_output@@V?$format_validation_base@DV?$stream_output_adapter@D@__crt_stdio_output@@@2@@__crt_stdio_output@@AAE_NXZ 10034b6c f i libucrt:output.obj
 0001:00033b7d       ?type_case_d@?$output_processor@DV?$stream_output_adapter@D@__crt_stdio_output@@V?$positional_parameter_base@DV?$stream_output_adapter@D@__crt_stdio_output@@@2@@__crt_stdio_output@@AAE_NXZ 10034b7d f i libucrt:output.obj
 0001:00033b8e       ?type_case_d@?$output_processor@DV?$stream_output_adapter@D@__crt_stdio_output@@V?$standard_base@DV?$stream_output_adapter@D@__crt_stdio_output@@@2@@__crt_stdio_output@@AAE_NXZ 10034b8e f i libucrt:output.obj
 0001:00033b9f       ?type_case_d@?$output_processor@DV?$string_output_adapter@D@__crt_stdio_output@@V?$format_validation_base@DV?$string_output_adapter@D@__crt_stdio_output@@@2@@__crt_stdio_output@@AAE_NXZ 10034b9f f i libucrt:output.obj
 0001:00033bb0       ?type_case_d@?$output_processor@DV?$string_output_adapter@D@__crt_stdio_output@@V?$positional_parameter_base@DV?$string_output_adapter@D@__crt_stdio_output@@@2@@__crt_stdio_output@@AAE_NXZ 10034bb0 f i libucrt:output.obj
 0001:00033bc1       ?type_case_d@?$output_processor@DV?$string_output_adapter@D@__crt_stdio_output@@V?$standard_base@DV?$string_output_adapter@D@__crt_stdio_output@@@2@@__crt_stdio_output@@AAE_NXZ 10034bc1 f i libucrt:output.obj
 0001:00033bd2       ?type_case_d@?$output_processor@_WV?$stream_output_adapter@_W@__crt_stdio_output@@V?$format_validation_base@_WV?$stream_output_adapter@_W@__crt_stdio_output@@@2@@__crt_stdio_output@@AAE_NXZ 10034bd2 f i libucrt:output.obj
 0001:00033be3       ?type_case_d@?$output_processor@_WV?$stream_output_adapter@_W@__crt_stdio_output@@V?$positional_parameter_base@_WV?$stream_output_adapter@_W@__crt_stdio_output@@@2@@__crt_stdio_output@@AAE_NXZ 10034be3 f i libucrt:output.obj
 0001:00033bf4       ?type_case_d@?$output_processor@_WV?$stream_output_adapter@_W@__crt_stdio_output@@V?$standard_base@_WV?$stream_output_adapter@_W@__crt_stdio_output@@@2@@__crt_stdio_output@@AAE_NXZ 10034bf4 f i libucrt:output.obj
 0001:00033c05       ?type_case_d@?$output_processor@_WV?$string_output_adapter@_W@__crt_stdio_output@@V?$format_validation_base@_WV?$string_output_adapter@_W@__crt_stdio_output@@@2@@__crt_stdio_output@@AAE_NXZ 10034c05 f i libucrt:output.obj
 0001:00033c16       ?type_case_d@?$output_processor@_WV?$string_output_adapter@_W@__crt_stdio_output@@V?$positional_parameter_base@_WV?$string_output_adapter@_W@__crt_stdio_output@@@2@@__crt_stdio_output@@AAE_NXZ 10034c16 f i libucrt:output.obj
 0001:00033c27       ?type_case_d@?$output_processor@_WV?$string_output_adapter@_W@__crt_stdio_output@@V?$standard_base@_WV?$string_output_adapter@_W@__crt_stdio_output@@@2@@__crt_stdio_output@@AAE_NXZ 10034c27 f i libucrt:output.obj
 0001:00033c38       ?type_case_integer@?$output_processor@DV?$stream_output_adapter@D@__crt_stdio_output@@V?$format_validation_base@DV?$stream_output_adapter@D@__crt_stdio_output@@@2@@__crt_stdio_output@@AAE_NI_N@Z 10034c38 f i libucrt:output.obj
 0001:00033ddf       ?type_case_integer@?$output_processor@DV?$stream_output_adapter@D@__crt_stdio_output@@V?$positional_parameter_base@DV?$stream_output_adapter@D@__crt_stdio_output@@@2@@__crt_stdio_output@@AAE_NI_N@Z 10034ddf f i libucrt:output.obj
 0001:00033fc2       ?type_case_integer@?$output_processor@DV?$stream_output_adapter@D@__crt_stdio_output@@V?$standard_base@DV?$stream_output_adapter@D@__crt_stdio_output@@@2@@__crt_stdio_output@@AAE_NI_N@Z 10034fc2 f i libucrt:output.obj
 0001:00034169       ?type_case_integer@?$output_processor@DV?$string_output_adapter@D@__crt_stdio_output@@V?$format_validation_base@DV?$string_output_adapter@D@__crt_stdio_output@@@2@@__crt_stdio_output@@AAE_NI_N@Z 10035169 f i libucrt:output.obj
 0001:00034310       ?type_case_integer@?$output_processor@DV?$string_output_adapter@D@__crt_stdio_output@@V?$positional_parameter_base@DV?$string_output_adapter@D@__crt_stdio_output@@@2@@__crt_stdio_output@@AAE_NI_N@Z 10035310 f i libucrt:output.obj
 0001:000344f3       ?type_case_integer@?$output_processor@DV?$string_output_adapter@D@__crt_stdio_output@@V?$standard_base@DV?$string_output_adapter@D@__crt_stdio_output@@@2@@__crt_stdio_output@@AAE_NI_N@Z 100354f3 f i libucrt:output.obj
 0001:0003469a       ?type_case_integer@?$output_processor@_WV?$stream_output_adapter@_W@__crt_stdio_output@@V?$format_validation_base@_WV?$stream_output_adapter@_W@__crt_stdio_output@@@2@@__crt_stdio_output@@AAE_NI_N@Z 1003569a f i libucrt:output.obj
 0001:00034846       ?type_case_integer@?$output_processor@_WV?$stream_output_adapter@_W@__crt_stdio_output@@V?$positional_parameter_base@_WV?$stream_output_adapter@_W@__crt_stdio_output@@@2@@__crt_stdio_output@@AAE_NI_N@Z 10035846 f i libucrt:output.obj
 0001:00034a2e       ?type_case_integer@?$output_processor@_WV?$stream_output_adapter@_W@__crt_stdio_output@@V?$standard_base@_WV?$stream_output_adapter@_W@__crt_stdio_output@@@2@@__crt_stdio_output@@AAE_NI_N@Z 10035a2e f i libucrt:output.obj
 0001:00034bda       ?type_case_integer@?$output_processor@_WV?$string_output_adapter@_W@__crt_stdio_output@@V?$format_validation_base@_WV?$string_output_adapter@_W@__crt_stdio_output@@@2@@__crt_stdio_output@@AAE_NI_N@Z 10035bda f i libucrt:output.obj
 0001:00034d86       ?type_case_integer@?$output_processor@_WV?$string_output_adapter@_W@__crt_stdio_output@@V?$positional_parameter_base@_WV?$string_output_adapter@_W@__crt_stdio_output@@@2@@__crt_stdio_output@@AAE_NI_N@Z 10035d86 f i libucrt:output.obj
 0001:00034f6e       ?type_case_integer@?$output_processor@_WV?$string_output_adapter@_W@__crt_stdio_output@@V?$standard_base@_WV?$string_output_adapter@_W@__crt_stdio_output@@@2@@__crt_stdio_output@@AAE_NI_N@Z 10035f6e f i libucrt:output.obj
 0001:0003511a       ?type_case_n@?$output_processor@DV?$stream_output_adapter@D@__crt_stdio_output@@V?$format_validation_base@DV?$stream_output_adapter@D@__crt_stdio_output@@@2@@__crt_stdio_output@@AAE_NXZ 1003611a f i libucrt:output.obj
 0001:000351ab       ?type_case_n@?$output_processor@DV?$stream_output_adapter@D@__crt_stdio_output@@V?$positional_parameter_base@DV?$stream_output_adapter@D@__crt_stdio_output@@@2@@__crt_stdio_output@@AAE_NXZ 100361ab f i libucrt:output.obj
 0001:0003526a       ?type_case_n@?$output_processor@DV?$stream_output_adapter@D@__crt_stdio_output@@V?$standard_base@DV?$stream_output_adapter@D@__crt_stdio_output@@@2@@__crt_stdio_output@@AAE_NXZ 1003626a f i libucrt:output.obj
 0001:000352fb       ?type_case_n@?$output_processor@DV?$string_output_adapter@D@__crt_stdio_output@@V?$format_validation_base@DV?$string_output_adapter@D@__crt_stdio_output@@@2@@__crt_stdio_output@@AAE_NXZ 100362fb f i libucrt:output.obj
 0001:0003538c       ?type_case_n@?$output_processor@DV?$string_output_adapter@D@__crt_stdio_output@@V?$positional_parameter_base@DV?$string_output_adapter@D@__crt_stdio_output@@@2@@__crt_stdio_output@@AAE_NXZ 1003638c f i libucrt:output.obj
 0001:0003544b       ?type_case_n@?$output_processor@DV?$string_output_adapter@D@__crt_stdio_output@@V?$standard_base@DV?$string_output_adapter@D@__crt_stdio_output@@@2@@__crt_stdio_output@@AAE_NXZ 1003644b f i libucrt:output.obj
 0001:000354dc       ?type_case_n@?$output_processor@_WV?$stream_output_adapter@_W@__crt_stdio_output@@V?$format_validation_base@_WV?$stream_output_adapter@_W@__crt_stdio_output@@@2@@__crt_stdio_output@@AAE_NXZ 100364dc f i libucrt:output.obj
 0001:0003556d       ?type_case_n@?$output_processor@_WV?$stream_output_adapter@_W@__crt_stdio_output@@V?$positional_parameter_base@_WV?$stream_output_adapter@_W@__crt_stdio_output@@@2@@__crt_stdio_output@@AAE_NXZ 1003656d f i libucrt:output.obj
 0001:0003562c       ?type_case_n@?$output_processor@_WV?$stream_output_adapter@_W@__crt_stdio_output@@V?$standard_base@_WV?$stream_output_adapter@_W@__crt_stdio_output@@@2@@__crt_stdio_output@@AAE_NXZ 1003662c f i libucrt:output.obj
 0001:000356bd       ?type_case_n@?$output_processor@_WV?$string_output_adapter@_W@__crt_stdio_output@@V?$format_validation_base@_WV?$string_output_adapter@_W@__crt_stdio_output@@@2@@__crt_stdio_output@@AAE_NXZ 100366bd f i libucrt:output.obj
 0001:0003574e       ?type_case_n@?$output_processor@_WV?$string_output_adapter@_W@__crt_stdio_output@@V?$positional_parameter_base@_WV?$string_output_adapter@_W@__crt_stdio_output@@@2@@__crt_stdio_output@@AAE_NXZ 1003674e f i libucrt:output.obj
 0001:0003580d       ?type_case_n@?$output_processor@_WV?$string_output_adapter@_W@__crt_stdio_output@@V?$standard_base@_WV?$string_output_adapter@_W@__crt_stdio_output@@@2@@__crt_stdio_output@@AAE_NXZ 1003680d f i libucrt:output.obj
 0001:0003589e       ?type_case_o@?$output_processor@DV?$stream_output_adapter@D@__crt_stdio_output@@V?$format_validation_base@DV?$stream_output_adapter@D@__crt_stdio_output@@@2@@__crt_stdio_output@@AAE_NXZ 1003689e f i libucrt:output.obj
 0001:000358c4       ?type_case_o@?$output_processor@DV?$stream_output_adapter@D@__crt_stdio_output@@V?$positional_parameter_base@DV?$stream_output_adapter@D@__crt_stdio_output@@@2@@__crt_stdio_output@@AAE_NXZ 100368c4 f i libucrt:output.obj
 0001:000358ea       ?type_case_o@?$output_processor@DV?$stream_output_adapter@D@__crt_stdio_output@@V?$standard_base@DV?$stream_output_adapter@D@__crt_stdio_output@@@2@@__crt_stdio_output@@AAE_NXZ 100368ea f i libucrt:output.obj
 0001:00035910       ?type_case_o@?$output_processor@DV?$string_output_adapter@D@__crt_stdio_output@@V?$format_validation_base@DV?$string_output_adapter@D@__crt_stdio_output@@@2@@__crt_stdio_output@@AAE_NXZ 10036910 f i libucrt:output.obj
 0001:00035936       ?type_case_o@?$output_processor@DV?$string_output_adapter@D@__crt_stdio_output@@V?$positional_parameter_base@DV?$string_output_adapter@D@__crt_stdio_output@@@2@@__crt_stdio_output@@AAE_NXZ 10036936 f i libucrt:output.obj
 0001:0003595c       ?type_case_o@?$output_processor@DV?$string_output_adapter@D@__crt_stdio_output@@V?$standard_base@DV?$string_output_adapter@D@__crt_stdio_output@@@2@@__crt_stdio_output@@AAE_NXZ 1003695c f i libucrt:output.obj
 0001:00035982       ?type_case_o@?$output_processor@_WV?$stream_output_adapter@_W@__crt_stdio_output@@V?$format_validation_base@_WV?$stream_output_adapter@_W@__crt_stdio_output@@@2@@__crt_stdio_output@@AAE_NXZ 10036982 f i libucrt:output.obj
 0001:000359a8       ?type_case_o@?$output_processor@_WV?$stream_output_adapter@_W@__crt_stdio_output@@V?$positional_parameter_base@_WV?$stream_output_adapter@_W@__crt_stdio_output@@@2@@__crt_stdio_output@@AAE_NXZ 100369a8 f i libucrt:output.obj
 0001:000359ce       ?type_case_o@?$output_processor@_WV?$stream_output_adapter@_W@__crt_stdio_output@@V?$standard_base@_WV?$stream_output_adapter@_W@__crt_stdio_output@@@2@@__crt_stdio_output@@AAE_NXZ 100369ce f i libucrt:output.obj
 0001:000359f4       ?type_case_o@?$output_processor@_WV?$string_output_adapter@_W@__crt_stdio_output@@V?$format_validation_base@_WV?$string_output_adapter@_W@__crt_stdio_output@@@2@@__crt_stdio_output@@AAE_NXZ 100369f4 f i libucrt:output.obj
 0001:00035a1a       ?type_case_o@?$output_processor@_WV?$string_output_adapter@_W@__crt_stdio_output@@V?$positional_parameter_base@_WV?$string_output_adapter@_W@__crt_stdio_output@@@2@@__crt_stdio_output@@AAE_NXZ 10036a1a f i libucrt:output.obj
 0001:00035a40       ?type_case_o@?$output_processor@_WV?$string_output_adapter@_W@__crt_stdio_output@@V?$standard_base@_WV?$string_output_adapter@_W@__crt_stdio_output@@@2@@__crt_stdio_output@@AAE_NXZ 10036a40 f i libucrt:output.obj
 0001:00035a66       ?type_case_p@?$output_processor@DV?$stream_output_adapter@D@__crt_stdio_output@@V?$format_validation_base@DV?$stream_output_adapter@D@__crt_stdio_output@@@2@@__crt_stdio_output@@AAE_NXZ 10036a66 f i libucrt:output.obj
 0001:00035a84       ?type_case_p@?$output_processor@DV?$stream_output_adapter@D@__crt_stdio_output@@V?$positional_parameter_base@DV?$stream_output_adapter@D@__crt_stdio_output@@@2@@__crt_stdio_output@@AAE_NXZ 10036a84 f i libucrt:output.obj
 0001:00035aa2       ?type_case_p@?$output_processor@DV?$stream_output_adapter@D@__crt_stdio_output@@V?$standard_base@DV?$stream_output_adapter@D@__crt_stdio_output@@@2@@__crt_stdio_output@@AAE_NXZ 10036aa2 f i libucrt:output.obj
 0001:00035ac0       ?type_case_p@?$output_processor@DV?$string_output_adapter@D@__crt_stdio_output@@V?$format_validation_base@DV?$string_output_adapter@D@__crt_stdio_output@@@2@@__crt_stdio_output@@AAE_NXZ 10036ac0 f i libucrt:output.obj
 0001:00035ade       ?type_case_p@?$output_processor@DV?$string_output_adapter@D@__crt_stdio_output@@V?$positional_parameter_base@DV?$string_output_adapter@D@__crt_stdio_output@@@2@@__crt_stdio_output@@AAE_NXZ 10036ade f i libucrt:output.obj
 0001:00035afc       ?type_case_p@?$output_processor@DV?$string_output_adapter@D@__crt_stdio_output@@V?$standard_base@DV?$string_output_adapter@D@__crt_stdio_output@@@2@@__crt_stdio_output@@AAE_NXZ 10036afc f i libucrt:output.obj
 0001:00035b1a       ?type_case_p@?$output_processor@_WV?$stream_output_adapter@_W@__crt_stdio_output@@V?$format_validation_base@_WV?$stream_output_adapter@_W@__crt_stdio_output@@@2@@__crt_stdio_output@@AAE_NXZ 10036b1a f i libucrt:output.obj
 0001:00035b38       ?type_case_p@?$output_processor@_WV?$stream_output_adapter@_W@__crt_stdio_output@@V?$positional_parameter_base@_WV?$stream_output_adapter@_W@__crt_stdio_output@@@2@@__crt_stdio_output@@AAE_NXZ 10036b38 f i libucrt:output.obj
 0001:00035b56       ?type_case_p@?$output_processor@_WV?$stream_output_adapter@_W@__crt_stdio_output@@V?$standard_base@_WV?$stream_output_adapter@_W@__crt_stdio_output@@@2@@__crt_stdio_output@@AAE_NXZ 10036b56 f i libucrt:output.obj
 0001:00035b74       ?type_case_p@?$output_processor@_WV?$string_output_adapter@_W@__crt_stdio_output@@V?$format_validation_base@_WV?$string_output_adapter@_W@__crt_stdio_output@@@2@@__crt_stdio_output@@AAE_NXZ 10036b74 f i libucrt:output.obj
 0001:00035b92       ?type_case_p@?$output_processor@_WV?$string_output_adapter@_W@__crt_stdio_output@@V?$positional_parameter_base@_WV?$string_output_adapter@_W@__crt_stdio_output@@@2@@__crt_stdio_output@@AAE_NXZ 10036b92 f i libucrt:output.obj
 0001:00035bb0       ?type_case_p@?$output_processor@_WV?$string_output_adapter@_W@__crt_stdio_output@@V?$standard_base@_WV?$string_output_adapter@_W@__crt_stdio_output@@@2@@__crt_stdio_output@@AAE_NXZ 10036bb0 f i libucrt:output.obj
 0001:00035bce       ?type_case_s@?$output_processor@DV?$stream_output_adapter@D@__crt_stdio_output@@V?$format_validation_base@DV?$stream_output_adapter@D@__crt_stdio_output@@@2@@__crt_stdio_output@@AAE_NXZ 10036bce f i libucrt:output.obj
 0001:00035c5b       ?type_case_s@?$output_processor@DV?$stream_output_adapter@D@__crt_stdio_output@@V?$positional_parameter_base@DV?$stream_output_adapter@D@__crt_stdio_output@@@2@@__crt_stdio_output@@AAE_NXZ 10036c5b f i libucrt:output.obj
 0001:00035cf8       ?type_case_s@?$output_processor@DV?$stream_output_adapter@D@__crt_stdio_output@@V?$standard_base@DV?$stream_output_adapter@D@__crt_stdio_output@@@2@@__crt_stdio_output@@AAE_NXZ 10036cf8 f i libucrt:output.obj
 0001:00035d85       ?type_case_s@?$output_processor@DV?$string_output_adapter@D@__crt_stdio_output@@V?$format_validation_base@DV?$string_output_adapter@D@__crt_stdio_output@@@2@@__crt_stdio_output@@AAE_NXZ 10036d85 f i libucrt:output.obj
 0001:00035e12       ?type_case_s@?$output_processor@DV?$string_output_adapter@D@__crt_stdio_output@@V?$positional_parameter_base@DV?$string_output_adapter@D@__crt_stdio_output@@@2@@__crt_stdio_output@@AAE_NXZ 10036e12 f i libucrt:output.obj
 0001:00035eaf       ?type_case_s@?$output_processor@DV?$string_output_adapter@D@__crt_stdio_output@@V?$standard_base@DV?$string_output_adapter@D@__crt_stdio_output@@@2@@__crt_stdio_output@@AAE_NXZ 10036eaf f i libucrt:output.obj
 0001:00035f3c       ?type_case_s@?$output_processor@_WV?$stream_output_adapter@_W@__crt_stdio_output@@V?$format_validation_base@_WV?$stream_output_adapter@_W@__crt_stdio_output@@@2@@__crt_stdio_output@@AAE_NXZ 10036f3c f i libucrt:output.obj
 0001:00035fcb       ?type_case_s@?$output_processor@_WV?$stream_output_adapter@_W@__crt_stdio_output@@V?$positional_parameter_base@_WV?$stream_output_adapter@_W@__crt_stdio_output@@@2@@__crt_stdio_output@@AAE_NXZ 10036fcb f i libucrt:output.obj
 0001:0003606b       ?type_case_s@?$output_processor@_WV?$stream_output_adapter@_W@__crt_stdio_output@@V?$standard_base@_WV?$stream_output_adapter@_W@__crt_stdio_output@@@2@@__crt_stdio_output@@AAE_NXZ 1003706b f i libucrt:output.obj
 0001:000360fa       ?type_case_s@?$output_processor@_WV?$string_output_adapter@_W@__crt_stdio_output@@V?$format_validation_base@_WV?$string_output_adapter@_W@__crt_stdio_output@@@2@@__crt_stdio_output@@AAE_NXZ 100370fa f i libucrt:output.obj
 0001:00036189       ?type_case_s@?$output_processor@_WV?$string_output_adapter@_W@__crt_stdio_output@@V?$positional_parameter_base@_WV?$string_output_adapter@_W@__crt_stdio_output@@@2@@__crt_stdio_output@@AAE_NXZ 10037189 f i libucrt:output.obj
 0001:00036229       ?type_case_s@?$output_processor@_WV?$string_output_adapter@_W@__crt_stdio_output@@V?$standard_base@_WV?$string_output_adapter@_W@__crt_stdio_output@@@2@@__crt_stdio_output@@AAE_NXZ 10037229 f i libucrt:output.obj
 0001:000362b8       ?type_case_s_compute_narrow_string_length@?$output_processor@DV?$stream_output_adapter@D@__crt_stdio_output@@V?$format_validation_base@DV?$stream_output_adapter@D@__crt_stdio_output@@@2@@__crt_stdio_output@@ABEHHD@Z 100372b8 f i libucrt:output.obj
 0001:000362d3       ?type_case_s_compute_narrow_string_length@?$output_processor@DV?$stream_output_adapter@D@__crt_stdio_output@@V?$positional_parameter_base@DV?$stream_output_adapter@D@__crt_stdio_output@@@2@@__crt_stdio_output@@ABEHHD@Z 100372d3 f i libucrt:output.obj
 0001:000362ee       ?type_case_s_compute_narrow_string_length@?$output_processor@DV?$stream_output_adapter@D@__crt_stdio_output@@V?$standard_base@DV?$stream_output_adapter@D@__crt_stdio_output@@@2@@__crt_stdio_output@@ABEHHD@Z 100372ee f i libucrt:output.obj
 0001:00036309       ?type_case_s_compute_narrow_string_length@?$output_processor@DV?$string_output_adapter@D@__crt_stdio_output@@V?$format_validation_base@DV?$string_output_adapter@D@__crt_stdio_output@@@2@@__crt_stdio_output@@ABEHHD@Z 10037309 f i libucrt:output.obj
 0001:00036324       ?type_case_s_compute_narrow_string_length@?$output_processor@DV?$string_output_adapter@D@__crt_stdio_output@@V?$positional_parameter_base@DV?$string_output_adapter@D@__crt_stdio_output@@@2@@__crt_stdio_output@@ABEHHD@Z 10037324 f i libucrt:output.obj
 0001:0003633f       ?type_case_s_compute_narrow_string_length@?$output_processor@DV?$string_output_adapter@D@__crt_stdio_output@@V?$standard_base@DV?$string_output_adapter@D@__crt_stdio_output@@@2@@__crt_stdio_output@@ABEHHD@Z 1003733f f i libucrt:output.obj
 0001:0003635a       ?type_case_s_compute_narrow_string_length@?$output_processor@_WV?$stream_output_adapter@_W@__crt_stdio_output@@V?$format_validation_base@_WV?$stream_output_adapter@_W@__crt_stdio_output@@@2@@__crt_stdio_output@@ABEHH_W@Z 1003735a f i libucrt:output.obj
 0001:000363a6       ?type_case_s_compute_narrow_string_length@?$output_processor@_WV?$stream_output_adapter@_W@__crt_stdio_output@@V?$positional_parameter_base@_WV?$stream_output_adapter@_W@__crt_stdio_output@@@2@@__crt_stdio_output@@ABEHH_W@Z 100373a6 f i libucrt:output.obj
 0001:000363f2       ?type_case_s_compute_narrow_string_length@?$output_processor@_WV?$stream_output_adapter@_W@__crt_stdio_output@@V?$standard_base@_WV?$stream_output_adapter@_W@__crt_stdio_output@@@2@@__crt_stdio_output@@ABEHH_W@Z 100373f2 f i libucrt:output.obj
 0001:0003643e       ?type_case_s_compute_narrow_string_length@?$output_processor@_WV?$string_output_adapter@_W@__crt_stdio_output@@V?$format_validation_base@_WV?$string_output_adapter@_W@__crt_stdio_output@@@2@@__crt_stdio_output@@ABEHH_W@Z 1003743e f i libucrt:output.obj
 0001:0003648a       ?type_case_s_compute_narrow_string_length@?$output_processor@_WV?$string_output_adapter@_W@__crt_stdio_output@@V?$positional_parameter_base@_WV?$string_output_adapter@_W@__crt_stdio_output@@@2@@__crt_stdio_output@@ABEHH_W@Z 1003748a f i libucrt:output.obj
 0001:000364d6       ?type_case_s_compute_narrow_string_length@?$output_processor@_WV?$string_output_adapter@_W@__crt_stdio_output@@V?$standard_base@_WV?$string_output_adapter@_W@__crt_stdio_output@@@2@@__crt_stdio_output@@ABEHH_W@Z 100374d6 f i libucrt:output.obj
 0001:00036522       ?type_case_u@?$output_processor@DV?$stream_output_adapter@D@__crt_stdio_output@@V?$format_validation_base@DV?$stream_output_adapter@D@__crt_stdio_output@@@2@@__crt_stdio_output@@AAE_NXZ 10037522 f i libucrt:output.obj
 0001:0003652e       ?type_case_u@?$output_processor@DV?$stream_output_adapter@D@__crt_stdio_output@@V?$positional_parameter_base@DV?$stream_output_adapter@D@__crt_stdio_output@@@2@@__crt_stdio_output@@AAE_NXZ 1003752e f i libucrt:output.obj
 0001:0003653a       ?type_case_u@?$output_processor@DV?$stream_output_adapter@D@__crt_stdio_output@@V?$standard_base@DV?$stream_output_adapter@D@__crt_stdio_output@@@2@@__crt_stdio_output@@AAE_NXZ 1003753a f i libucrt:output.obj
 0001:00036546       ?type_case_u@?$output_processor@DV?$string_output_adapter@D@__crt_stdio_output@@V?$format_validation_base@DV?$string_output_adapter@D@__crt_stdio_output@@@2@@__crt_stdio_output@@AAE_NXZ 10037546 f i libucrt:output.obj
 0001:00036552       ?type_case_u@?$output_processor@DV?$string_output_adapter@D@__crt_stdio_output@@V?$positional_parameter_base@DV?$string_output_adapter@D@__crt_stdio_output@@@2@@__crt_stdio_output@@AAE_NXZ 10037552 f i libucrt:output.obj
 0001:0003655e       ?type_case_u@?$output_processor@DV?$string_output_adapter@D@__crt_stdio_output@@V?$standard_base@DV?$string_output_adapter@D@__crt_stdio_output@@@2@@__crt_stdio_output@@AAE_NXZ 1003755e f i libucrt:output.obj
 0001:0003656a       ?type_case_u@?$output_processor@_WV?$stream_output_adapter@_W@__crt_stdio_output@@V?$format_validation_base@_WV?$stream_output_adapter@_W@__crt_stdio_output@@@2@@__crt_stdio_output@@AAE_NXZ 1003756a f i libucrt:output.obj
 0001:00036576       ?type_case_u@?$output_processor@_WV?$stream_output_adapter@_W@__crt_stdio_output@@V?$positional_parameter_base@_WV?$stream_output_adapter@_W@__crt_stdio_output@@@2@@__crt_stdio_output@@AAE_NXZ 10037576 f i libucrt:output.obj
 0001:00036582       ?type_case_u@?$output_processor@_WV?$stream_output_adapter@_W@__crt_stdio_output@@V?$standard_base@_WV?$stream_output_adapter@_W@__crt_stdio_output@@@2@@__crt_stdio_output@@AAE_NXZ 10037582 f i libucrt:output.obj
 0001:0003658e       ?type_case_u@?$output_processor@_WV?$string_output_adapter@_W@__crt_stdio_output@@V?$format_validation_base@_WV?$string_output_adapter@_W@__crt_stdio_output@@@2@@__crt_stdio_output@@AAE_NXZ 1003758e f i libucrt:output.obj
 0001:0003659a       ?type_case_u@?$output_processor@_WV?$string_output_adapter@_W@__crt_stdio_output@@V?$positional_parameter_base@_WV?$string_output_adapter@_W@__crt_stdio_output@@@2@@__crt_stdio_output@@AAE_NXZ 1003759a f i libucrt:output.obj
 0001:000365a6       ?type_case_u@?$output_processor@_WV?$string_output_adapter@_W@__crt_stdio_output@@V?$standard_base@_WV?$string_output_adapter@_W@__crt_stdio_output@@@2@@__crt_stdio_output@@AAE_NXZ 100375a6 f i libucrt:output.obj
 0001:000365b2       ?type_case_x@?$output_processor@DV?$stream_output_adapter@D@__crt_stdio_output@@V?$format_validation_base@DV?$stream_output_adapter@D@__crt_stdio_output@@@2@@__crt_stdio_output@@AAE_NXZ 100375b2 f i libucrt:output.obj
 0001:000365be       ?type_case_x@?$output_processor@DV?$stream_output_adapter@D@__crt_stdio_output@@V?$positional_parameter_base@DV?$stream_output_adapter@D@__crt_stdio_output@@@2@@__crt_stdio_output@@AAE_NXZ 100375be f i libucrt:output.obj
 0001:000365ca       ?type_case_x@?$output_processor@DV?$stream_output_adapter@D@__crt_stdio_output@@V?$standard_base@DV?$stream_output_adapter@D@__crt_stdio_output@@@2@@__crt_stdio_output@@AAE_NXZ 100375ca f i libucrt:output.obj
 0001:000365d6       ?type_case_x@?$output_processor@DV?$string_output_adapter@D@__crt_stdio_output@@V?$format_validation_base@DV?$string_output_adapter@D@__crt_stdio_output@@@2@@__crt_stdio_output@@AAE_NXZ 100375d6 f i libucrt:output.obj
 0001:000365e2       ?type_case_x@?$output_processor@DV?$string_output_adapter@D@__crt_stdio_output@@V?$positional_parameter_base@DV?$string_output_adapter@D@__crt_stdio_output@@@2@@__crt_stdio_output@@AAE_NXZ 100375e2 f i libucrt:output.obj
 0001:000365ee       ?type_case_x@?$output_processor@DV?$string_output_adapter@D@__crt_stdio_output@@V?$standard_base@DV?$string_output_adapter@D@__crt_stdio_output@@@2@@__crt_stdio_output@@AAE_NXZ 100375ee f i libucrt:output.obj
 0001:000365fa       ?type_case_x@?$output_processor@_WV?$stream_output_adapter@_W@__crt_stdio_output@@V?$format_validation_base@_WV?$stream_output_adapter@_W@__crt_stdio_output@@@2@@__crt_stdio_output@@AAE_NXZ 100375fa f i libucrt:output.obj
 0001:00036606       ?type_case_x@?$output_processor@_WV?$stream_output_adapter@_W@__crt_stdio_output@@V?$positional_parameter_base@_WV?$stream_output_adapter@_W@__crt_stdio_output@@@2@@__crt_stdio_output@@AAE_NXZ 10037606 f i libucrt:output.obj
 0001:00036612       ?type_case_x@?$output_processor@_WV?$stream_output_adapter@_W@__crt_stdio_output@@V?$standard_base@_WV?$stream_output_adapter@_W@__crt_stdio_output@@@2@@__crt_stdio_output@@AAE_NXZ 10037612 f i libucrt:output.obj
 0001:0003661e       ?type_case_x@?$output_processor@_WV?$string_output_adapter@_W@__crt_stdio_output@@V?$format_validation_base@_WV?$string_output_adapter@_W@__crt_stdio_output@@@2@@__crt_stdio_output@@AAE_NXZ 1003761e f i libucrt:output.obj
 0001:0003662a       ?type_case_x@?$output_processor@_WV?$string_output_adapter@_W@__crt_stdio_output@@V?$positional_parameter_base@_WV?$string_output_adapter@_W@__crt_stdio_output@@@2@@__crt_stdio_output@@AAE_NXZ 1003762a f i libucrt:output.obj
 0001:00036636       ?type_case_x@?$output_processor@_WV?$string_output_adapter@_W@__crt_stdio_output@@V?$standard_base@_WV?$string_output_adapter@_W@__crt_stdio_output@@@2@@__crt_stdio_output@@AAE_NXZ 10037636 f i libucrt:output.obj
 0001:00036642       ?unset_flag@?$output_processor@DV?$stream_output_adapter@D@__crt_stdio_output@@V?$format_validation_base@DV?$stream_output_adapter@D@__crt_stdio_output@@@2@@__crt_stdio_output@@AAEXI@Z 10037642 f i libucrt:output.obj
 0001:00036657       ?unset_flag@?$output_processor@DV?$stream_output_adapter@D@__crt_stdio_output@@V?$positional_parameter_base@DV?$stream_output_adapter@D@__crt_stdio_output@@@2@@__crt_stdio_output@@AAEXI@Z 10037657 f i libucrt:output.obj
 0001:0003666c       ?unset_flag@?$output_processor@DV?$stream_output_adapter@D@__crt_stdio_output@@V?$standard_base@DV?$stream_output_adapter@D@__crt_stdio_output@@@2@@__crt_stdio_output@@AAEXI@Z 1003766c f i libucrt:output.obj
 0001:00036681       ?unset_flag@?$output_processor@DV?$string_output_adapter@D@__crt_stdio_output@@V?$format_validation_base@DV?$string_output_adapter@D@__crt_stdio_output@@@2@@__crt_stdio_output@@AAEXI@Z 10037681 f i libucrt:output.obj
 0001:00036696       ?unset_flag@?$output_processor@DV?$string_output_adapter@D@__crt_stdio_output@@V?$positional_parameter_base@DV?$string_output_adapter@D@__crt_stdio_output@@@2@@__crt_stdio_output@@AAEXI@Z 10037696 f i libucrt:output.obj
 0001:000366ab       ?unset_flag@?$output_processor@DV?$string_output_adapter@D@__crt_stdio_output@@V?$standard_base@DV?$string_output_adapter@D@__crt_stdio_output@@@2@@__crt_stdio_output@@AAEXI@Z 100376ab f i libucrt:output.obj
 0001:000366c0       ?unset_flag@?$output_processor@_WV?$stream_output_adapter@_W@__crt_stdio_output@@V?$format_validation_base@_WV?$stream_output_adapter@_W@__crt_stdio_output@@@2@@__crt_stdio_output@@AAEXI@Z 100376c0 f i libucrt:output.obj
 0001:000366d5       ?unset_flag@?$output_processor@_WV?$stream_output_adapter@_W@__crt_stdio_output@@V?$positional_parameter_base@_WV?$stream_output_adapter@_W@__crt_stdio_output@@@2@@__crt_stdio_output@@AAEXI@Z 100376d5 f i libucrt:output.obj
 0001:000366ea       ?unset_flag@?$output_processor@_WV?$stream_output_adapter@_W@__crt_stdio_output@@V?$standard_base@_WV?$stream_output_adapter@_W@__crt_stdio_output@@@2@@__crt_stdio_output@@AAEXI@Z 100376ea f i libucrt:output.obj
 0001:000366ff       ?unset_flag@?$output_processor@_WV?$string_output_adapter@_W@__crt_stdio_output@@V?$format_validation_base@_WV?$string_output_adapter@_W@__crt_stdio_output@@@2@@__crt_stdio_output@@AAEXI@Z 100376ff f i libucrt:output.obj
 0001:00036714       ?unset_flag@?$output_processor@_WV?$string_output_adapter@_W@__crt_stdio_output@@V?$positional_parameter_base@_WV?$string_output_adapter@_W@__crt_stdio_output@@@2@@__crt_stdio_output@@AAEXI@Z 10037714 f i libucrt:output.obj
 0001:00036729       ?unset_flag@?$output_processor@_WV?$string_output_adapter@_W@__crt_stdio_output@@V?$standard_base@_WV?$string_output_adapter@_W@__crt_stdio_output@@@2@@__crt_stdio_output@@AAEXI@Z 10037729 f i libucrt:output.obj
 0001:0003673e       ?update_field_width@?$positional_parameter_base@DV?$stream_output_adapter@D@__crt_stdio_output@@@__crt_stdio_output@@IAE_NXZ 1003773e f i libucrt:output.obj
 0001:00036821       ?update_field_width@?$positional_parameter_base@DV?$string_output_adapter@D@__crt_stdio_output@@@__crt_stdio_output@@IAE_NXZ 10037821 f i libucrt:output.obj
 0001:00036904       ?update_field_width@?$positional_parameter_base@_WV?$stream_output_adapter@_W@__crt_stdio_output@@@__crt_stdio_output@@IAE_NXZ 10037904 f i libucrt:output.obj
 0001:000369e8       ?update_field_width@?$positional_parameter_base@_WV?$string_output_adapter@_W@__crt_stdio_output@@@__crt_stdio_output@@IAE_NXZ 100379e8 f i libucrt:output.obj
 0001:00036acc       ?update_field_width@?$standard_base@DV?$stream_output_adapter@D@__crt_stdio_output@@@__crt_stdio_output@@IAE_NXZ 10037acc f i libucrt:output.obj
 0001:00036ae0       ?update_field_width@?$standard_base@DV?$string_output_adapter@D@__crt_stdio_output@@@__crt_stdio_output@@IAE_NXZ 10037ae0 f i libucrt:output.obj
 0001:00036af4       ?update_field_width@?$standard_base@_WV?$stream_output_adapter@_W@__crt_stdio_output@@@__crt_stdio_output@@IAE_NXZ 10037af4 f i libucrt:output.obj
 0001:00036b08       ?update_field_width@?$standard_base@_WV?$string_output_adapter@_W@__crt_stdio_output@@@__crt_stdio_output@@IAE_NXZ 10037b08 f i libucrt:output.obj
 0001:00036b1c       ?update_precision@?$positional_parameter_base@DV?$stream_output_adapter@D@__crt_stdio_output@@@__crt_stdio_output@@IAE_NXZ 10037b1c f i libucrt:output.obj
 0001:00036bff       ?update_precision@?$positional_parameter_base@DV?$string_output_adapter@D@__crt_stdio_output@@@__crt_stdio_output@@IAE_NXZ 10037bff f i libucrt:output.obj
 0001:00036ce2       ?update_precision@?$positional_parameter_base@_WV?$stream_output_adapter@_W@__crt_stdio_output@@@__crt_stdio_output@@IAE_NXZ 10037ce2 f i libucrt:output.obj
 0001:00036dc6       ?update_precision@?$positional_parameter_base@_WV?$string_output_adapter@_W@__crt_stdio_output@@@__crt_stdio_output@@IAE_NXZ 10037dc6 f i libucrt:output.obj
 0001:00036eaa       ?update_precision@?$standard_base@DV?$stream_output_adapter@D@__crt_stdio_output@@@__crt_stdio_output@@IAE_NXZ 10037eaa f i libucrt:output.obj
 0001:00036ebe       ?update_precision@?$standard_base@DV?$string_output_adapter@D@__crt_stdio_output@@@__crt_stdio_output@@IAE_NXZ 10037ebe f i libucrt:output.obj
 0001:00036ed2       ?update_precision@?$standard_base@_WV?$stream_output_adapter@_W@__crt_stdio_output@@@__crt_stdio_output@@IAE_NXZ 10037ed2 f i libucrt:output.obj
 0001:00036ee6       ?update_precision@?$standard_base@_WV?$string_output_adapter@_W@__crt_stdio_output@@@__crt_stdio_output@@IAE_NXZ 10037ee6 f i libucrt:output.obj
 0001:00036efa       ?valid@__crt_stdio_stream@@QBE_NXZ 10037efa f i libucrt:output.obj
 0001:00036f01       ?validate@?$stream_output_adapter@D@__crt_stdio_output@@QBE_NXZ 10037f01 f i libucrt:output.obj
 0001:00036f2a       ?validate@?$stream_output_adapter@_W@__crt_stdio_output@@QBE_NXZ 10037f2a f i libucrt:output.obj
 0001:00036f4b       ?validate@?$string_output_adapter@D@__crt_stdio_output@@QBE_NXZ 10037f4b f i libucrt:output.obj
 0001:00036f6c       ?validate@?$string_output_adapter@_W@__crt_stdio_output@@QBE_NXZ 10037f6c f i libucrt:output.obj
 0001:00036f8d       ?validate_and_store_parameter_data@?$positional_parameter_base@DV?$stream_output_adapter@D@__crt_stdio_output@@@__crt_stdio_output@@AAE_NAAUparameter_data@12@W4parameter_type@12@DW4length_modifier@2@@Z 10037f8d f i libucrt:output.obj
 0001:00036fea       ?validate_and_store_parameter_data@?$positional_parameter_base@DV?$string_output_adapter@D@__crt_stdio_output@@@__crt_stdio_output@@AAE_NAAUparameter_data@12@W4parameter_type@12@DW4length_modifier@2@@Z 10037fea f i libucrt:output.obj
 0001:00037047       ?validate_and_store_parameter_data@?$positional_parameter_base@_WV?$stream_output_adapter@_W@__crt_stdio_output@@@__crt_stdio_output@@AAE_NAAUparameter_data@12@W4parameter_type@12@_WW4length_modifier@2@@Z 10038047 f i libucrt:output.obj
 0001:000370a7       ?validate_and_store_parameter_data@?$positional_parameter_base@_WV?$string_output_adapter@_W@__crt_stdio_output@@@__crt_stdio_output@@AAE_NAAUparameter_data@12@W4parameter_type@12@_WW4length_modifier@2@@Z 100380a7 f i libucrt:output.obj
 0001:00037107       ?validate_and_update_state_at_beginning_of_format_character@?$positional_parameter_base@DV?$stream_output_adapter@D@__crt_stdio_output@@@__crt_stdio_output@@IAE_NXZ 10038107 f i libucrt:output.obj
 0001:0003723f       ?validate_and_update_state_at_beginning_of_format_character@?$positional_parameter_base@DV?$string_output_adapter@D@__crt_stdio_output@@@__crt_stdio_output@@IAE_NXZ 1003823f f i libucrt:output.obj
 0001:00037377       ?validate_and_update_state_at_beginning_of_format_character@?$positional_parameter_base@_WV?$stream_output_adapter@_W@__crt_stdio_output@@@__crt_stdio_output@@IAE_NXZ 10038377 f i libucrt:output.obj
 0001:000374ba       ?validate_and_update_state_at_beginning_of_format_character@?$positional_parameter_base@_WV?$string_output_adapter@_W@__crt_stdio_output@@@__crt_stdio_output@@IAE_NXZ 100384ba f i libucrt:output.obj
 0001:000375fd       ?validate_and_update_state_at_beginning_of_format_character@?$standard_base@DV?$stream_output_adapter@D@__crt_stdio_output@@@__crt_stdio_output@@IAE_NXZ 100385fd f i libucrt:output.obj
 0001:00037600       ?validate_and_update_state_at_beginning_of_format_character@?$standard_base@DV?$string_output_adapter@D@__crt_stdio_output@@@__crt_stdio_output@@IAE_NXZ 10038600 f i libucrt:output.obj
 0001:00037603       ?validate_and_update_state_at_beginning_of_format_character@?$standard_base@_WV?$stream_output_adapter@_W@__crt_stdio_output@@@__crt_stdio_output@@IAE_NXZ 10038603 f i libucrt:output.obj
 0001:00037606       ?validate_and_update_state_at_beginning_of_format_character@?$standard_base@_WV?$string_output_adapter@_W@__crt_stdio_output@@@__crt_stdio_output@@IAE_NXZ 10038606 f i libucrt:output.obj
 0001:00037609       ?validate_and_update_state_at_end_of_format_string@?$format_validation_base@DV?$stream_output_adapter@D@__crt_stdio_output@@@__crt_stdio_output@@IBE_NXZ 10038609 f i libucrt:output.obj
 0001:00037633       ?validate_and_update_state_at_end_of_format_string@?$format_validation_base@DV?$string_output_adapter@D@__crt_stdio_output@@@__crt_stdio_output@@IBE_NXZ 10038633 f i libucrt:output.obj
 0001:0003765d       ?validate_and_update_state_at_end_of_format_string@?$format_validation_base@_WV?$stream_output_adapter@_W@__crt_stdio_output@@@__crt_stdio_output@@IBE_NXZ 1003865d f i libucrt:output.obj
 0001:00037687       ?validate_and_update_state_at_end_of_format_string@?$format_validation_base@_WV?$string_output_adapter@_W@__crt_stdio_output@@@__crt_stdio_output@@IBE_NXZ 10038687 f i libucrt:output.obj
 0001:000376b1       ?validate_and_update_state_at_end_of_format_string@?$positional_parameter_base@DV?$stream_output_adapter@D@__crt_stdio_output@@@__crt_stdio_output@@IAE_NXZ 100386b1 f i libucrt:output.obj
 0001:00037757       ?validate_and_update_state_at_end_of_format_string@?$positional_parameter_base@DV?$string_output_adapter@D@__crt_stdio_output@@@__crt_stdio_output@@IAE_NXZ 10038757 f i libucrt:output.obj
 0001:000377fd       ?validate_and_update_state_at_end_of_format_string@?$positional_parameter_base@_WV?$stream_output_adapter@_W@__crt_stdio_output@@@__crt_stdio_output@@IAE_NXZ 100387fd f i libucrt:output.obj
 0001:000378a3       ?validate_and_update_state_at_end_of_format_string@?$positional_parameter_base@_WV?$string_output_adapter@_W@__crt_stdio_output@@@__crt_stdio_output@@IAE_NXZ 100388a3 f i libucrt:output.obj
 0001:00037949       ?validate_and_update_state_at_end_of_format_string@?$standard_base@DV?$stream_output_adapter@D@__crt_stdio_output@@@__crt_stdio_output@@IBE_NXZ 10038949 f i libucrt:output.obj
 0001:0003794c       ?validate_and_update_state_at_end_of_format_string@?$standard_base@DV?$string_output_adapter@D@__crt_stdio_output@@@__crt_stdio_output@@IBE_NXZ 1003894c f i libucrt:output.obj
 0001:0003794f       ?validate_and_update_state_at_end_of_format_string@?$standard_base@_WV?$stream_output_adapter@_W@__crt_stdio_output@@@__crt_stdio_output@@IBE_NXZ 1003894f f i libucrt:output.obj
 0001:00037952       ?validate_and_update_state_at_end_of_format_string@?$standard_base@_WV?$string_output_adapter@_W@__crt_stdio_output@@@__crt_stdio_output@@IBE_NXZ 10038952 f i libucrt:output.obj
 0001:00037955       ?validate_state_for_type_case_a@?$positional_parameter_base@DV?$stream_output_adapter@D@__crt_stdio_output@@@__crt_stdio_output@@IAE_NXZ 10038955 f i libucrt:output.obj
 0001:000379b7       ?validate_state_for_type_case_a@?$positional_parameter_base@DV?$string_output_adapter@D@__crt_stdio_output@@@__crt_stdio_output@@IAE_NXZ 100389b7 f i libucrt:output.obj
 0001:00037a19       ?validate_state_for_type_case_a@?$positional_parameter_base@_WV?$stream_output_adapter@_W@__crt_stdio_output@@@__crt_stdio_output@@IAE_NXZ 10038a19 f i libucrt:output.obj
 0001:00037a7b       ?validate_state_for_type_case_a@?$positional_parameter_base@_WV?$string_output_adapter@_W@__crt_stdio_output@@@__crt_stdio_output@@IAE_NXZ 10038a7b f i libucrt:output.obj
 0001:00037add       ?validate_state_for_type_case_a@?$standard_base@DV?$stream_output_adapter@D@__crt_stdio_output@@@__crt_stdio_output@@IBE_NXZ 10038add f i libucrt:output.obj
 0001:00037ae0       ?validate_state_for_type_case_a@?$standard_base@DV?$string_output_adapter@D@__crt_stdio_output@@@__crt_stdio_output@@IBE_NXZ 10038ae0 f i libucrt:output.obj
 0001:00037ae3       ?validate_state_for_type_case_a@?$standard_base@_WV?$stream_output_adapter@_W@__crt_stdio_output@@@__crt_stdio_output@@IBE_NXZ 10038ae3 f i libucrt:output.obj
 0001:00037ae6       ?validate_state_for_type_case_a@?$standard_base@_WV?$string_output_adapter@_W@__crt_stdio_output@@@__crt_stdio_output@@IBE_NXZ 10038ae6 f i libucrt:output.obj
 0001:00037ae9       ?validate_stream_is_ansi_if_required@?$__acrt_stdio_char_traits@D@@SA_NQAU_iobuf@@@Z 10038ae9 f i libucrt:output.obj
 0001:00037b90       ?validate_stream_is_ansi_if_required@?$__acrt_stdio_char_traits@_W@@SA_NQAU_iobuf@@@Z 10038b90 f i libucrt:output.obj
 0001:00037b93       ?wide_null_string@?$output_processor@DV?$stream_output_adapter@D@__crt_stdio_output@@V?$format_validation_base@DV?$stream_output_adapter@D@__crt_stdio_output@@@2@@__crt_stdio_output@@CAPA_WXZ 10038b93 f i libucrt:output.obj
 0001:00037b99       ?wide_null_string@?$output_processor@DV?$stream_output_adapter@D@__crt_stdio_output@@V?$positional_parameter_base@DV?$stream_output_adapter@D@__crt_stdio_output@@@2@@__crt_stdio_output@@CAPA_WXZ 10038b99 f i libucrt:output.obj
 0001:00037b9f       ?wide_null_string@?$output_processor@DV?$stream_output_adapter@D@__crt_stdio_output@@V?$standard_base@DV?$stream_output_adapter@D@__crt_stdio_output@@@2@@__crt_stdio_output@@CAPA_WXZ 10038b9f f i libucrt:output.obj
 0001:00037ba5       ?wide_null_string@?$output_processor@DV?$string_output_adapter@D@__crt_stdio_output@@V?$format_validation_base@DV?$string_output_adapter@D@__crt_stdio_output@@@2@@__crt_stdio_output@@CAPA_WXZ 10038ba5 f i libucrt:output.obj
 0001:00037bab       ?wide_null_string@?$output_processor@DV?$string_output_adapter@D@__crt_stdio_output@@V?$positional_parameter_base@DV?$string_output_adapter@D@__crt_stdio_output@@@2@@__crt_stdio_output@@CAPA_WXZ 10038bab f i libucrt:output.obj
 0001:00037bb1       ?wide_null_string@?$output_processor@DV?$string_output_adapter@D@__crt_stdio_output@@V?$standard_base@DV?$string_output_adapter@D@__crt_stdio_output@@@2@@__crt_stdio_output@@CAPA_WXZ 10038bb1 f i libucrt:output.obj
 0001:00037bb7       ?wide_null_string@?$output_processor@_WV?$stream_output_adapter@_W@__crt_stdio_output@@V?$format_validation_base@_WV?$stream_output_adapter@_W@__crt_stdio_output@@@2@@__crt_stdio_output@@CAPA_WXZ 10038bb7 f i libucrt:output.obj
 0001:00037bbd       ?wide_null_string@?$output_processor@_WV?$stream_output_adapter@_W@__crt_stdio_output@@V?$positional_parameter_base@_WV?$stream_output_adapter@_W@__crt_stdio_output@@@2@@__crt_stdio_output@@CAPA_WXZ 10038bbd f i libucrt:output.obj
 0001:00037bc3       ?wide_null_string@?$output_processor@_WV?$stream_output_adapter@_W@__crt_stdio_output@@V?$standard_base@_WV?$stream_output_adapter@_W@__crt_stdio_output@@@2@@__crt_stdio_output@@CAPA_WXZ 10038bc3 f i libucrt:output.obj
 0001:00037bc9       ?wide_null_string@?$output_processor@_WV?$string_output_adapter@_W@__crt_stdio_output@@V?$format_validation_base@_WV?$string_output_adapter@_W@__crt_stdio_output@@@2@@__crt_stdio_output@@CAPA_WXZ 10038bc9 f i libucrt:output.obj
 0001:00037bcf       ?wide_null_string@?$output_processor@_WV?$string_output_adapter@_W@__crt_stdio_output@@V?$positional_parameter_base@_WV?$string_output_adapter@_W@__crt_stdio_output@@@2@@__crt_stdio_output@@CAPA_WXZ 10038bcf f i libucrt:output.obj
 0001:00037bd5       ?wide_null_string@?$output_processor@_WV?$string_output_adapter@_W@__crt_stdio_output@@V?$standard_base@_WV?$string_output_adapter@_W@__crt_stdio_output@@@2@@__crt_stdio_output@@CAPA_WXZ 10038bd5 f i libucrt:output.obj
 0001:00037bdb       ?write_character@?$output_adapter_common@DV?$stream_output_adapter@D@__crt_stdio_output@@@__crt_stdio_output@@QBEXDQAH@Z 10038bdb f i libucrt:output.obj
 0001:00037c01       ?write_character@?$output_adapter_common@_WV?$stream_output_adapter@_W@__crt_stdio_output@@@__crt_stdio_output@@QBEX_WQAH@Z 10038c01 f i libucrt:output.obj
 0001:00037c27       ?write_character@?$string_output_adapter@D@__crt_stdio_output@@QBE_NDQAH@Z 10038c27 f i libucrt:output.obj
 0001:00037c79       ?write_character@?$string_output_adapter@_W@__crt_stdio_output@@QBE_N_WQAH@Z 10038c79 f i libucrt:output.obj
 0001:00037ccf       ?write_character_without_count_update@?$stream_output_adapter@D@__crt_stdio_output@@QBE_ND@Z 10038ccf f i libucrt:output.obj
 0001:00037d11       ?write_character_without_count_update@?$stream_output_adapter@_W@__crt_stdio_output@@QBE_N_W@Z 10038d11 f i libucrt:output.obj
 0001:00037d57       ?write_stored_string_tchar@?$output_processor@DV?$stream_output_adapter@D@__crt_stdio_output@@V?$format_validation_base@DV?$stream_output_adapter@D@__crt_stdio_output@@@2@@__crt_stdio_output@@AAE_ND@Z 10038d57 f i libucrt:output.obj
 0001:00037e2a       ?write_stored_string_tchar@?$output_processor@DV?$stream_output_adapter@D@__crt_stdio_output@@V?$positional_parameter_base@DV?$stream_output_adapter@D@__crt_stdio_output@@@2@@__crt_stdio_output@@AAE_ND@Z 10038e2a f i libucrt:output.obj
 0001:00037efd       ?write_stored_string_tchar@?$output_processor@DV?$stream_output_adapter@D@__crt_stdio_output@@V?$standard_base@DV?$stream_output_adapter@D@__crt_stdio_output@@@2@@__crt_stdio_output@@AAE_ND@Z 10038efd f i libucrt:output.obj
 0001:00037fd0       ?write_stored_string_tchar@?$output_processor@DV?$string_output_adapter@D@__crt_stdio_output@@V?$format_validation_base@DV?$string_output_adapter@D@__crt_stdio_output@@@2@@__crt_stdio_output@@AAE_ND@Z 10038fd0 f i libucrt:output.obj
 0001:000380a3       ?write_stored_string_tchar@?$output_processor@DV?$string_output_adapter@D@__crt_stdio_output@@V?$positional_parameter_base@DV?$string_output_adapter@D@__crt_stdio_output@@@2@@__crt_stdio_output@@AAE_ND@Z 100390a3 f i libucrt:output.obj
 0001:00038176       ?write_stored_string_tchar@?$output_processor@DV?$string_output_adapter@D@__crt_stdio_output@@V?$standard_base@DV?$string_output_adapter@D@__crt_stdio_output@@@2@@__crt_stdio_output@@AAE_ND@Z 10039176 f i libucrt:output.obj
 0001:00038249       ?write_stored_string_tchar@?$output_processor@_WV?$stream_output_adapter@_W@__crt_stdio_output@@V?$format_validation_base@_WV?$stream_output_adapter@_W@__crt_stdio_output@@@2@@__crt_stdio_output@@AAE_N_W@Z 10039249 f i libucrt:output.obj
 0001:00038303       ?write_stored_string_tchar@?$output_processor@_WV?$stream_output_adapter@_W@__crt_stdio_output@@V?$positional_parameter_base@_WV?$stream_output_adapter@_W@__crt_stdio_output@@@2@@__crt_stdio_output@@AAE_N_W@Z 10039303 f i libucrt:output.obj
 0001:000383bd       ?write_stored_string_tchar@?$output_processor@_WV?$stream_output_adapter@_W@__crt_stdio_output@@V?$standard_base@_WV?$stream_output_adapter@_W@__crt_stdio_output@@@2@@__crt_stdio_output@@AAE_N_W@Z 100393bd f i libucrt:output.obj
 0001:00038477       ?write_stored_string_tchar@?$output_processor@_WV?$string_output_adapter@_W@__crt_stdio_output@@V?$format_validation_base@_WV?$string_output_adapter@_W@__crt_stdio_output@@@2@@__crt_stdio_output@@AAE_N_W@Z 10039477 f i libucrt:output.obj
 0001:00038531       ?write_stored_string_tchar@?$output_processor@_WV?$string_output_adapter@_W@__crt_stdio_output@@V?$positional_parameter_base@_WV?$string_output_adapter@_W@__crt_stdio_output@@@2@@__crt_stdio_output@@AAE_N_W@Z 10039531 f i libucrt:output.obj
 0001:000385eb       ?write_stored_string_tchar@?$output_processor@_WV?$string_output_adapter@_W@__crt_stdio_output@@V?$standard_base@_WV?$string_output_adapter@_W@__crt_stdio_output@@@2@@__crt_stdio_output@@AAE_N_W@Z 100395eb f i libucrt:output.obj
 0001:000386a5       ?write_string@?$stream_output_adapter@D@__crt_stdio_output@@QBEXQBDHQAHAAV__crt_deferred_errno_cache@@@Z 100396a5 f i libucrt:output.obj
 0001:000386da       ?write_string@?$stream_output_adapter@_W@__crt_stdio_output@@QBEXQB_WHQAHAAV__crt_deferred_errno_cache@@@Z 100396da f i libucrt:output.obj
 0001:0003870f       ?write_string@?$string_output_adapter@D@__crt_stdio_output@@QBEXQBDHQAHAAV__crt_deferred_errno_cache@@@Z 1003970f f i libucrt:output.obj
 0001:0003878f       ?write_string@?$string_output_adapter@_W@__crt_stdio_output@@QBEXQB_WHQAHAAV__crt_deferred_errno_cache@@@Z 1003978f f i libucrt:output.obj
 0001:0003881e       ?write_string_impl@?$output_adapter_common@DV?$stream_output_adapter@D@__crt_stdio_output@@@__crt_stdio_output@@IBEXQBDHQAHAAV__crt_deferred_errno_cache@@@Z 1003981e f i libucrt:output.obj
 0001:000388e6       ?write_string_impl@?$output_adapter_common@_WV?$stream_output_adapter@_W@__crt_stdio_output@@@__crt_stdio_output@@IBEXQB_WHQAHAAV__crt_deferred_errno_cache@@@Z 100398e6 f i libucrt:output.obj
 0001:000389b1       ___acrt_isleadbyte_l_noupdate 100399b1 f i libucrt:output.obj
 0001:000389d2       ___acrt_locale_changed     100399d2 f i libucrt:output.obj
 0001:000389df       ___stdio_common_vfprintf   100399df f   libucrt:output.obj
 0001:00038a85       ___stdio_common_vfprintf_p 10039a85 f   libucrt:output.obj
 0001:00038b2b       ___stdio_common_vfprintf_s 10039b2b f   libucrt:output.obj
 0001:00038bd1       ___stdio_common_vfwprintf  10039bd1 f   libucrt:output.obj
 0001:00038c77       ___stdio_common_vfwprintf_p 10039c77 f   libucrt:output.obj
 0001:00038d1d       ___stdio_common_vfwprintf_s 10039d1d f   libucrt:output.obj
 0001:00038dc3       ___stdio_common_vsnprintf_s 10039dc3 f   libucrt:output.obj
 0001:00038df3       ___stdio_common_vsnwprintf_s 10039df3 f   libucrt:output.obj
 0001:00038e23       ___stdio_common_vsprintf   10039e23 f   libucrt:output.obj
 0001:00038e50       ___stdio_common_vsprintf_p 10039e50 f   libucrt:output.obj
 0001:00038e7d       ___stdio_common_vsprintf_s 10039e7d f   libucrt:output.obj
 0001:00038eaa       ___stdio_common_vswprintf  10039eaa f   libucrt:output.obj
 0001:00038ed7       ___stdio_common_vswprintf_p 10039ed7 f   libucrt:output.obj
 0001:00038f04       ___stdio_common_vswprintf_s 10039f04 f   libucrt:output.obj
 0001:00038f31       _calloc                    10039f31 f   libucrt:calloc.obj
 0001:00038f3e       _free                      10039f3e f   libucrt:free.obj
 0001:00038f62       _realloc                   10039f62 f   libucrt:realloc.obj
 0001:00038f6f       ??$?B$$A6GXPAXK0@Z@__crt_fast_encoded_nullptr_t@@QBEP6GXPAXK0@ZXZ 10039f6f f i libucrt:exit.obj
 0001:00039012       ??$__crt_fast_decode_pointer@P6GXPAXK0@Z@@YAP6GXPAXK0@ZQ6GX0K0@Z@Z 1003a012 f i libucrt:exit.obj
 0001:0003902d       ??$__crt_fast_encode_pointer@P6GXPAXK0@Z@@YAP6GXPAXK0@ZQ6GX0K0@Z@Z 1003a02d f i libucrt:exit.obj
 0001:00039053       ??$__crt_get_proc_address@P6GXI@Z@@YAP6GXI@ZQAUHINSTANCE__@@QBD@Z 1003a053 f i libucrt:exit.obj
 0001:000390b9       ??0?$__crt_unique_handle_t@U__crt_hmodule_traits@@@@QAE@QAUHINSTANCE__@@@Z 1003a0b9 f i libucrt:exit.obj
 0001:000390cd       ??1?$__crt_unique_handle_t@U__crt_hmodule_traits@@@@QAE@XZ 1003a0cd f i libucrt:exit.obj
 0001:00039212       ?__acrt_select_exit_lock@@YA?AW4__acrt_lock_id@@XZ 1003a212 f i libucrt:exit.obj
 0001:0003922d       ?close@?$__crt_unique_handle_t@U__crt_hmodule_traits@@@@QAEXXZ 1003a22d f i libucrt:exit.obj
 0001:00039249       ?close@__crt_hmodule_traits@@SA_NPAUHINSTANCE__@@@Z 1003a249 f i libucrt:exit.obj
 0001:00039334       ?get@?$__crt_unique_handle_t@U__crt_hmodule_traits@@@@QBEPAUHINSTANCE__@@XZ 1003a334 f i libucrt:exit.obj
 0001:00039337       ?get_address_of@?$__crt_unique_handle_t@U__crt_hmodule_traits@@@@QAEPAPAUHINSTANCE__@@XZ 1003a337 f i libucrt:exit.obj
 0001:0003933a       ?get_invalid_value@__crt_hmodule_traits@@SAPAUHINSTANCE__@@XZ 1003a33a f i libucrt:exit.obj
 0001:0003943b       __Exit                     1003a43b f   libucrt:exit.obj
 0001:00039456       ___acrt_initialize_thread_local_exit_callback 1003a456 f   libucrt:exit.obj
 0001:00039468       __c_exit                   1003a468 f   libucrt:exit.obj
 0001:0003947a       __cexit                    1003a47a f   libucrt:exit.obj
 0001:0003948c       __exit                     1003a48c f   libucrt:exit.obj
 0001:000394a7       __is_c_termination_complete 1003a4a7 f   libucrt:exit.obj
 0001:000394ad       __register_thread_local_exe_atexit_callback 1003a4ad f   libucrt:exit.obj
 0001:000394f3       _exit                      1003a4f3 f   libucrt:exit.obj
 0001:0003950e       _quick_exit                1003a50e f   libucrt:exit.obj
 0001:00039530       _strncat                   1003a530 f   libucrt:strncat.obj
 0001:000396c0       _strncpy                   1003a6c0 f   libucrt:strncpy.obj
 0001:0003982d       ?is_in_use@__crt_stdio_stream@@QBE_NXZ 1003a82d f i libucrt:fclose.obj
 0001:0003983a       __fclose_nolock            1003a83a f   libucrt:fclose.obj
 0001:000398cd       _fclose                    1003a8cd f   libucrt:fclose.obj
 0001:00039bc3       ??$open_file@ABQBDABQBDABHPAU_iobuf@@@?$__crt_char_traits@D@@SAPAU_iobuf@@ABQBD0ABH$$QAPAU1@@Z 1003abc3 f i libucrt:fopen.obj
 0001:00039bee       ??$open_file@ABQB_WABQB_WABHPAU_iobuf@@@?$__crt_char_traits@_W@@SAPAU_iobuf@@ABQB_W0ABH$$QAPAU1@@Z 1003abee f i libucrt:fopen.obj
 0001:00039c19       ?unlock@__crt_stdio_stream@@QBEXXZ 1003ac19 f i libucrt:fopen.obj
 0001:00039c24       __fsopen                   1003ac24 f   libucrt:fopen.obj
 0001:00039c31       __wfopen                   1003ac31 f   libucrt:fopen.obj
 0001:00039c4d       __wfopen_s                 1003ac4d f   libucrt:fopen.obj
 0001:00039ca5       __wfsopen                  1003aca5 f   libucrt:fopen.obj
 0001:00039cb2       _fopen                     1003acb2 f   libucrt:fopen.obj
 0001:00039cce       _fopen_s                   1003acce f   libucrt:fopen.obj
 0001:00039d26       ?__acrt_stdio_reset_buffer@@YAXV__crt_stdio_stream@@@Z 1003ad26 f i libucrt:fread.obj
 0001:00039d41       ?has_any_buffer@__crt_stdio_stream@@QBE_NXZ 1003ad41 f i libucrt:fread.obj
 0001:00039d52       ?has_any_of@__crt_stdio_stream@@QBE_NJ@Z 1003ad52 f i libucrt:fread.obj
 0001:00039d6b       ?set_flags@__crt_stdio_stream@@QBE_NJ@Z 1003ad6b f i libucrt:fread.obj
 0001:00039d98       __fread_nolock             1003ad98 f   libucrt:fread.obj
 0001:00039dbc       __fread_nolock_s           1003adbc f   libucrt:fread.obj
 0001:0003a00b       _fread                     1003b00b f   libucrt:fread.obj
 0001:0003a02f       _fread_s                   1003b02f f   libucrt:fread.obj
 0001:0003a2e0       ?has_big_buffer@__crt_stdio_stream@@QBE_NXZ 1003b2e0 f i libucrt:fwrite.obj
 0001:0003a2ed       __fwrite_nolock            1003b2ed f   libucrt:fwrite.obj
 0001:0003a4c6       _fwrite                    1003b4c6 f   libucrt:fwrite.obj
 0001:0003a5e9       ??$__acrt_mbs_to_wcs_cp@U__crt_win32_buffer_internal_dynamic_resizing@@@@YAHQBDAAV?$__crt_win32_buffer@_WU__crt_win32_buffer_internal_dynamic_resizing@@@@I@Z 1003b5e9 f i libucrt:unlink.obj
 0001:0003a60f       ??0?$__crt_win32_buffer@_WU__crt_win32_buffer_internal_dynamic_resizing@@@@QAE@XZ 1003b60f f i libucrt:unlink.obj
 0001:0003a62a       ??1?$__crt_win32_buffer@_WU__crt_win32_buffer_internal_dynamic_resizing@@@@QAE@XZ 1003b62a f i libucrt:unlink.obj
 0001:0003a658       ?__acrt_get_utf8_acp_compatibility_codepage@@YAIXZ 1003b658 f i libucrt:unlink.obj
 0001:0003a6a9       ?_deallocate@?$__crt_win32_buffer@_WU__crt_win32_buffer_internal_dynamic_resizing@@@@AAEXXZ 1003b6a9 f i libucrt:unlink.obj
 0001:0003a6c9       ?allocate@?$__crt_win32_buffer@_WU__crt_win32_buffer_internal_dynamic_resizing@@@@QAEHI@Z 1003b6c9 f i libucrt:unlink.obj
 0001:0003a717       ?allocate@__crt_win32_buffer_internal_dynamic_resizing@@SAHQAPAXIABV__crt_win32_buffer_empty_debug_info@@@Z 1003b717 f i libucrt:unlink.obj
 0001:0003a73d       ?capacity@?$__crt_win32_buffer@_WU__crt_win32_buffer_internal_dynamic_resizing@@@@QBEIXZ 1003b73d f i libucrt:unlink.obj
 0001:0003a741       ?data@?$__crt_win32_buffer@_WU__crt_win32_buffer_internal_dynamic_resizing@@@@QAEPA_WXZ 1003b741 f i libucrt:unlink.obj
 0001:0003a745       ?deallocate@__crt_win32_buffer_internal_dynamic_resizing@@SAXQAXABV__crt_win32_buffer_empty_debug_info@@@Z 1003b745 f i libucrt:unlink.obj
 0001:0003a759       ?debug_info@?$__crt_win32_buffer@_WU__crt_win32_buffer_internal_dynamic_resizing@@@@QBEABV__crt_win32_buffer_empty_debug_info@@XZ 1003b759 f i libucrt:unlink.obj
 0001:0003a75c       ?size@?$__crt_win32_buffer@_WU__crt_win32_buffer_internal_dynamic_resizing@@@@QAEXI@Z 1003b75c f i libucrt:unlink.obj
 0001:0003a76e       __unlink                   1003b76e f   libucrt:unlink.obj
 0001:0003a77b       _remove                    1003b77b f   libucrt:unlink.obj
 0001:0003a802       ?has_all_of@__crt_stdio_stream@@QBE_NJ@Z 1003b802 f i libucrt:rewind.obj
 0001:0003a81e       ?unset_flags@__crt_stdio_stream@@QBE_NJ@Z 1003b81e f i libucrt:rewind.obj
 0001:0003a851       _rewind                    1003b851 f   libucrt:rewind.obj
 0001:0003a943       _ldexp                     1003b943 f   libucrt:ldexp.obj
 0001:0003abbc       ??$__vcrt_va_start_verify_argument_type@QBD@@YAXXZ 1003bbbc f i libucrt:assert.obj
 0001:0003abbd       ??$__vcrt_va_start_verify_argument_type@QB_W@@YAXXZ 1003bbbd f i libucrt:assert.obj
 0001:0003bb5f       ??$ftprintf@PAU_iobuf@@PBDABQBDABQBDABI@?$__crt_char_traits@D@@SAH$$QAPAU_iobuf@@$$QAPBDABQBD2ABI@Z 1003cb5f f i libucrt:assert.obj
 0001:0003bb91       ??$ftprintf@PAU_iobuf@@PB_WABQB_WABQB_WABI@?$__crt_char_traits@_W@@SAH$$QAPAU_iobuf@@$$QAPB_WABQB_W2ABI@Z 1003cb91 f i libucrt:assert.obj
 0001:0003bbc3       ??$get_module_file_name@AAPAUHINSTANCE__@@AAY0BAF@DK@?$__crt_char_traits@D@@SAKAAPAUHINSTANCE__@@AAY0BAF@D$$QAK@Z 1003cbc3 f i libucrt:assert.obj
 0001:0003bbe6       ??$get_module_file_name@AAPAUHINSTANCE__@@AAY0BAF@_WK@?$__crt_char_traits@_W@@SAKAAPAUHINSTANCE__@@AAY0BAF@_W$$QAK@Z 1003cbe6 f i libucrt:assert.obj
 0001:0003bc06       ??$itot_s@ABIPADIH@?$__crt_char_traits@D@@SAHABI$$QAPAD$$QAI$$QAH@Z 1003cc06 f i libucrt:assert.obj
 0001:0003bc31       ??$itot_s@ABIPA_WIH@?$__crt_char_traits@_W@@SAHABI$$QAPA_W$$QAI$$QAH@Z 1003cc31 f i libucrt:assert.obj
 0001:0003bc5c       ??$show_message_box@AAY0CEA@DPBDJ@?$__crt_char_traits@D@@SAHAAY0CEA@D$$QAPBD$$QAJ@Z 1003cc5c f i libucrt:assert.obj
 0001:0003bc7f       ??$show_message_box@AAY0CEA@_WPB_WJ@?$__crt_char_traits@_W@@SAHAAY0CEA@_W$$QAPB_W$$QAJ@Z 1003cc7f f i libucrt:assert.obj
 0001:0003bca2       ??$tcscat_s@ABQADABIAAPAD@?$__crt_char_traits@D@@SAHABQADABIAAPAD@Z 1003cca2 f i libucrt:assert.obj
 0001:0003bcc7       ??$tcscat_s@ABQADABIABQBD@?$__crt_char_traits@D@@SAHABQADABIABQBD@Z 1003ccc7 f i libucrt:assert.obj
 0001:0003bcec       ??$tcscat_s@ABQADABIPBD@?$__crt_char_traits@D@@SAHABQADABI$$QAPBD@Z 1003ccec f i libucrt:assert.obj
 0001:0003bd11       ??$tcscat_s@ABQA_WABIAAPA_W@?$__crt_char_traits@_W@@SAHABQA_WABIAAPA_W@Z 1003cd11 f i libucrt:assert.obj
 0001:0003bd36       ??$tcscat_s@ABQA_WABIABQB_W@?$__crt_char_traits@_W@@SAHABQA_WABIABQB_W@Z 1003cd36 f i libucrt:assert.obj
 0001:0003bd5b       ??$tcscat_s@ABQA_WABIPB_W@?$__crt_char_traits@_W@@SAHABQA_WABI$$QAPB_W@Z 1003cd5b f i libucrt:assert.obj
 0001:0003bd80       ??$tcscpy_s@AAY0BAF@DIPBD@?$__crt_char_traits@D@@SAHAAY0BAF@D$$QAI$$QAPBD@Z 1003cd80 f i libucrt:assert.obj
 0001:0003bda3       ??$tcscpy_s@AAY0BAF@_WIPB_W@?$__crt_char_traits@_W@@SAHAAY0BAF@_W$$QAI$$QAPB_W@Z 1003cda3 f i libucrt:assert.obj
 0001:0003bdc6       ??$tcscpy_s@ABQADABIPBD@?$__crt_char_traits@D@@SAHABQADABI$$QAPBD@Z 1003cdc6 f i libucrt:assert.obj
 0001:0003bdeb       ??$tcscpy_s@ABQA_WABIPB_W@?$__crt_char_traits@_W@@SAHABQA_WABI$$QAPB_W@Z 1003cdeb f i libucrt:assert.obj
 0001:0003be10       ??$tcslen@AAY0BAF@D@?$__crt_char_traits@D@@SAIAAY0BAF@D@Z 1003ce10 f i libucrt:assert.obj
 0001:0003be2b       ??$tcslen@AAY0BAF@_W@?$__crt_char_traits@_W@@SAIAAY0BAF@_W@Z 1003ce2b f i libucrt:assert.obj
 0001:0003be4e       ??$tcslen@ABQAD@?$__crt_char_traits@D@@SAIABQAD@Z 1003ce4e f i libucrt:assert.obj
 0001:0003be6c       ??$tcslen@ABQA_W@?$__crt_char_traits@_W@@SAIABQA_W@Z 1003ce6c f i libucrt:assert.obj
 0001:0003be91       ??$tcslen@ABQBD@?$__crt_char_traits@D@@SAIABQBD@Z 1003ce91 f i libucrt:assert.obj
 0001:0003beaf       ??$tcslen@ABQB_W@?$__crt_char_traits@_W@@SAIABQB_W@Z 1003ceaf f i libucrt:assert.obj
 0001:0003bed4       ??$tcsncat_s@ABQADABIAAPBDI@?$__crt_char_traits@D@@SAHABQADABIAAPBD$$QAI@Z 1003ced4 f i libucrt:assert.obj
 0001:0003beff       ??$tcsncat_s@ABQADABIABQBDABI@?$__crt_char_traits@D@@SAHABQADABIABQBD1@Z 1003ceff f i libucrt:assert.obj
 0001:0003bf2a       ??$tcsncat_s@ABQADABIPBDI@?$__crt_char_traits@D@@SAHABQADABI$$QAPBD$$QAI@Z 1003cf2a f i libucrt:assert.obj
 0001:0003bf55       ??$tcsncat_s@ABQA_WABIAAPB_WI@?$__crt_char_traits@_W@@SAHABQA_WABIAAPB_W$$QAI@Z 1003cf55 f i libucrt:assert.obj
 0001:0003bf80       ??$tcsncat_s@ABQA_WABIABQB_WABI@?$__crt_char_traits@_W@@SAHABQA_WABIABQB_W1@Z 1003cf80 f i libucrt:assert.obj
 0001:0003bfab       ??$tcsncat_s@ABQA_WABIPB_WI@?$__crt_char_traits@_W@@SAHABQA_WABI$$QAPB_W$$QAI@Z 1003cfab f i libucrt:assert.obj
 0001:0003c150       __assert                   1003d150 f   libucrt:assert.obj
 0001:0003c1aa       __invoke_watson_if_error   1003d1aa f i libucrt:assert.obj
 0001:0003c1d4       __vfwprintf_l              1003d1d4 f i libucrt:assert.obj
 0001:0003c202       __vswprintf_c_l            1003d202 f i libucrt:assert.obj
 0001:0003c23c       __wassert                  1003d23c f   libucrt:assert.obj
 0001:0003c296       _fwprintf                  1003d296 f i libucrt:assert.obj
 0001:0003c358       _swprintf                  1003d358 f i libucrt:assert.obj
 0001:0003c37d       __errcode                  1003d37d f   libucrt:fpexcept.obj
 0001:0003c3be       __except1                  1003d3be f   libucrt:fpexcept.obj
 0001:0003c4bf       __except2                  1003d4bf f   libucrt:fpexcept.obj
 0001:0003c608       __handle_exc               1003d608 f   libucrt:fpexcept.obj
 0001:0003c870       __handle_qnan2             1003d870 f   libucrt:fpexcept.obj
 0001:0003c880       __raise_exc                1003d880 f   libucrt:fpexcept.obj
 0001:0003c8ab       __raise_exc_ex             1003d8ab f   libucrt:fpexcept.obj
 0001:0003cc5e       __raise_excf               1003dc5e f   libucrt:fpexcept.obj
 0001:0003cc89       __set_errno_from_matherr   1003dc89 f   libucrt:fpexcept.obj
 0001:0003ccc3       __umatherr                 1003dcc3 f   libucrt:fpexcept.obj
 0001:0003cd8d       __initterm                 1003dd8d f   libucrt:initterm.obj
 0001:0003ce00       __initterm_e               1003de00 f   libucrt:initterm.obj
 0001:0003ce83       __seh_filter_dll           1003de83 f   libucrt:exception_filter.obj
 0001:0003ceab       __seh_filter_exe           1003deab f   libucrt:exception_filter.obj
 0001:0003d06a       ??$?RE@__crt_internal_free_policy@@QBEXQBE@Z 1003e06a f i libucrt:argv_parsing.obj
 0001:0003d080       ??$?RPAD@__crt_internal_free_policy@@QBEXQBQAD@Z 1003e080 f i libucrt:argv_parsing.obj
 0001:0003d096       ??$?RPA_W@__crt_internal_free_policy@@QBEXQBQA_W@Z 1003e096 f i libucrt:argv_parsing.obj
 0001:0003d3af       ??$get_module_file_name@$$TAAY0BAF@DH@?$__crt_char_traits@D@@SAK$$QA$$TAAY0BAF@D$$QAH@Z 1003e3af f i libucrt:argv_parsing.obj
 0001:0003d3d2       ??$get_module_file_name@$$TAAY0BAF@_WH@?$__crt_char_traits@_W@@SAK$$QA$$TAAY0BAF@_W$$QAH@Z 1003e3d2 f i libucrt:argv_parsing.obj
 0001:0003d7c5       ??$set_program_name@PAD@?$__crt_char_traits@D@@SAX$$QAPAD@Z 1003e7c5 f i libucrt:argv_parsing.obj
 0001:0003d7da       ??$set_program_name@PA_W@?$__crt_char_traits@_W@@SAX$$QAPA_W@Z 1003e7da f i libucrt:argv_parsing.obj
 0001:0003d817       ??0?$__crt_unique_heap_ptr@EU__crt_internal_free_policy@@@@QAE@QAE@Z 1003e817 f i libucrt:argv_parsing.obj
 0001:0003d82b       ??0?$__crt_unique_heap_ptr@PADU__crt_internal_free_policy@@@@QAE@QAPAD@Z 1003e82b f i libucrt:argv_parsing.obj
 0001:0003d83f       ??0?$__crt_unique_heap_ptr@PA_WU__crt_internal_free_policy@@@@QAE@QAPA_W@Z 1003e83f f i libucrt:argv_parsing.obj
 0001:0003d853       ??1?$__crt_unique_heap_ptr@EU__crt_internal_free_policy@@@@QAE@XZ 1003e853 f i libucrt:argv_parsing.obj
 0001:0003d869       ??1?$__crt_unique_heap_ptr@PADU__crt_internal_free_policy@@@@QAE@XZ 1003e869 f i libucrt:argv_parsing.obj
 0001:0003d87f       ??1?$__crt_unique_heap_ptr@PA_WU__crt_internal_free_policy@@@@QAE@XZ 1003e87f f i libucrt:argv_parsing.obj
 0001:0003d895       ??B?$__crt_unique_heap_ptr@EU__crt_internal_free_policy@@@@QBE_NXZ 1003e895 f i libucrt:argv_parsing.obj
 0001:0003d8d2       ?detach@?$__crt_unique_heap_ptr@EU__crt_internal_free_policy@@@@QAEPAEXZ 1003e8d2 f i libucrt:argv_parsing.obj
 0001:0003d8d8       ?detach@?$__crt_unique_heap_ptr@PADU__crt_internal_free_policy@@@@QAEPAPADXZ 1003e8d8 f i libucrt:argv_parsing.obj
 0001:0003d8de       ?detach@?$__crt_unique_heap_ptr@PA_WU__crt_internal_free_policy@@@@QAEPAPA_WXZ 1003e8de f i libucrt:argv_parsing.obj
 0001:0003d904       ?get@?$__crt_unique_heap_ptr@EU__crt_internal_free_policy@@@@QBEPAEXZ 1003e904 f i libucrt:argv_parsing.obj
 0001:0003d907       ?get@?$__crt_unique_heap_ptr@PADU__crt_internal_free_policy@@@@QBEPAPADXZ 1003e907 f i libucrt:argv_parsing.obj
 0001:0003d90a       ?get@?$__crt_unique_heap_ptr@PA_WU__crt_internal_free_policy@@@@QBEPAPA_WXZ 1003e90a f i libucrt:argv_parsing.obj
 0001:0003d90d       ?get_address_of@?$__crt_unique_heap_ptr@PADU__crt_internal_free_policy@@@@QAEPAPAPADXZ 1003e90d f i libucrt:argv_parsing.obj
 0001:0003d910       ?get_address_of@?$__crt_unique_heap_ptr@PA_WU__crt_internal_free_policy@@@@QAEPAPAPA_WXZ 1003e910 f i libucrt:argv_parsing.obj
 0001:0003d92b       ?is_valid@?$__crt_unique_heap_ptr@EU__crt_internal_free_policy@@@@QBE_NXZ 1003e92b f i libucrt:argv_parsing.obj
 0001:0003d932       ?release@?$__crt_unique_heap_ptr@EU__crt_internal_free_policy@@@@QAEXXZ 1003e932 f i libucrt:argv_parsing.obj
 0001:0003d948       ?release@?$__crt_unique_heap_ptr@PADU__crt_internal_free_policy@@@@QAEXXZ 1003e948 f i libucrt:argv_parsing.obj
 0001:0003d95e       ?release@?$__crt_unique_heap_ptr@PA_WU__crt_internal_free_policy@@@@QAEXXZ 1003e95e f i libucrt:argv_parsing.obj
 0001:0003d993       ___acrt_allocate_buffer_for_argv 1003e993 f   libucrt:argv_parsing.obj
 0001:0003d9f5       __configure_narrow_argv    1003e9f5 f   libucrt:argv_parsing.obj
 0001:0003da02       __configure_wide_argv      1003ea02 f   libucrt:argv_parsing.obj
 0001:0003da0f       __set_pgmptr               1003ea0f f i libucrt:argv_parsing.obj
 0001:0003da21       __set_wpgmptr              1003ea21 f i libucrt:argv_parsing.obj
 0001:0003da33       ??$?R_W@__crt_internal_free_policy@@QBEXQB_W@Z 1003ea33 f i libucrt:environment_initialization.obj
 0001:0003df19       ??$get_environment_from_os@$$V@?$__crt_char_traits@D@@SAPADXZ 1003ef19 f i libucrt:environment_initialization.obj
 0001:0003df1e       ??$get_environment_from_os@$$V@?$__crt_char_traits@_W@@SAPA_WXZ 1003ef1e f i libucrt:environment_initialization.obj
 0001:0003e06f       ??$set_variable_in_environment_nolock@PADH@?$__crt_char_traits@D@@SAH$$QAPAD$$QAH@Z 1003f06f f i libucrt:environment_initialization.obj
 0001:0003e08d       ??$set_variable_in_environment_nolock@PA_WH@?$__crt_char_traits@_W@@SAH$$QAPA_W$$QAH@Z 1003f08d f i libucrt:environment_initialization.obj
 0001:0003e0ab       ??$tcscpy_s@PADABIAAPAD@?$__crt_char_traits@D@@SAH$$QAPADABIAAPAD@Z 1003f0ab f i libucrt:environment_initialization.obj
 0001:0003e0d0       ??$tcscpy_s@PA_WABIAAPA_W@?$__crt_char_traits@_W@@SAH$$QAPA_WABIAAPA_W@Z 1003f0d0 f i libucrt:environment_initialization.obj
 0001:0003e0f5       ??$tcslen@AAPAD@?$__crt_char_traits@D@@SAIAAPAD@Z 1003f0f5 f i libucrt:environment_initialization.obj
 0001:0003e113       ??$tcslen@AAPA_W@?$__crt_char_traits@_W@@SAIAAPA_W@Z 1003f113 f i libucrt:environment_initialization.obj
 0001:0003e138       ??$uninitialize@A6AXAAPAPAD@Z@?$dual_state_global@PAPAD@__crt_state_management@@QAEXA6AXAAPAPAD@Z@Z 1003f138 f i libucrt:environment_initialization.obj
 0001:0003e188       ??$uninitialize@A6AXAAPAPA_W@Z@?$dual_state_global@PAPA_W@__crt_state_management@@QAEXA6AXAAPAPA_W@Z@Z 1003f188 f i libucrt:environment_initialization.obj
 0001:0003e21a       ??0?$__crt_unique_heap_ptr@_WU__crt_internal_free_policy@@@@QAE@QA_W@Z 1003f21a f i libucrt:environment_initialization.obj
 0001:0003e22e       ??1?$__crt_unique_heap_ptr@_WU__crt_internal_free_policy@@@@QAE@XZ 1003f22e f i libucrt:environment_initialization.obj
 0001:0003e244       ??B?$__crt_unique_heap_ptr@PADU__crt_internal_free_policy@@@@QBE_NXZ 1003f244 f i libucrt:environment_initialization.obj
 0001:0003e24b       ??B?$__crt_unique_heap_ptr@PA_WU__crt_internal_free_policy@@@@QBE_NXZ 1003f24b f i libucrt:environment_initialization.obj
 0001:0003e252       ??B?$__crt_unique_heap_ptr@_WU__crt_internal_free_policy@@@@QBE_NXZ 1003f252 f i libucrt:environment_initialization.obj
 0001:0003e259       ?__crt_compute_required_transform_buffer_count@@YAIIQBD@Z 1003f259 f i libucrt:environment_initialization.obj
 0001:0003e27c       ?__crt_compute_required_transform_buffer_count@@YAIIQB_W@Z 1003f27c f i libucrt:environment_initialization.obj
 0001:0003e2a1       ?__crt_transform_string@@YAIIQBDQA_WI@Z 1003f2a1 f i libucrt:environment_initialization.obj
 0001:0003e2c7       ?__crt_transform_string@@YAIIQB_WQADI@Z 1003f2c7 f i libucrt:environment_initialization.obj
 0001:0003e2f1       ?detach@?$__crt_unique_heap_ptr@DU__crt_internal_free_policy@@@@QAEPADXZ 1003f2f1 f i libucrt:environment_initialization.obj
 0001:0003e2f7       ?detach@?$__crt_unique_heap_ptr@_WU__crt_internal_free_policy@@@@QAEPA_WXZ 1003f2f7 f i libucrt:environment_initialization.obj
 0001:0003e2fd       ?get@?$__crt_unique_heap_ptr@_WU__crt_internal_free_policy@@@@QBEPA_WXZ 1003f2fd f i libucrt:environment_initialization.obj
 0001:0003e300       ?get_current_state_index@__crt_state_management@@YAIXZ 1003f300 f i libucrt:environment_initialization.obj
 0001:0003e327       ?initialize@?$dual_state_global@PAPAD@__crt_state_management@@QAEXQAPAD@Z 1003f327 f i libucrt:environment_initialization.obj
 0001:0003e356       ?initialize@?$dual_state_global@PAPA_W@__crt_state_management@@QAEXQAPA_W@Z 1003f356 f i libucrt:environment_initialization.obj
 0001:0003e385       ?is_valid@?$__crt_unique_heap_ptr@PADU__crt_internal_free_policy@@@@QBE_NXZ 1003f385 f i libucrt:environment_initialization.obj
 0001:0003e38c       ?is_valid@?$__crt_unique_heap_ptr@PA_WU__crt_internal_free_policy@@@@QBE_NXZ 1003f38c f i libucrt:environment_initialization.obj
 0001:0003e393       ?is_valid@?$__crt_unique_heap_ptr@_WU__crt_internal_free_policy@@@@QBE_NXZ 1003f393 f i libucrt:environment_initialization.obj
 0001:0003e3a0       ?release@?$__crt_unique_heap_ptr@_WU__crt_internal_free_policy@@@@QAEXXZ 1003f3a0 f i libucrt:environment_initialization.obj
 0001:0003e3b6       ?value@?$dual_state_global@PAPAD@__crt_state_management@@QAEAAPAPADXZ 1003f3b6 f i libucrt:environment_initialization.obj
 0001:0003e3b9       ?value@?$dual_state_global@PAPA_W@__crt_state_management@@QAEAAPAPA_WXZ 1003f3b9 f i libucrt:environment_initialization.obj
 0001:0003e3bc       ___dcrt_get_or_create_narrow_environment_nolock 1003f3bc f   libucrt:environment_initialization.obj
 0001:0003e3c1       ___dcrt_get_or_create_wide_environment_nolock 1003f3c1 f   libucrt:environment_initialization.obj
 0001:0003e3c6       ___dcrt_uninitialize_environments_nolock 1003f3c6 f   libucrt:environment_initialization.obj
 0001:0003e40a       ___p__environ              1003f40a f   libucrt:environment_initialization.obj
 0001:0003e410       ___p__wenviron             1003f410 f   libucrt:environment_initialization.obj
 0001:0003e416       __get_initial_narrow_environment 1003f416 f   libucrt:environment_initialization.obj
 0001:0003e42f       __get_initial_wide_environment 1003f42f f   libucrt:environment_initialization.obj
 0001:0003e448       __initialize_narrow_environment 1003f448 f   libucrt:environment_initialization.obj
 0001:0003e44d       __initialize_wide_environment 1003f44d f   libucrt:environment_initialization.obj
 0001:0003e452       ??$?BP6AXXZ@__crt_fast_encoded_nullptr_t@@QBEPAP6AXXZXZ 1003f452 f i libucrt:onexit.obj
 0001:0003e470       ??$?RP6AXXZ@__crt_internal_free_policy@@QBEXQBQ6AXXZ@Z 1003f470 f i libucrt:onexit.obj
 0001:0003e5b4       ??$__crt_fast_encode_pointer@P6AHXZ@@YAP6AHXZQ6AHXZ@Z 1003f5b4 f i libucrt:onexit.obj
 0001:0003e661       ??0?$__crt_unique_heap_ptr@P6AXXZU__crt_internal_free_policy@@@@QAE@QAP6AXXZ@Z 1003f661 f i libucrt:onexit.obj
 0001:0003e675       ??1?$__crt_unique_heap_ptr@P6AXXZU__crt_internal_free_policy@@@@QAE@XZ 1003f675 f i libucrt:onexit.obj
 0001:0003e68b       ??1scoped_global_state_reset@__crt_state_management@@QAE@XZ 1003f68b f i libucrt:onexit.obj
 0001:0003e9b6       ?detach@?$__crt_unique_heap_ptr@P6AXXZU__crt_internal_free_policy@@@@QAEPAP6AXXZXZ 1003f9b6 f i libucrt:onexit.obj
 0001:0003e9bc       ?release@?$__crt_unique_heap_ptr@P6AXXZU__crt_internal_free_policy@@@@QAEXXZ 1003f9bc f i libucrt:onexit.obj
 0001:0003e9d2       __crt_at_quick_exit        1003f9d2 f   libucrt:onexit.obj
 0001:0003e9ed       __crt_atexit               1003f9ed f   libucrt:onexit.obj
 0001:0003ea08       __execute_onexit_table     1003fa08 f   libucrt:onexit.obj
 0001:0003ea42       __initialize_onexit_table  1003fa42 f   libucrt:onexit.obj
 0001:0003ea8e       __register_onexit_function 1003fa8e f   libucrt:onexit.obj
 0001:0003ec59       ?__acrt_stdio_is_initialized@@YA_NXZ 1003fc59 f i libucrt:initialization.obj
 0001:0003ec66       ?initialize@?$dual_state_global@PAU__crt_locale_data@@@__crt_state_management@@QAEXQAU__crt_locale_data@@@Z 1003fc66 f i libucrt:initialization.obj
 0001:0003ec95       ___acrt_initialize         1003fc95 f   libucrt:initialization.obj
 0001:0003ecab       ___acrt_thread_attach      1003fcab f   libucrt:initialization.obj
 0001:0003ecb8       ___acrt_thread_detach      1003fcb8 f   libucrt:initialization.obj
 0001:0003ecc2       ___acrt_uninitialize       1003fcc2 f   libucrt:initialization.obj
 0001:0003ecfe       ___acrt_uninitialize_critical 1003fcfe f   libucrt:initialization.obj
 0001:0003ed2f       __get_terminate            1003fd2f f   libucrt:terminate.obj
 0001:0003ed45       _set_terminate             1003fd45 f   libucrt:terminate.obj
 0001:0003ed6d       _terminate                 1003fd6d f   libucrt:terminate.obj
 0001:0003ee28       _strcpy_s                  1003fe28 f   libucrt:strcpy_s.obj
 0001:0003ee98       ??$is_overflow_condition@K@__crt_strtox@@YA_NIK@Z 1003fe98 f i libucrt:atox.obj
 0001:0003eed5       ??$is_overflow_condition@_K@__crt_strtox@@YA_NI_K@Z 1003fed5 f i libucrt:atox.obj
 0001:0003ef26       ??$make_c_string_character_source@D$$T@__crt_strtox@@YA?AV?$c_string_character_source@D@0@QBD$$T@Z 1003ff26 f i libucrt:atox.obj
 0001:0003ef47       ??$make_c_string_character_source@_W$$T@__crt_strtox@@YA?AV?$c_string_character_source@_W@0@QB_W$$T@Z 1003ff47 f i libucrt:atox.obj
 0001:0003ef68       ??$parse_integer@KV?$c_string_character_source@D@__crt_strtox@@@__crt_strtox@@YAKQAU__crt_locale_pointers@@V?$c_string_character_source@D@0@H_N@Z 1003ff68 f i libucrt:atox.obj
 0001:0003f21b       ??$parse_integer@KV?$c_string_character_source@_W@__crt_strtox@@@__crt_strtox@@YAKQAU__crt_locale_pointers@@V?$c_string_character_source@_W@0@H_N@Z 1004021b f i libucrt:atox.obj
 0001:0003f9ec       ??$parse_integer@_KV?$c_string_character_source@D@__crt_strtox@@@__crt_strtox@@YA_KQAU__crt_locale_pointers@@V?$c_string_character_source@D@0@H_N@Z 100409ec f i libucrt:atox.obj
 0001:0003fd3c       ??$parse_integer@_KV?$c_string_character_source@_W@__crt_strtox@@@__crt_strtox@@YA_KQAU__crt_locale_pointers@@V?$c_string_character_source@_W@0@H_N@Z 10040d3c f i libucrt:atox.obj
 0001:00040609       ??$parse_integer_from_string@JD$$T@__crt_strtox@@YAJQBD$$THQAU__crt_locale_pointers@@@Z 10041609 f i libucrt:atox.obj
 0001:00040641       ??$parse_integer_from_string@J_W$$T@__crt_strtox@@YAJQB_W$$THQAU__crt_locale_pointers@@@Z 10041641 f i libucrt:atox.obj
 0001:00040679       ??$parse_integer_from_string@_JD$$T@__crt_strtox@@YA_JQBD$$THQAU__crt_locale_pointers@@@Z 10041679 f i libucrt:atox.obj
 0001:000406b1       ??$parse_integer_from_string@_J_W$$T@__crt_strtox@@YA_JQB_W$$THQAU__crt_locale_pointers@@@Z 100416b1 f i libucrt:atox.obj
 0001:000406e9       ??0?$c_string_character_source@D@__crt_strtox@@QAE@QBDQAPBD@Z 100416e9 f i libucrt:atox.obj
 0001:0004070c       ??0?$c_string_character_source@_W@__crt_strtox@@QAE@QB_WQAPB_W@Z 1004170c f i libucrt:atox.obj
 0001:0004072f       ??1?$c_string_character_source@D@__crt_strtox@@QAE@XZ 1004172f f i libucrt:atox.obj
 0001:0004073e       ??1?$c_string_character_source@_W@__crt_strtox@@QAE@XZ 1004173e f i libucrt:atox.obj
 0001:0004074d       ?get@?$c_string_character_source@D@__crt_strtox@@QAEDXZ 1004174d f i libucrt:atox.obj
 0001:00040757       ?get@?$c_string_character_source@_W@__crt_strtox@@QAE_WXZ 10041757 f i libucrt:atox.obj
 0001:00040764       ?is_space@__crt_strtox@@YA_NDQAU__crt_locale_pointers@@@Z 10041764 f i libucrt:atox.obj
 0001:00040789       ?is_space@__crt_strtox@@YA_N_WPAU__crt_locale_pointers@@@Z 10041789 f i libucrt:atox.obj
 0001:000407a7       ?maximum_signed_value@__crt_strtox@@YAJK@Z 100417a7 f i libucrt:atox.obj
 0001:000407ad       ?maximum_signed_value@__crt_strtox@@YA_J_K@Z 100417ad f i libucrt:atox.obj
 0001:000407b8       ?minimum_signed_value@__crt_strtox@@YAJK@Z 100417b8 f i libucrt:atox.obj
 0001:000407be       ?minimum_signed_value@__crt_strtox@@YA_J_K@Z 100417be f i libucrt:atox.obj
 0001:000407c8       ?parse_digit@__crt_strtox@@YAID@Z 100417c8 f i libucrt:atox.obj
 0001:00040810       ?parse_digit@__crt_strtox@@YAI_W@Z 10041810 f i libucrt:atox.obj
 0001:00040a81       ?restore_state@?$c_string_character_source@D@__crt_strtox@@QAE_NQBD@Z 10041a81 f i libucrt:atox.obj
 0001:00040a95       ?restore_state@?$c_string_character_source@_W@__crt_strtox@@QAE_NQB_W@Z 10041a95 f i libucrt:atox.obj
 0001:00040aa9       ?save_state@?$c_string_character_source@D@__crt_strtox@@QBEPBDXZ 10041aa9 f i libucrt:atox.obj
 0001:00040aac       ?save_state@?$c_string_character_source@_W@__crt_strtox@@QBEPB_WXZ 10041aac f i libucrt:atox.obj
 0001:00040aaf       ?unget@?$c_string_character_source@D@__crt_strtox@@QAEXD@Z 10041aaf f i libucrt:atox.obj
 0001:00040ae2       ?unget@?$c_string_character_source@_W@__crt_strtox@@QAEX_W@Z 10041ae2 f i libucrt:atox.obj
 0001:00040b1b       ?validate@?$c_string_character_source@D@__crt_strtox@@QBE_NXZ 10041b1b f i libucrt:atox.obj
 0001:00040b3c       ?validate@?$c_string_character_source@_W@__crt_strtox@@QBE_NXZ 10041b3c f i libucrt:atox.obj
 0001:00040b5d       ?wide_character_to_digit@__crt_strtox@@YAH_W@Z 10041b5d f i libucrt:atox.obj
 0001:00040d66       ___acrt_get_locale_data_prefix 10041d66 f i libucrt:atox.obj
 0001:00040d75       __atoi64                   10041d75 f   libucrt:atox.obj
 0001:00040da3       __atoi64_l                 10041da3 f   libucrt:atox.obj
 0001:00040dd2       __atoi_l                   10041dd2 f   libucrt:atox.obj
 0001:00040e01       __atol_l                   10041e01 f   libucrt:atox.obj
 0001:00040e30       __atoll_l                  10041e30 f   libucrt:atox.obj
 0001:00040e5f       __chvalidchk_l             10041e5f f i libucrt:atox.obj
 0001:00040e8e       __ischartype_l             10041e8e f i libucrt:atox.obj
 0001:00040ecd       __wtoi                     10041ecd f   libucrt:atox.obj
 0001:00040efb       __wtoi64                   10041efb f   libucrt:atox.obj
 0001:00040f29       __wtoi64_l                 10041f29 f   libucrt:atox.obj
 0001:00040f58       __wtoi_l                   10041f58 f   libucrt:atox.obj
 0001:00040f87       __wtol                     10041f87 f   libucrt:atox.obj
 0001:00040fb5       __wtol_l                   10041fb5 f   libucrt:atox.obj
 0001:00040fe4       __wtoll                    10041fe4 f   libucrt:atox.obj
 0001:00041012       __wtoll_l                  10042012 f   libucrt:atox.obj
 0001:00041041       _atoi                      10042041 f   libucrt:atox.obj
 0001:0004106f       _atol                      1004206f f   libucrt:atox.obj
 0001:0004109d       _atoll                     1004209d f   libucrt:atox.obj
 0001:000410d0       _strncmp                   100420d0 f   libucrt:strncmp.obj
 0001:00041166       __set_abort_behavior       10042166 f   libucrt:abort.obj
 0001:0004118f       _abort                     1004218f f   libucrt:abort.obj
 0001:000411e4       _wcsncmp                   100421e4 f   libucrt:wcsncmp.obj
 0001:0004122c       __malloc_base              1004222c f   libucrt:malloc_base.obj
 0001:0004128d       ??$__crt_fast_decode_pointer@P6AXPB_W00II@Z@@YAP6AXPB_W00II@ZQ6AX000II@Z@Z 1004228d f i libucrt:invalid_parameter.obj
 0001:000412a8       ??$__crt_fast_encode_pointer@P6AXPB_W00II@Z@@YAP6AXPB_W00II@ZQ6AX000II@Z@Z 100422a8 f i libucrt:invalid_parameter.obj
 0001:000412ce       ??$initialize_from_array@$$BY00Q6AXPB_W00II@Z@?$dual_state_global@P6AXPB_W00II@Z@__crt_state_management@@QAAXAAY00Q6AXPB_W00II@Z@Z 100422ce f i libucrt:invalid_parameter.obj
 0001:000412e3       ?dangerous_get_state_array@?$dual_state_global@P6AXPB_W00II@Z@__crt_state_management@@QAEPAP6AXPB_W00II@ZXZ 100422e3 f i libucrt:invalid_parameter.obj
 0001:000412e6       ?value@?$dual_state_global@P6AXPB_W00II@Z@__crt_state_management@@QAEAAP6AXPB_W00II@ZXZ 100422e6 f i libucrt:invalid_parameter.obj
 0001:000412e9       ___acrt_call_reportfault   100422e9 f   libucrt:invalid_parameter.obj
 0001:00041472       ___acrt_initialize_invalid_parameter_handler 10042472 f   libucrt:invalid_parameter.obj
 0001:00041484       __get_invalid_parameter_handler 10042484 f   libucrt:invalid_parameter.obj
 0001:0004149b       __get_thread_local_invalid_parameter_handler 1004249b f   libucrt:invalid_parameter.obj
 0001:000414b0       __invalid_parameter        100424b0 f   libucrt:invalid_parameter.obj
 0001:00041549       __invalid_parameter_noinfo 10042549 f   libucrt:invalid_parameter.obj
 0001:0004155d       __invalid_parameter_noinfo_noreturn 1004255d f   libucrt:invalid_parameter.obj
 0001:00041581       __invoke_watson            10042581 f   libucrt:invalid_parameter.obj
 0001:000415c2       __set_invalid_parameter_handler 100425c2 f   libucrt:invalid_parameter.obj
 0001:000415fe       __set_thread_local_invalid_parameter_handler 100425fe f   libucrt:invalid_parameter.obj
 0001:00041622       ___acrt_errno_from_os_error 10042622 f   libucrt:errno.obj
 0001:00041675       ___acrt_errno_map_os_error 10042675 f   libucrt:errno.obj
 0001:000416a0       ___doserrno                100426a0 f   libucrt:errno.obj
 0001:000416b7       __errno                    100426b7 f   libucrt:errno.obj
 0001:000416ce       __get_doserrno             100426ce f   libucrt:errno.obj
 0001:000416fc       __get_errno                100426fc f   libucrt:errno.obj
 0001:0004172a       __set_doserrno             1004272a f   libucrt:errno.obj
 0001:00041753       __set_errno                10042753 f   libucrt:errno.obj
 0001:0004177c       __calloc_base              1004277c f   libucrt:calloc_base.obj
 0001:000417f6       __free_base                100427f6 f   libucrt:free_base.obj
 0001:0004184e       ??$?B$$A6GHPA_WKJ@Z@__crt_fast_encoded_nullptr_t@@QBEP6GHPA_WKJ@ZXZ 1004284e f i libucrt:winapi_thunks.obj
 0001:00041948       ??$__crt_fast_decode_pointer@P6GHPA_WKJ@Z@@YAP6GHPA_WKJ@ZQ6GH0KJ@Z@Z 10042948 f i libucrt:winapi_thunks.obj
 0001:00041963       ??$__crt_fast_encode_pointer@P6GHPA_WKJ@Z@@YAP6GHPA_WKJ@ZQ6GH0KJ@Z@Z 10042963 f i libucrt:winapi_thunks.obj
 0001:000421c2       _GetCurrentThreadEffectiveToken 100431c2 f i libucrt:winapi_thunks.obj
 0001:000421c6       ___acrt_AppPolicyGetProcessTerminationMethodInternal@4 100431c6 f   libucrt:winapi_thunks.obj
 0001:00042232       ___acrt_AppPolicyGetShowDeveloperDiagnosticInternal@4 10043232 f   libucrt:winapi_thunks.obj
 0001:0004229e       ___acrt_AppPolicyGetThreadInitializationTypeInternal@4 1004329e f   libucrt:winapi_thunks.obj
 0001:0004230a       ___acrt_AppPolicyGetWindowingModelInternal@4 1004330a f   libucrt:winapi_thunks.obj
 0001:00042376       ___acrt_AreFileApisANSI@0  10043376 f   libucrt:winapi_thunks.obj
 0001:000423be       ___acrt_CompareStringEx@36 100433be f   libucrt:winapi_thunks.obj
 0001:0004244f       ___acrt_EnumSystemLocalesEx@16 1004344f f   libucrt:winapi_thunks.obj
 0001:000424d3       ___acrt_FlsAlloc@4         100434d3 f   libucrt:winapi_thunks.obj
 0001:0004253e       ___acrt_FlsFree@4          1004353e f   libucrt:winapi_thunks.obj
 0001:000425a9       ___acrt_FlsGetValue@4      100435a9 f   libucrt:winapi_thunks.obj
 0001:00042614       ___acrt_FlsSetValue@8      10043614 f   libucrt:winapi_thunks.obj
 0001:00042683       ___acrt_GetDateFormatEx@28 10043683 f   libucrt:winapi_thunks.obj
 0001:0004270c       ___acrt_GetEnabledXStateFeatures@0 1004370c f   libucrt:winapi_thunks.obj
 0001:0004276e       ___acrt_GetLocaleInfoEx@16 1004376e f   libucrt:winapi_thunks.obj
 0001:000427d9       ___acrt_GetSystemTimePreciseAsFileTime@4 100437d9 f   libucrt:winapi_thunks.obj
 0001:00042844       ___acrt_GetTimeFormatEx@24 10043844 f   libucrt:winapi_thunks.obj
 0001:000428b7       ___acrt_GetUserDefaultLocaleName@8 100438b7 f   libucrt:winapi_thunks.obj
 0001:0004291e       ___acrt_GetXStateFeaturesMask@8 1004391e f   libucrt:winapi_thunks.obj
 0001:0004298a       ___acrt_InitializeCriticalSectionEx@12 1004398a f   libucrt:winapi_thunks.obj
 0001:00042a04       ___acrt_IsValidLocaleName@4 10043a04 f   libucrt:winapi_thunks.obj
 0001:00042a66       ___acrt_LCIDToLocaleName@16 10043a66 f   libucrt:winapi_thunks.obj
 0001:00042ad1       ___acrt_LCMapStringEx@36   10043ad1 f   libucrt:winapi_thunks.obj
 0001:00042b62       ___acrt_LocaleNameToLCID@8 10043b62 f   libucrt:winapi_thunks.obj
 0001:00042bbc       ___acrt_LocateXStateFeature@12 10043bbc f   libucrt:winapi_thunks.obj
 0001:00042c13       ___acrt_MessageBoxA@16     10043c13 f   libucrt:winapi_thunks.obj
 0001:00042c6e       ___acrt_MessageBoxW@16     10043c6e f   libucrt:winapi_thunks.obj
 0001:00042cc9       ___acrt_RoInitialize@4     10043cc9 f   libucrt:winapi_thunks.obj
 0001:00042d2f       ___acrt_RoUninitialize@0   10043d2f f   libucrt:winapi_thunks.obj
 0001:00042d8a       ___acrt_RtlGenRandom@8     10043d8a f   libucrt:winapi_thunks.obj
 0001:00042df6       ___acrt_SetThreadStackGuarantee@4 10043df6 f   libucrt:winapi_thunks.obj
 0001:00042e5c       ___acrt_can_show_message_box 10043e5c f   libucrt:winapi_thunks.obj
 0001:00042e8c       ___acrt_can_use_vista_locale_apis 10043e8c f   libucrt:winapi_thunks.obj
 0001:00042e99       ___acrt_can_use_xstate_apis 10043e99 f   libucrt:winapi_thunks.obj
 0001:00042ea6       ___acrt_eagerly_load_locale_apis 10043ea6 f   libucrt:winapi_thunks.obj
 0001:00042eea       ___acrt_get_parent_window  10043eea f   libucrt:winapi_thunks.obj
 0001:00042f88       ___acrt_initialize_winapi_thunks 10043f88 f   libucrt:winapi_thunks.obj
 0001:00042fd3       ___acrt_is_interactive     10043fd3 f   libucrt:winapi_thunks.obj
 0001:000430a2       ___acrt_uninitialize_winapi_thunks 100440a2 f   libucrt:winapi_thunks.obj
 0001:000430e5       ??0__crt_stdio_stream@@QAE@QAU__crt_stdio_stream_data@@@Z 100440e5 f i libucrt:closeall.obj
 0001:000430f9       __fcloseall                100440f9 f   libucrt:closeall.obj
 0001:00043767       ___acrt_stdio_flush_nolock 10044767 f   libucrt:fflush.obj
 0001:000437e2       __fflush_nolock            100447e2 f   libucrt:fflush.obj
 0001:0004383a       __flushall                 1004483a f   libucrt:fflush.obj
 0001:00043845       _fflush                    10044845 f   libucrt:fflush.obj
 0001:000438ae       ?has_crt_buffer@__crt_stdio_stream@@QBE_NXZ 100448ae f i libucrt:_freebuf.obj
 0001:000438bb       ___acrt_stdio_free_buffer_nolock 100448bb f   libucrt:_freebuf.obj
 0001:00043af9       ___acrt_initialize_lowio   10044af9 f   libucrt:ioinit.obj
 0001:00043b64       ___acrt_uninitialize_lowio 10044b64 f   libucrt:ioinit.obj
 0001:00043bb7       ___isascii                 10044bb7 f i libucrt:_ctype.obj
 0001:00043bcd       ___iscsym                  10044bcd f i libucrt:_ctype.obj
 0001:00043bf7       ___iscsymf                 10044bf7 f i libucrt:_ctype.obj
 0001:00043c1d       ___toascii                 10044c1d f i libucrt:_ctype.obj
 0001:00043c2d       __isalnum_l                10044c2d f i libucrt:_ctype.obj
 0001:00043c76       __isalpha_l                10044c76 f i libucrt:_ctype.obj
 0001:00043cbf       __isblank_l                10044cbf f i libucrt:_ctype.obj
 0001:00043d12       __iscntrl_l                10044d12 f i libucrt:_ctype.obj
 0001:00043d58       __iscsym_l                 10044d58 f i libucrt:_ctype.obj
 0001:00043d83       __iscsymf_l                10044d83 f i libucrt:_ctype.obj
 0001:00043dae       __isdigit_l                10044dae f i libucrt:_ctype.obj
 0001:00043df4       __isgraph_l                10044df4 f i libucrt:_ctype.obj
 0001:00043e3d       __islower_l                10044e3d f i libucrt:_ctype.obj
 0001:00043e83       __isprint_l                10044e83 f i libucrt:_ctype.obj
 0001:00043ecc       __ispunct_l                10044ecc f i libucrt:_ctype.obj
 0001:00043f12       __isspace_l                10044f12 f i libucrt:_ctype.obj
 0001:00043f58       __isupper_l                10044f58 f i libucrt:_ctype.obj
 0001:00043f9e       __isxdigit_l               10044f9e f i libucrt:_ctype.obj
 0001:00043fe7       _isalnum                   10044fe7 f i libucrt:_ctype.obj
 0001:00044023       _isalpha                   10045023 f i libucrt:_ctype.obj
 0001:0004405f       _isblank                   1004505f f i libucrt:_ctype.obj
 0001:000440a7       _iscntrl                   100450a7 f i libucrt:_ctype.obj
 0001:000440e0       _isdigit                   100450e0 f i libucrt:_ctype.obj
 0001:00044119       _isgraph                   10045119 f i libucrt:_ctype.obj
 0001:00044155       _islower                   10045155 f i libucrt:_ctype.obj
 0001:0004418e       _isprint                   1004518e f i libucrt:_ctype.obj
 0001:000441ca       _ispunct                   100451ca f i libucrt:_ctype.obj
 0001:00044203       _isspace                   10045203 f i libucrt:_ctype.obj
 0001:0004423c       _isupper                   1004523c f i libucrt:_ctype.obj
 0001:00044275       _isxdigit                  10045275 f i libucrt:_ctype.obj
 0001:0004466d       __tolower                  1004566d f   libucrt:tolower_toupper.obj
 0001:0004467d       __tolower_l                1004567d f   libucrt:tolower_toupper.obj
 0001:0004469d       __toupper                  1004569d f   libucrt:tolower_toupper.obj
 0001:000446ad       __toupper_l                100456ad f   libucrt:tolower_toupper.obj
 0001:000446cd       _tolower                   100456cd f   libucrt:tolower_toupper.obj
 0001:00044709       _toupper                   10045709 f   libucrt:tolower_toupper.obj
 0001:00044745       ??$make_c_string_character_source@DPAPAD@__crt_strtox@@YA?AV?$c_string_character_source@D@0@QBDQAPAD@Z 10045745 f i libucrt:strtox.obj
 0001:00044766       ??$make_c_string_character_source@_WPAPA_W@__crt_strtox@@YA?AV?$c_string_character_source@_W@0@QB_WQAPA_W@Z 10045766 f i libucrt:strtox.obj
 0001:00044787       ??$parse_integer_from_string@JDPAPAD@__crt_strtox@@YAJQBDQAPADHQAU__crt_locale_pointers@@@Z 10045787 f i libucrt:strtox.obj
 0001:000447bf       ??$parse_integer_from_string@J_WPAPA_W@__crt_strtox@@YAJQB_WQAPA_WHQAU__crt_locale_pointers@@@Z 100457bf f i libucrt:strtox.obj
 0001:000447f7       ??$parse_integer_from_string@KDPAPAD@__crt_strtox@@YAKQBDQAPADHQAU__crt_locale_pointers@@@Z 100457f7 f i libucrt:strtox.obj
 0001:0004482f       ??$parse_integer_from_string@K_WPAPA_W@__crt_strtox@@YAKQB_WQAPA_WHQAU__crt_locale_pointers@@@Z 1004582f f i libucrt:strtox.obj
 0001:00044867       ??$parse_integer_from_string@_JDPAPAD@__crt_strtox@@YA_JQBDQAPADHQAU__crt_locale_pointers@@@Z 10045867 f i libucrt:strtox.obj
 0001:0004489f       ??$parse_integer_from_string@_J_WPAPA_W@__crt_strtox@@YA_JQB_WQAPA_WHQAU__crt_locale_pointers@@@Z 1004589f f i libucrt:strtox.obj
 0001:000448d7       ??$parse_integer_from_string@_KDPAPAD@__crt_strtox@@YA_KQBDQAPADHQAU__crt_locale_pointers@@@Z 100458d7 f i libucrt:strtox.obj
 0001:0004490f       ??$parse_integer_from_string@_K_WPAPA_W@__crt_strtox@@YA_KQB_WQAPA_WHQAU__crt_locale_pointers@@@Z 1004590f f i libucrt:strtox.obj
 0001:00044947       __strtoi64                 10045947 f   libucrt:strtox.obj
 0001:0004497e       __strtoi64_l               1004597e f   libucrt:strtox.obj
 0001:000449b6       __strtoimax_l              100459b6 f   libucrt:strtox.obj
 0001:000449ee       __strtol_l                 100459ee f   libucrt:strtox.obj
 0001:00044a26       __strtoll_l                10045a26 f   libucrt:strtox.obj
 0001:00044a5e       __strtoui64                10045a5e f   libucrt:strtox.obj
 0001:00044a95       __strtoui64_l              10045a95 f   libucrt:strtox.obj
 0001:00044acd       __strtoul_l                10045acd f   libucrt:strtox.obj
 0001:00044b05       __strtoull_l               10045b05 f   libucrt:strtox.obj
 0001:00044b3d       __strtoumax_l              10045b3d f   libucrt:strtox.obj
 0001:00044b75       __wcstoi64                 10045b75 f   libucrt:strtox.obj
 0001:00044bac       __wcstoi64_l               10045bac f   libucrt:strtox.obj
 0001:00044be4       __wcstoimax_l              10045be4 f   libucrt:strtox.obj
 0001:00044c1c       __wcstol_l                 10045c1c f   libucrt:strtox.obj
 0001:00044c54       __wcstoll_l                10045c54 f   libucrt:strtox.obj
 0001:00044c8c       __wcstoui64                10045c8c f   libucrt:strtox.obj
 0001:00044cc3       __wcstoui64_l              10045cc3 f   libucrt:strtox.obj
 0001:00044cfb       __wcstoul_l                10045cfb f   libucrt:strtox.obj
 0001:00044d33       __wcstoull_l               10045d33 f   libucrt:strtox.obj
 0001:00044d6b       __wcstoumax_l              10045d6b f   libucrt:strtox.obj
 0001:00044da3       _strtoimax                 10045da3 f   libucrt:strtox.obj
 0001:00044dda       _strtol                    10045dda f   libucrt:strtox.obj
 0001:00044e11       _strtoll                   10045e11 f   libucrt:strtox.obj
 0001:00044e48       _strtoul                   10045e48 f   libucrt:strtox.obj
 0001:00044e7f       _strtoull                  10045e7f f   libucrt:strtox.obj
 0001:00044eb6       _strtoumax                 10045eb6 f   libucrt:strtox.obj
 0001:00044eed       _wcstoimax                 10045eed f   libucrt:strtox.obj
 0001:00044f24       _wcstol                    10045f24 f   libucrt:strtox.obj
 0001:00044f5b       _wcstoll                   10045f5b f   libucrt:strtox.obj
 0001:00044f92       _wcstoul                   10045f92 f   libucrt:strtox.obj
 0001:00044fc9       _wcstoull                  10045fc9 f   libucrt:strtox.obj
 0001:00045000       _wcstoumax                 10046000 f   libucrt:strtox.obj
 0001:00045037       __mbtowc_l                 10046037 f   libucrt:mbtowc.obj
 0001:000451cc       _mbtowc                    100461cc f   libucrt:mbtowc.obj
 0001:000451ec       __wctomb_l                 100461ec f   libucrt:wctomb.obj
 0001:00045253       __wctomb_s_l               10046253 f   libucrt:wctomb.obj
 0001:000453be       _wctomb                    100463be f   libucrt:wctomb.obj
 0001:000453ff       _wctomb_s                  100463ff f   libucrt:wctomb.obj
 0001:00045e1c       ??1?$__crt_simd_cleanup_guard@$00@@QAE@XZ 10046e1c f i libucrt:strnlen.obj
 0001:00045e20       ??1?$__crt_simd_cleanup_guard@$0A@@@QAE@XZ 10046e20 f i libucrt:strnlen.obj
 0001:00045e21       ?compare_equals@?$__crt_simd_traits@$00E@@SA?AT__m256i@@T2@0@Z 10046e21 f i libucrt:strnlen.obj
 0001:00045e26       ?compare_equals@?$__crt_simd_traits@$00G@@SA?AT__m256i@@T2@0@Z 10046e26 f i libucrt:strnlen.obj
 0001:00045e2b       ?compare_equals@?$__crt_simd_traits@$0A@E@@SA?AT__m128i@@T2@0@Z 10046e2b f i libucrt:strnlen.obj
 0001:00045e30       ?compare_equals@?$__crt_simd_traits@$0A@G@@SA?AT__m128i@@T2@0@Z 10046e30 f i libucrt:strnlen.obj
 0001:00045e35       ?compute_byte_mask@?$__crt_simd_pack_traits@$00@@SAHT__m256i@@@Z 10046e35 f i libucrt:strnlen.obj
 0001:00045e3a       ?compute_byte_mask@?$__crt_simd_pack_traits@$0A@@@SAHT__m128i@@@Z 10046e3a f i libucrt:strnlen.obj
 0001:00045e3f       ?get_zero_pack@?$__crt_simd_pack_traits@$00@@SA?AT__m256i@@XZ 10046e3f f i libucrt:strnlen.obj
 0001:00045e44       ?get_zero_pack@?$__crt_simd_pack_traits@$0A@@@SA?AT__m128i@@XZ 10046e44 f i libucrt:strnlen.obj
 0001:00045e48       _strnlen                   10046e48 f   libucrt:strnlen.obj
 0001:00045fb2       _wcslen                    10046fb2 f   libucrt:strnlen.obj
 0001:00046124       _wcsnlen                   10047124 f   libucrt:strnlen.obj
 0001:00046340       ??$?RU__acrt_ptd@@@__crt_internal_free_policy@@QBEXQBU__acrt_ptd@@@Z 10047340 f i libucrt:per_thread_data.obj
 0001:000466b9       ??0?$__crt_unique_heap_ptr@U__acrt_ptd@@U__crt_internal_free_policy@@@@QAE@QAU__acrt_ptd@@@Z 100476b9 f i libucrt:per_thread_data.obj
 0001:000466cd       ??0__crt_scoped_get_last_error_reset@@QAE@XZ 100476cd f i libucrt:per_thread_data.obj
 0001:000466e2       ??1?$__crt_unique_heap_ptr@U__acrt_ptd@@U__crt_internal_free_policy@@@@QAE@XZ 100476e2 f i libucrt:per_thread_data.obj
 0001:000466f8       ??1__crt_scoped_get_last_error_reset@@QAE@XZ 100476f8 f i libucrt:per_thread_data.obj
 0001:00046703       ??B?$__crt_unique_heap_ptr@U__acrt_ptd@@U__crt_internal_free_policy@@@@QBE_NXZ 10047703 f i libucrt:per_thread_data.obj
 0001:000468a0       ?dangerous_get_state_array@?$dual_state_global@PAU__crt_locale_data@@@__crt_state_management@@QAEPAPAU__crt_locale_data@@XZ 100478a0 f i libucrt:per_thread_data.obj
 0001:000469d3       ?detach@?$__crt_unique_heap_ptr@U__acrt_ptd@@U__crt_internal_free_policy@@@@QAEPAU__acrt_ptd@@XZ 100479d3 f i libucrt:per_thread_data.obj
 0001:000469d9       ?get@?$__crt_unique_heap_ptr@U__acrt_ptd@@U__crt_internal_free_policy@@@@QBEPAU__acrt_ptd@@XZ 100479d9 f i libucrt:per_thread_data.obj
 0001:000469dc       ?get_current_state_index@__crt_state_management@@YAIABV__crt_scoped_get_last_error_reset@@@Z 100479dc f i libucrt:per_thread_data.obj
 0001:00046b62       ?is_valid@?$__crt_unique_heap_ptr@U__acrt_ptd@@U__crt_internal_free_policy@@@@QBE_NXZ 10047b62 f i libucrt:per_thread_data.obj
 0001:00046b69       ?release@?$__crt_unique_heap_ptr@U__acrt_ptd@@U__crt_internal_free_policy@@@@QAEXXZ 10047b69 f i libucrt:per_thread_data.obj
 0001:00046bf5       ?value@?$dual_state_global@PAU__crt_locale_data@@@__crt_state_management@@QAEAAPAU__crt_locale_data@@XZ 10047bf5 f i libucrt:per_thread_data.obj
 0001:00046bf8       ___acrt_freeptd            10047bf8 f   libucrt:per_thread_data.obj
 0001:00046c2f       ___acrt_getptd             10047c2f f   libucrt:per_thread_data.obj
 0001:00046d13       ___acrt_getptd_head        10047d13 f   libucrt:per_thread_data.obj
 0001:00046dd3       ___acrt_getptd_noexit      10047dd3 f   libucrt:per_thread_data.obj
 0001:00046eab       ___acrt_initialize_ptd     10047eab f   libucrt:per_thread_data.obj
 0001:00046ee2       ___acrt_uninitialize_ptd   10047ee2 f   libucrt:per_thread_data.obj
 0001:00046f02       ___threadhandle            10047f02 f   libucrt:per_thread_data.obj
 0001:00046f08       ___threadid                10047f08 f   libucrt:per_thread_data.obj
 0001:00046f0e       ?value@?$dual_state_global@PAU__crt_multibyte_data@@@__crt_state_management@@QAEAAPAU__crt_multibyte_data@@XZ 10047f0e f i libucrt:locale_update.obj
 0001:00046f11       ___acrt_update_locale_info 10047f11 f   libucrt:locale_update.obj
 0001:00046f49       ___acrt_update_multibyte_info 10047f49 f   libucrt:locale_update.obj
 0001:00046f81       ?__acrt_fp_classify@@YA?AW4__acrt_fp_class@@ABN@Z 10047f81 f i libucrt:cvt.obj
 0001:00046ffb       ?__acrt_fp_is_negative@@YA_NABN@Z 10047ffb f i libucrt:cvt.obj
 0001:00047a80       ?strrchr@@YAPADQADH@Z      10048a80 f i libucrt:cvt.obj
 0001:00047a8d       ___acrt_fp_format          10048a8d f   libucrt:cvt.obj
 0001:00047c55       __fputwc_nolock            10048c55 f   libucrt:fputwc.obj
 0001:00047dc9       __fputwchar                10048dc9 f   libucrt:fputwc.obj
 0001:00047de9       __putwc_nolock             10048de9 f   libucrt:fputwc.obj
 0001:00047df6       _fputwc                    10048df6 f   libucrt:fputwc.obj
 0001:00047e87       _putwc                     10048e87 f   libucrt:fputwc.obj
 0001:00047e94       _putwchar                  10048e94 f   libucrt:fputwc.obj
 0001:00047ea1       ?lowio_handle@__crt_stdio_stream@@QBEHXZ 10048ea1 f i libucrt:fileno.obj
 0001:00047ea7       __fileno                   10048ea7 f   libucrt:fileno.obj
 0001:00047ed6       __fputc_nolock             10048ed6 f   libucrt:fputc.obj
 0001:00047f09       __fputchar                 10048f09 f   libucrt:fputc.obj
 0001:00047f29       __putc_nolock              10048f29 f   libucrt:fputc.obj
 0001:00047f36       _fputc                     10048f36 f   libucrt:fputc.obj
 0001:00048074       _putc                      10049074 f   libucrt:fputc.obj
 0001:00048081       _putchar                   10049081 f   libucrt:fputc.obj
 0001:0004808e       __get_printf_count_output  1004908e f   libucrt:printf_count_output.obj
 0001:000480a8       __set_printf_count_output  100490a8 f   libucrt:printf_count_output.obj
 0001:000480dc       ?has_temporary_buffer@__crt_stdio_stream@@QBE_NXZ 100490dc f i libucrt:_sftbuf.obj
 0001:000480e9       ___acrt_stdio_begin_temporary_buffering_nolock 100490e9 f   libucrt:_sftbuf.obj
 0001:000481cb       ___acrt_stdio_end_temporary_buffering_nolock 100491cb f   libucrt:_sftbuf.obj
 0001:00048215       ??$?RU__crt_locale_data@@@__crt_internal_free_policy@@QBEXQBU__crt_locale_data@@@Z 10049215 f i libucrt:wsetlocale.obj
 0001:0004822b       ??$?RU__crt_locale_pointers@@@__crt_internal_free_policy@@QBEXQBU__crt_locale_pointers@@@Z 1004922b f i libucrt:wsetlocale.obj
 0001:00048241       ??$?RU__crt_multibyte_data@@@__crt_internal_free_policy@@QBEXQBU__crt_multibyte_data@@@Z 10049241 f i libucrt:wsetlocale.obj
 0001:00048511       ??$__vcrt_va_start_verify_argument_type@H@@YAXXZ 10049511 f i libucrt:wsetlocale.obj
 0001:0004869c       ??0?$__crt_unique_heap_ptr@U__crt_locale_data@@U__crt_internal_free_policy@@@@QAE@QAU__crt_locale_data@@@Z 1004969c f i libucrt:wsetlocale.obj
 0001:000486b0       ??0?$__crt_unique_heap_ptr@U__crt_locale_pointers@@U__crt_internal_free_policy@@@@QAE@QAU__crt_locale_pointers@@@Z 100496b0 f i libucrt:wsetlocale.obj
 0001:000486c4       ??0?$__crt_unique_heap_ptr@U__crt_multibyte_data@@U__crt_internal_free_policy@@@@QAE@QAU__crt_multibyte_data@@@Z 100496c4 f i libucrt:wsetlocale.obj
 0001:000486d8       ??1?$__crt_unique_heap_ptr@U__crt_locale_data@@U__crt_internal_free_policy@@@@QAE@XZ 100496d8 f i libucrt:wsetlocale.obj
 0001:000486ee       ??1?$__crt_unique_heap_ptr@U__crt_locale_pointers@@U__crt_internal_free_policy@@@@QAE@XZ 100496ee f i libucrt:wsetlocale.obj
 0001:00048704       ??1?$__crt_unique_heap_ptr@U__crt_multibyte_data@@U__crt_internal_free_policy@@@@QAE@XZ 10049704 f i libucrt:wsetlocale.obj
 0001:0004871a       ??B?$__crt_unique_heap_ptr@U__crt_locale_data@@U__crt_internal_free_policy@@@@QBE_NXZ 1004971a f i libucrt:wsetlocale.obj
 0001:00048721       ??B?$__crt_unique_heap_ptr@U__crt_locale_pointers@@U__crt_internal_free_policy@@@@QBE_NXZ 10049721 f i libucrt:wsetlocale.obj
 0001:00048728       ??B?$__crt_unique_heap_ptr@U__crt_multibyte_data@@U__crt_internal_free_policy@@@@QBE_NXZ 10049728 f i libucrt:wsetlocale.obj
 0001:000489ca       ?detach@?$__crt_unique_heap_ptr@U__crt_locale_data@@U__crt_internal_free_policy@@@@QAEPAU__crt_locale_data@@XZ 100499ca f i libucrt:wsetlocale.obj
 0001:000489d0       ?detach@?$__crt_unique_heap_ptr@U__crt_locale_pointers@@U__crt_internal_free_policy@@@@QAEPAU__crt_locale_pointers@@XZ 100499d0 f i libucrt:wsetlocale.obj
 0001:000489d6       ?detach@?$__crt_unique_heap_ptr@U__crt_multibyte_data@@U__crt_internal_free_policy@@@@QAEPAU__crt_multibyte_data@@XZ 100499d6 f i libucrt:wsetlocale.obj
 0001:000489dc       ?get@?$__crt_unique_heap_ptr@U__crt_locale_data@@U__crt_internal_free_policy@@@@QBEPAU__crt_locale_data@@XZ 100499dc f i libucrt:wsetlocale.obj
 0001:000489df       ?get@?$__crt_unique_heap_ptr@U__crt_locale_pointers@@U__crt_internal_free_policy@@@@QBEPAU__crt_locale_pointers@@XZ 100499df f i libucrt:wsetlocale.obj
 0001:000489e2       ?get@?$__crt_unique_heap_ptr@U__crt_multibyte_data@@U__crt_internal_free_policy@@@@QBEPAU__crt_multibyte_data@@XZ 100499e2 f i libucrt:wsetlocale.obj
 0001:000489e5       ?is_valid@?$__crt_unique_heap_ptr@U__crt_locale_data@@U__crt_internal_free_policy@@@@QBE_NXZ 100499e5 f i libucrt:wsetlocale.obj
 0001:000489ec       ?is_valid@?$__crt_unique_heap_ptr@U__crt_locale_pointers@@U__crt_internal_free_policy@@@@QBE_NXZ 100499ec f i libucrt:wsetlocale.obj
 0001:000489f3       ?is_valid@?$__crt_unique_heap_ptr@U__crt_multibyte_data@@U__crt_internal_free_policy@@@@QBE_NXZ 100499f3 f i libucrt:wsetlocale.obj
 0001:000489fa       ?release@?$__crt_unique_heap_ptr@U__crt_locale_data@@U__crt_internal_free_policy@@@@QAEXXZ 100499fa f i libucrt:wsetlocale.obj
 0001:00048a10       ?release@?$__crt_unique_heap_ptr@U__crt_locale_pointers@@U__crt_internal_free_policy@@@@QAEXXZ 10049a10 f i libucrt:wsetlocale.obj
 0001:00048a26       ?release@?$__crt_unique_heap_ptr@U__crt_multibyte_data@@U__crt_internal_free_policy@@@@QAEXXZ 10049a26 f i libucrt:wsetlocale.obj
 0001:00048a3c       ___acrt_copy_locale_name   10049a3c f   libucrt:wsetlocale.obj
 0001:00048abb       ___acrt_set_locale_changed 10049abb f   libucrt:wsetlocale.obj
 0001:00048ac8       ___acrt_uninitialize_locale 10049ac8 f   libucrt:wsetlocale.obj
 0001:00048afb       ___lc_lctowcs              10049afb f   libucrt:wsetlocale.obj
 0001:00048b87       ___lc_wcstolc              10049b87 f   libucrt:wsetlocale.obj
 0001:00048d27       __configthreadlocale       10049d27 f   libucrt:wsetlocale.obj
 0001:00048ddb       __create_locale            10049ddb f   libucrt:wsetlocale.obj
 0001:00048e5a       __expandlocale             10049e5a f   libucrt:wsetlocale.obj
 0001:0004932e       __free_locale              1004a32e f   libucrt:wsetlocale.obj
 0001:00049414       __get_current_locale       1004a414 f   libucrt:wsetlocale.obj
 0001:000494d8       __wcreate_locale           1004a4d8 f   libucrt:wsetlocale.obj
 0001:00049623       __wcscats                  1004a623 f   libucrt:wsetlocale.obj
 0001:00049674       __wsetlocale               1004a674 f   libucrt:wsetlocale.obj
 0001:0004a1ab       ___p___mb_cur_max          1004b1ab f   libucrt:nlsdata.obj
 0001:0004a1db       __realloc_base             1004b1db f   libucrt:realloc_base.obj
 0001:0004a25e       ___acrt_initialize_locks   1004b25e f   libucrt:locks.obj
 0001:0004a2af       ___acrt_lock               1004b2af f   libucrt:locks.obj
 0001:0004a2cb       ___acrt_uninitialize_locks 1004b2cb f   libucrt:locks.obj
 0001:0004a308       ___acrt_unlock             1004b308 f   libucrt:locks.obj
 0001:0004a324       __lock_locales             1004b324 f   libucrt:locks.obj
 0001:0004a335       __unlock_locales           1004b335 f   libucrt:locks.obj
 0001:0004a553       ___acrt_get_begin_thread_init_policy 1004b553 f   libucrt:win_policies.obj
 0001:0004a5a9       ___acrt_get_developer_information_policy 1004b5a9 f   libucrt:win_policies.obj
 0001:0004a5ff       ___acrt_get_process_end_policy 1004b5ff f   libucrt:win_policies.obj
 0001:0004a63e       ___acrt_get_windowing_model_policy 1004b63e f   libucrt:win_policies.obj
 0001:0004a8a7       __close                    1004b8a7 f   libucrt:close.obj
 0001:0004a959       __close_nolock             1004b959 f   libucrt:close.obj
 0001:0004aa1c       ??$?RU__crt_stdio_stream_data@@@__crt_internal_free_policy@@QBEXQBU__crt_stdio_stream_data@@@Z 1004ba1c f i libucrt:stream.obj
 0001:0004aa32       ??0?$__crt_unique_heap_ptr@U__crt_stdio_stream_data@@U__crt_internal_free_policy@@@@QAE@QAU__crt_stdio_stream_data@@@Z 1004ba32 f i libucrt:stream.obj
 0001:0004aa46       ??0__crt_stdio_stream@@QAE@XZ 1004ba46 f i libucrt:stream.obj
 0001:0004aa4c       ??1?$__crt_unique_heap_ptr@U__crt_stdio_stream_data@@U__crt_internal_free_policy@@@@QAE@XZ 1004ba4c f i libucrt:stream.obj
 0001:0004aa62       ?__acrt_stdio_allocate_stream@@YA?AV__crt_stdio_stream@@XZ 1004ba62 f   libucrt:stream.obj
 0001:0004aad8       ?__acrt_stdio_free_stream@@YAXV__crt_stdio_stream@@@Z 1004bad8 f   libucrt:stream.obj
 0001:0004ab21       ?deallocate@__crt_stdio_stream@@QAEXXZ 1004bb21 f i libucrt:stream.obj
 0001:0004ab2d       ?detach@?$__crt_unique_heap_ptr@U__crt_stdio_stream_data@@U__crt_internal_free_policy@@@@QAEPAU__crt_stdio_stream_data@@XZ 1004bb2d f i libucrt:stream.obj
 0001:0004ac26       ?lock@__crt_stdio_stream@@QBEXXZ 1004bc26 f i libucrt:stream.obj
 0001:0004ac31       ?release@?$__crt_unique_heap_ptr@U__crt_stdio_stream_data@@U__crt_internal_free_policy@@@@QAEXXZ 1004bc31 f i libucrt:stream.obj
 0001:0004ac47       ?try_allocate@__crt_stdio_stream@@QAE_NXZ 1004bc47 f i libucrt:stream.obj
 0001:0004ac6f       ??$__acrt_stdio_parse_mode@D@@YA?AU__acrt_stdio_stream_mode@@QBD@Z 1004bc6f f i libucrt:openfile.obj
 0001:0004af29       ??$__acrt_stdio_parse_mode@_W@@YA?AU__acrt_stdio_stream_mode@@QB_W@Z 1004bf29 f i libucrt:openfile.obj
 0001:0004b37e       ??$tcsncmp@AAPBDAAY02$$CBDI@?$__crt_char_traits@D@@SAHAAPBDAAY02$$CBD$$QAI@Z 1004c37e f i libucrt:openfile.obj
 0001:0004b3a1       ??$tcsncmp@AAPB_WAAY02$$CB_WI@?$__crt_char_traits@_W@@SAHAAPB_WAAY02$$CB_W$$QAI@Z 1004c3a1 f i libucrt:openfile.obj
 0001:0004b3c4       ??$tcsnicmp@AAPBDAAY04$$CBDI@?$__crt_char_traits@D@@SAHAAPBDAAY04$$CBD$$QAI@Z 1004c3c4 f i libucrt:openfile.obj
 0001:0004b3e7       ??$tcsnicmp@AAPBDAAY06$$CBDI@?$__crt_char_traits@D@@SAHAAPBDAAY06$$CBD$$QAI@Z 1004c3e7 f i libucrt:openfile.obj
 0001:0004b40a       ??$tcsnicmp@AAPBDAAY07$$CBDI@?$__crt_char_traits@D@@SAHAAPBDAAY07$$CBD$$QAI@Z 1004c40a f i libucrt:openfile.obj
 0001:0004b42d       ??$tcsnicmp@AAPB_WAAY04$$CB_WI@?$__crt_char_traits@_W@@SAHAAPB_WAAY04$$CB_W$$QAI@Z 1004c42d f i libucrt:openfile.obj
 0001:0004b450       ??$tcsnicmp@AAPB_WAAY06$$CB_WI@?$__crt_char_traits@_W@@SAHAAPB_WAAY06$$CB_W$$QAI@Z 1004c450 f i libucrt:openfile.obj
 0001:0004b473       ??$tcsnicmp@AAPB_WAAY07$$CB_WI@?$__crt_char_traits@_W@@SAHAAPB_WAAY07$$CB_W$$QAI@Z 1004c473 f i libucrt:openfile.obj
 0001:0004b496       ??$tsopen_s@PAHABQBDABHABHH@?$__crt_char_traits@D@@SAH$$QAPAHABQBDABH2$$QAH@Z 1004c496 f i libucrt:openfile.obj
 0001:0004b4c8       ??$tsopen_s@PAHABQB_WABHABHH@?$__crt_char_traits@_W@@SAH$$QAPAHABQB_WABH2$$QAH@Z 1004c4c8 f i libucrt:openfile.obj
 0001:0004b4fa       ?__acrt_stdio_parse_mode_D@@YA_NAAU__acrt_stdio_stream_mode@@@Z 1004c4fa f i libucrt:openfile.obj
 0001:0004b51b       ?__acrt_stdio_parse_mode_N@@YA_NAAU__acrt_stdio_stream_mode@@@Z 1004c51b f i libucrt:openfile.obj
 0001:0004b531       ?__acrt_stdio_parse_mode_R@@YA_NAAU__acrt_stdio_stream_mode@@AA_N@Z 1004c531 f i libucrt:openfile.obj
 0001:0004b556       ?__acrt_stdio_parse_mode_S@@YA_NAAU__acrt_stdio_stream_mode@@AA_N@Z 1004c556 f i libucrt:openfile.obj
 0001:0004b57b       ?__acrt_stdio_parse_mode_T@@YA_NAAU__acrt_stdio_stream_mode@@@Z 1004c57b f i libucrt:openfile.obj
 0001:0004b5a1       ?__acrt_stdio_parse_mode_b@@YA_NAAU__acrt_stdio_stream_mode@@@Z 1004c5a1 f i libucrt:openfile.obj
 0001:0004b5c9       ?__acrt_stdio_parse_mode_c@@YA_NAAU__acrt_stdio_stream_mode@@AA_N@Z 1004c5c9 f i libucrt:openfile.obj
 0001:0004b5f3       ?__acrt_stdio_parse_mode_n@@YA_NAAU__acrt_stdio_stream_mode@@AA_N@Z 1004c5f3 f i libucrt:openfile.obj
 0001:0004b61d       ?__acrt_stdio_parse_mode_plus@@YA_NAAU__acrt_stdio_stream_mode@@AA_N@Z 1004c61d f i libucrt:openfile.obj
 0001:0004b65f       ?__acrt_stdio_parse_mode_t@@YA_NAAU__acrt_stdio_stream_mode@@@Z 1004c65f f i libucrt:openfile.obj
 0001:0004b687       ?__acrt_stdio_parse_mode_x@@YA_NAAU__acrt_stdio_stream_mode@@@Z 1004c687 f i libucrt:openfile.obj
 0001:0004b6af       __openfile                 1004c6af f   libucrt:openfile.obj
 0001:0004b6bc       __wopenfile                1004c6bc f   libucrt:openfile.obj
 0001:0004bd8f       __read                     1004cd8f f   libucrt:read.obj
 0001:0004bedb       __read_nolock              1004cedb f   libucrt:read.obj
 0001:0004c379       __utf8_no_of_trailbytes    1004d379 f i libucrt:read.obj
 0001:0004c898       ___acrt_stdio_refill_and_read_narrow_nolock 1004d898 f   libucrt:_filbuf.obj
 0001:0004c8a5       ___acrt_stdio_refill_and_read_wide_nolock 1004d8a5 f   libucrt:_filbuf.obj
 0001:0004d027       __write                    1004e027 f   libucrt:write.obj
 0001:0004d149       __write_nolock             1004e149 f   libucrt:write.obj
 0001:0004d88b       ___acrt_stdio_flush_and_write_narrow_nolock 1004e88b f   libucrt:_flsbuf.obj
 0001:0004d898       ___acrt_stdio_flush_and_write_wide_nolock 1004e898 f   libucrt:_flsbuf.obj
 0001:0004d927       ___acrt_MultiByteToWideChar 1004e927 f   libucrt:multibytetowidechar.obj
 0001:0004d9c2       __wremove                  1004e9c2 f   libucrt:wunlink.obj
 0001:0004d9f4       __wunlink                  1004e9f4 f   libucrt:wunlink.obj
 0001:0004de61       __lseek                    1004ee61 f   libucrt:lseek.obj
 0001:0004de6e       __lseek_nolock             1004ee6e f   libucrt:lseek.obj
 0001:0004de7b       __lseeki64                 1004ee7b f   libucrt:lseek.obj
 0001:0004de9c       __lseeki64_nolock          1004ee9c f   libucrt:lseek.obj
 0001:0004debd       __chgsign                  1004eebd f   libucrt:ieeemisc.obj
 0001:0004def7       __chgsignf                 1004eef7 f   libucrt:ieeemisc.obj
 0001:0004df22       __copysign                 1004ef22 f   libucrt:ieeemisc.obj
 0001:0004df56       __copysignf                1004ef56 f   libucrt:ieeemisc.obj
 0001:0004df7b       __finite                   1004ef7b f   libucrt:ieeemisc.obj
 0001:0004df9b       __fpclass                  1004ef9b f   libucrt:ieeemisc.obj
 0001:0004e068       __isnan                    1004f068 f   libucrt:ieeemisc.obj
 0001:0004e0ab       __logb                     1004f0ab f   libucrt:ieeemisc.obj
 0001:0004e1b0       __nextafter                1004f1b0 f   libucrt:ieeemisc.obj
 0001:0004e1d6       __scalb                    1004f1d6 f   libucrt:ieeemisc.obj
 0001:0004e1f6       __add_exp                  1004f1f6 f   libucrt:util.obj
 0001:0004e230       __decomp                   1004f230 f   libucrt:util.obj
 0001:0004e345       __get_exp                  1004f345 f   libucrt:util.obj
 0001:0004e363       __set_bexp                 1004f363 f   libucrt:util.obj
 0001:0004e396       __set_exp                  1004f396 f   libucrt:util.obj
 0001:0004e3d0       __sptype                   1004f3d0 f   libucrt:util.obj
 0001:0004e445       ___clrfp_sse2              1004f445 f   libucrt:fpctrl.obj
 0001:0004e46e       ___ctrlfp_sse2             1004f46e f   libucrt:fpctrl.obj
 0001:0004e4b7       ___fclrf_sse2              1004f4b7 f   libucrt:fpctrl.obj
 0001:0004e4dd       ___get_fpsr_sse2           1004f4dd f   libucrt:fpctrl.obj
 0001:0004e502       ___set_fpsr_sse2           1004f502 f   libucrt:fpctrl.obj
 0001:0004e595       ___set_statfp_sse2         1004f595 f   libucrt:fpctrl.obj
 0001:0004e5b6       ___statfp_sse2             1004f5b6 f   libucrt:fpctrl.obj
 0001:0004e5d0       __clrfp                    1004f5d0 f   libucrt:fpctrl.obj
 0001:0004e5e7       __ctrlfp                   1004f5e7 f   libucrt:fpctrl.obj
 0001:0004e61e       __set_statfp               1004f61e f   libucrt:fpctrl.obj
 0001:0004e68f       __statfp                   1004f68f f   libucrt:fpctrl.obj
 0001:0004e76c       ___acrt_report_runtime_error 1004f76c f   libucrt:report_runtime_error.obj
 0001:0004e8c6       __query_app_type           1004f8c6 f   libucrt:report_runtime_error.obj
 0001:0004e8cc       __set_app_type             1004f8cc f   libucrt:report_runtime_error.obj
 0001:0004eee3       __i64toa                   1004fee3 f   libucrt:xtoa.obj
 0001:0004ef36       __i64toa_s                 1004ff36 f   libucrt:xtoa.obj
 0001:0004ef87       __i64tow                   1004ff87 f   libucrt:xtoa.obj
 0001:0004efda       __i64tow_s                 1004ffda f   libucrt:xtoa.obj
 0001:0004f02b       __itoa                     1005002b f   libucrt:xtoa.obj
 0001:0004f06f       __itoa_s                   1005006f f   libucrt:xtoa.obj
 0001:0004f0b1       __itow                     100500b1 f   libucrt:xtoa.obj
 0001:0004f0f5       __itow_s                   100500f5 f   libucrt:xtoa.obj
 0001:0004f137       __ltoa                     10050137 f   libucrt:xtoa.obj
 0001:0004f17b       __ltoa_s                   1005017b f   libucrt:xtoa.obj
 0001:0004f1bd       __ltow                     100501bd f   libucrt:xtoa.obj
 0001:0004f201       __ltow_s                   10050201 f   libucrt:xtoa.obj
 0001:0004f243       __ui64toa                  10050243 f   libucrt:xtoa.obj
 0001:0004f26d       __ui64toa_s                1005026d f   libucrt:xtoa.obj
 0001:0004f295       __ui64tow                  10050295 f   libucrt:xtoa.obj
 0001:0004f2bf       __ui64tow_s                100502bf f   libucrt:xtoa.obj
 0001:0004f2e7       __ultoa                    100502e7 f   libucrt:xtoa.obj
 0001:0004f30d       __ultoa_s                  1005030d f   libucrt:xtoa.obj
 0001:0004f331       __ultow                    10050331 f   libucrt:xtoa.obj
 0001:0004f357       __ultow_s                  10050357 f   libucrt:xtoa.obj
 0001:0004f37b       __set_error_mode           1005037b f   libucrt:set_error_mode.obj
 0001:0004f457       _wcscat_s                  10050457 f   libucrt:wcscat_s.obj
 0001:0004f561       _wcscpy_s                  10050561 f   libucrt:wcscpy_s.obj
 0001:0004f701       _wcsncat_s                 10050701 f   libucrt:wcsncat_s.obj
 0001:0004f791       _strcat_s                  10050791 f   libucrt:strcat_s.obj
 0001:0004f918       _strncat_s                 10050918 f   libucrt:strncat_s.obj
 0001:0004f925       ___acrt_GetModuleFileNameA 10050925 f   libucrt:getmodulefilenamea.obj
 0001:0004fadd       ??$message_box@$$TABQBDABQBDK@?$__crt_char_traits@D@@SAH$$QA$$TABQBD1$$QAK@Z 10050add f i libucrt:crtmbox.obj
 0001:0004fb05       ??$message_box@$$TABQB_WABQB_WK@?$__crt_char_traits@_W@@SAH$$QA$$TABQB_W1$$QAK@Z 10050b05 f i libucrt:crtmbox.obj
 0001:0004fb2d       ??$message_box@PAUHWND__@@ABQBDABQBDABI@?$__crt_char_traits@D@@SAH$$QAPAUHWND__@@ABQBD1ABI@Z 10050b2d f i libucrt:crtmbox.obj
 0001:0004fb55       ??$message_box@PAUHWND__@@ABQB_WABQB_WABI@?$__crt_char_traits@_W@@SAH$$QAPAUHWND__@@ABQB_W1ABI@Z 10050b55 f i libucrt:crtmbox.obj
 0001:0004fb7d       ??$output_debug_string@ABQBD@?$__crt_char_traits@D@@SAXABQBD@Z 10050b7d f i libucrt:crtmbox.obj
 0001:0004fb92       ??$output_debug_string@ABQB_W@?$__crt_char_traits@_W@@SAXABQB_W@Z 10050b92 f i libucrt:crtmbox.obj
 0001:0004fba8       ___acrt_show_narrow_message_box 10050ba8 f   libucrt:crtmbox.obj
 0001:0004fbb5       ___acrt_show_wide_message_box 10050bb5 f   libucrt:crtmbox.obj
 0001:0004fdc4       _setvbuf                   10050dc4 f   libucrt:setvbuf.obj
 0001:0004fe69       ??$?B$$A6AXH@Z@__crt_fast_encoded_nullptr_t@@QBEP6AXH@ZXZ 10050e69 f i libucrt:signal.obj
 0001:0004ff29       ??$__crt_fast_decode_pointer@P6AXH@Z@@YAP6AXH@ZQ6AXH@Z@Z 10050f29 f i libucrt:signal.obj
 0001:0004ff44       ??$__crt_fast_encode_pointer@P6AXH@Z@@YAP6AXH@ZQ6AXH@Z@Z 10050f44 f i libucrt:signal.obj
 0001:000500ee       ?initialize@?$dual_state_global@P6AXH@Z@__crt_state_management@@QAEXQ6AXH@Z@Z 100510ee f i libucrt:signal.obj
 0001:000501cc       ?value@?$dual_state_global@P6AXH@Z@__crt_state_management@@QAEAAP6AXH@ZXZ 100511cc f i libucrt:signal.obj
 0001:000501cf       ___acrt_get_sigabrt_handler 100511cf f   libucrt:signal.obj
 0001:00050202       ___acrt_initialize_signal_handlers 10051202 f   libucrt:signal.obj
 0001:00050227       ___fpecode                 10051227 f   libucrt:signal.obj
 0001:00050232       ___pxcptinfoptrs           10051232 f   libucrt:signal.obj
 0001:0005023d       _raise                     1005123d f   libucrt:signal.obj
 0001:000504bf       _signal                    100514bf f   libucrt:signal.obj
 0001:000506dc       ??$__crt_fast_decode_pointer@P6AHPAU_exception@@@Z@@YAP6AHPAU_exception@@@ZQ6AH0@Z@Z 100516dc f i libucrt:matherr.obj
 0001:000506f7       ??$__crt_fast_encode_pointer@P6AHPAU_exception@@@Z@@YAP6AHPAU_exception@@@ZQ6AH0@Z@Z 100516f7 f i libucrt:matherr.obj
 0001:0005071d       ?initialize@?$dual_state_global@P6AHPAU_exception@@@Z@__crt_state_management@@QAEXQ6AHPAU_exception@@@Z@Z 1005171d f i libucrt:matherr.obj
 0001:0005074c       ?value@?$dual_state_global@P6AHPAU_exception@@@Z@__crt_state_management@@QAEAAP6AHPAU_exception@@@ZXZ 1005174c f i libucrt:matherr.obj
 0001:0005074f       ___acrt_has_user_matherr   1005174f f   libucrt:matherr.obj
 0001:0005076d       ___acrt_initialize_user_matherr 1005176d f   libucrt:matherr.obj
 0001:0005077f       ___acrt_invoke_user_matherr 1005177f f   libucrt:matherr.obj
 0001:000507da       ___setusermatherr          100517da f   libucrt:matherr.obj
 0001:000512e5       ??$find_first_file_ex@ABQADW4_FINDEX_INFO_LEVELS@@PAU_WIN32_FIND_DATAA@@W4_FINDEX_SEARCH_OPS@@$$TH@?$__crt_char_traits@D@@SAPAXABQAD$$QAW4_FINDEX_INFO_LEVELS@@$$QAPAU_WIN32_FIND_DATAA@@$$QAW4_FINDEX_SEARCH_OPS@@$$QA$$T$$QAH@Z 100522e5 f i libucrt:argv_wildcards.obj
 0001:0005131d       ??$find_first_file_ex@ABQA_WW4_FINDEX_INFO_LEVELS@@PAU_WIN32_FIND_DATAW@@W4_FINDEX_SEARCH_OPS@@$$TH@?$__crt_char_traits@_W@@SAPAXABQA_W$$QAW4_FINDEX_INFO_LEVELS@@$$QAPAU_WIN32_FIND_DATAW@@$$QAW4_FINDEX_SEARCH_OPS@@$$QA$$T$$QAH@Z 1005231d f i libucrt:argv_wildcards.obj
 0001:00051352       ??$find_next_file@PAXPAU_WIN32_FIND_DATAA@@@?$__crt_char_traits@D@@SAH$$QAPAX$$QAPAU_WIN32_FIND_DATAA@@@Z 10052352 f i libucrt:argv_wildcards.obj
 0001:00051370       ??$find_next_file@PAXPAU_WIN32_FIND_DATAW@@@?$__crt_char_traits@_W@@SAH$$QAPAX$$QAPAU_WIN32_FIND_DATAW@@@Z 10052370 f i libucrt:argv_wildcards.obj
 0001:0005138c       ??$tcsncpy_s@AAPADIAAPADABI@?$__crt_char_traits@D@@SAHAAPAD$$QAI0ABI@Z 1005238c f i libucrt:argv_wildcards.obj
 0001:000513b7       ??$tcsncpy_s@AAPA_WIAAPA_WABI@?$__crt_char_traits@_W@@SAHAAPA_W$$QAI0ABI@Z 100523b7 f i libucrt:argv_wildcards.obj
 0001:000513e2       ??$tcsncpy_s@PADABIABQBDABI@?$__crt_char_traits@D@@SAH$$QAPADABIABQBD1@Z 100523e2 f i libucrt:argv_wildcards.obj
 0001:0005140d       ??$tcsncpy_s@PADIABQBDABI@?$__crt_char_traits@D@@SAH$$QAPAD$$QAIABQBDABI@Z 1005240d f i libucrt:argv_wildcards.obj
 0001:00051438       ??$tcsncpy_s@PA_WABIABQB_WABI@?$__crt_char_traits@_W@@SAH$$QAPA_WABIABQB_W1@Z 10052438 f i libucrt:argv_wildcards.obj
 0001:00051463       ??$tcsncpy_s@PA_WIABQB_WABI@?$__crt_char_traits@_W@@SAH$$QAPA_W$$QAIABQB_WABI@Z 10052463 f i libucrt:argv_wildcards.obj
 0001:0005148e       ??$tcspbrk@AAPADAAY02$$CBD@?$__crt_char_traits@D@@SAPADAAPADAAY02$$CBD@Z 1005248e f i libucrt:argv_wildcards.obj
 0001:000514a9       ??$tcspbrk@AAPA_WAAY02$$CB_W@?$__crt_char_traits@_W@@SAPA_WAAPA_WAAY02$$CB_W@Z 100524a9 f i libucrt:argv_wildcards.obj
 0001:000514c4       ??0?$__crt_unique_handle_t@U__crt_findfile_traits@@@@QAE@QAX@Z 100524c4 f i libucrt:argv_wildcards.obj
 0001:000514f8       ??1?$__crt_unique_handle_t@U__crt_findfile_traits@@@@QAE@XZ 100524f8 f i libucrt:argv_wildcards.obj
 0001:000516a2       ?close@?$__crt_unique_handle_t@U__crt_findfile_traits@@@@QAEXXZ 100526a2 f i libucrt:argv_wildcards.obj
 0001:000516be       ?close@__crt_findfile_traits@@SA_NPAX@Z 100526be f i libucrt:argv_wildcards.obj
 0001:00051830       ?get@?$__crt_unique_handle_t@U__crt_findfile_traits@@@@QBEPAXXZ 10052830 f i libucrt:argv_wildcards.obj
 0001:00051833       ?get_invalid_value@__crt_findfile_traits@@SAPAXXZ 10052833 f i libucrt:argv_wildcards.obj
 0001:0005186a       ?strpbrk@@YAPADQADQBD@Z    1005286a f i libucrt:argv_wildcards.obj
 0001:00051877       ?wcspbrk@@YAPA_WPA_WPB_W@Z 10052877 f i libucrt:argv_wildcards.obj
 0001:00051884       ___acrt_expand_narrow_argv_wildcards 10052884 f   libucrt:argv_wildcards.obj
 0001:00051891       ___acrt_expand_wide_argv_wildcards 10052891 f   libucrt:argv_wildcards.obj
 0001:00051923       ??$initialize_from_array@$$BY10BAA@E@?$dual_state_global@PAE@__crt_state_management@@QAAXAAY10BAA@E@Z 10052923 f i libucrt:mbctype.obj
 0001:00051935       ??$initialize_from_array@$$BY10BAB@E@?$dual_state_global@PAE@__crt_state_management@@QAAXAAY10BAB@E@Z 10052935 f i libucrt:mbctype.obj
 0001:00051a94       ?dangerous_get_state_array@?$dual_state_global@PAE@__crt_state_management@@QAEPAPAEXZ 10052a94 f i libucrt:mbctype.obj
 0001:00051a97       ?dangerous_get_state_array@?$dual_state_global@PAU__crt_multibyte_data@@@__crt_state_management@@QAEPAPAU__crt_multibyte_data@@XZ 10052a97 f i libucrt:mbctype.obj
 0001:00051b29       ?initialize@?$dual_state_global@PAU__crt_multibyte_data@@@__crt_state_management@@QAEXQAU__crt_multibyte_data@@@Z 10052b29 f i libucrt:mbctype.obj
 0001:00052018       ?value@?$dual_state_global@PAE@__crt_state_management@@QAEAAPAEXZ 10053018 f i libucrt:mbctype.obj
 0001:0005201b       ___acrt_initialize_multibyte 1005301b f   libucrt:mbctype.obj
 0001:00052075       ___acrt_update_thread_multibyte_data 10053075 f   libucrt:mbctype.obj
 0001:0005208c       ___p__mbcasemap            1005308c f   libucrt:mbctype.obj
 0001:00052092       ___p__mbctype              10053092 f   libucrt:mbctype.obj
 0001:00052098       __getmbcp                  10053098 f   libucrt:mbctype.obj
 0001:000520db       __setmbcp                  100530db f   libucrt:mbctype.obj
 0001:00052101       __setmbcp_nolock           10053101 f   libucrt:mbctype.obj
 0001:0005248a       __ismbbalnum               1005348a f   libucrt:ismbbyte.obj
 0001:000524ab       __ismbbalnum_l             100534ab f   libucrt:ismbbyte.obj
 0001:000524ce       __ismbbalpha               100534ce f   libucrt:ismbbyte.obj
 0001:000524ef       __ismbbalpha_l             100534ef f   libucrt:ismbbyte.obj
 0001:00052512       __ismbbblank               10053512 f   libucrt:ismbbyte.obj
 0001:0005253d       __ismbbblank_l             1005353d f   libucrt:ismbbyte.obj
 0001:0005256a       __ismbbgraph               1005356a f   libucrt:ismbbyte.obj
 0001:0005258b       __ismbbgraph_l             1005358b f   libucrt:ismbbyte.obj
 0001:000525ae       __ismbbkalnum              100535ae f   libucrt:ismbbyte.obj
 0001:000525cc       __ismbbkalnum_l            100535cc f   libucrt:ismbbyte.obj
 0001:000525eb       __ismbbkana                100535eb f   libucrt:ismbbyte.obj
 0001:00052602       __ismbbkana_l              10053602 f   libucrt:ismbbyte.obj
 0001:00052667       __ismbbkprint              10053667 f   libucrt:ismbbyte.obj
 0001:00052685       __ismbbkprint_l            10053685 f   libucrt:ismbbyte.obj
 0001:000526a4       __ismbbkpunct              100536a4 f   libucrt:ismbbyte.obj
 0001:000526c2       __ismbbkpunct_l            100536c2 f   libucrt:ismbbyte.obj
 0001:000526e1       __ismbblead                100536e1 f   libucrt:ismbbyte.obj
 0001:000526ff       __ismbblead_l              100536ff f   libucrt:ismbbyte.obj
 0001:0005271e       __ismbbprint               1005371e f   libucrt:ismbbyte.obj
 0001:0005273f       __ismbbprint_l             1005373f f   libucrt:ismbbyte.obj
 0001:00052762       __ismbbpunct               10053762 f   libucrt:ismbbyte.obj
 0001:00052780       __ismbbpunct_l             10053780 f   libucrt:ismbbyte.obj
 0001:0005279f       __ismbbtrail               1005379f f   libucrt:ismbbyte.obj
 0001:000527bd       __ismbbtrail_l             100537bd f   libucrt:ismbbyte.obj
 0001:000527dc       ___acrt_initialize_command_line 100537dc f   libucrt:argv_data.obj
 0001:000527fb       ___acrt_uninitialize_command_line 100537fb f   libucrt:argv_data.obj
 0001:000527fe       ___p___argc                100537fe f   libucrt:argv_data.obj
 0001:00052804       ___p___argv                10053804 f   libucrt:argv_data.obj
 0001:0005280a       ___p___wargv               1005380a f   libucrt:argv_data.obj
 0001:00052810       ___p__acmdln               10053810 f   libucrt:argv_data.obj
 0001:00052816       ___p__pgmptr               10053816 f   libucrt:argv_data.obj
 0001:0005281c       ___p__wcmdln               1005381c f   libucrt:argv_data.obj
 0001:00052822       ___p__wpgmptr              10053822 f   libucrt:argv_data.obj
 0001:00052828       __get_pgmptr               10053828 f   libucrt:argv_data.obj
 0001:00052865       __get_wpgmptr              10053865 f   libucrt:argv_data.obj
 0001:00052920       ___acrt_WideCharToMultiByte 10053920 f   libucrt:widechartomultibyte.obj
 0001:00052ab2       ___dcrt_get_narrow_environment_from_os 10053ab2 f   libucrt:get_environment_from_os.obj
 0001:00052b59       ___dcrt_get_wide_environment_from_os 10053b59 f   libucrt:get_environment_from_os.obj
 0001:0005345d       ??$get_or_create_environment_nolock@$$V@?$__crt_char_traits@D@@SAPAPADXZ 1005445d f i libucrt:setenv.obj
 0001:00053462       ??$get_or_create_environment_nolock@$$V@?$__crt_char_traits@_W@@SAPAPA_WXZ 10054462 f i libucrt:setenv.obj
 0001:00053467       ??$set_environment_variable@ABQADQAD@?$__crt_char_traits@D@@SAHABQAD$$QBQAD@Z 10054467 f i libucrt:setenv.obj
 0001:00053485       ??$set_environment_variable@ABQA_WQA_W@?$__crt_char_traits@_W@@SAHABQA_W$$QBQA_W@Z 10054485 f i libucrt:setenv.obj
 0001:000534a1       ??$tcschr@ABQADD@?$__crt_char_traits@D@@SAPADABQAD$$QAD@Z 100544a1 f i libucrt:setenv.obj
 0001:000534c1       ??$tcschr@ABQA_WD@?$__crt_char_traits@_W@@SAPA_WABQA_W$$QAD@Z 100544c1 f i libucrt:setenv.obj
 0001:000534e6       ??$tcscpy_s@AAPADABIAAPAD@?$__crt_char_traits@D@@SAHAAPADABI0@Z 100544e6 f i libucrt:setenv.obj
 0001:0005350b       ??$tcscpy_s@AAPA_WABIAAPA_W@?$__crt_char_traits@_W@@SAHAAPA_WABI0@Z 1005450b f i libucrt:setenv.obj
 0001:00053530       ??$tcscpy_s@ABQADABIABQAD@?$__crt_char_traits@D@@SAHABQADABI0@Z 10054530 f i libucrt:setenv.obj
 0001:00053555       ??$tcscpy_s@ABQA_WABIABQA_W@?$__crt_char_traits@_W@@SAHABQA_WABI0@Z 10054555 f i libucrt:setenv.obj
 0001:0005357a       ??$tcsnicoll@ABQBDAAPADABI@?$__crt_char_traits@D@@SAHABQBDAAPADABI@Z 1005457a f i libucrt:setenv.obj
 0001:0005359f       ??$tcsnicoll@ABQB_WAAPA_WABI@?$__crt_char_traits@_W@@SAHABQB_WAAPA_WABI@Z 1005459f f i libucrt:setenv.obj
 0001:000535e8       ?strchr@@YAPADQADH@Z       100545e8 f i libucrt:setenv.obj
 0001:000535f5       ?wcschr@@YAPA_WPA_W_W@Z    100545f5 f i libucrt:setenv.obj
 0001:00053602       ___dcrt_set_variable_in_narrow_environment_nolock 10054602 f   libucrt:setenv.obj
 0001:0005360f       ___dcrt_set_variable_in_wide_environment_nolock 1005460f f   libucrt:setenv.obj
 0001:0005361c       __recalloc                 1005461c f   libucrt:recalloc.obj
 0001:00053629       __recalloc_base            10054629 f   libucrt:recalloc.obj
 0001:000536b1       ___acrt_getheap            100546b1 f   libucrt:heap_handle.obj
 0001:000536b7       ___acrt_initialize_heap    100546b7 f   libucrt:heap_handle.obj
 0001:000536cc       ___acrt_uninitialize_heap  100546cc f   libucrt:heap_handle.obj
 0001:000536d8       __get_heap_handle          100546d8 f   libucrt:heap_handle.obj
 0001:000536de       ___acrt_execute_initializers 100546de f   libucrt:shared_initialization.obj
 0001:00053781       ___acrt_execute_uninitializers 10054781 f   libucrt:shared_initialization.obj
 0001:000537db       ??$?B$$A6AHI@Z@__crt_fast_encoded_nullptr_t@@QBEP6AHI@ZXZ 100547db f i libucrt:new_handler.obj
 0001:000537f9       ??$__crt_fast_decode_pointer@P6AHI@Z@@YAP6AHI@ZQ6AHI@Z@Z 100547f9 f i libucrt:new_handler.obj
 0001:00053814       ??$__crt_fast_encode_pointer@P6AHI@Z@@YAP6AHI@ZQ6AHI@Z@Z 10054814 f i libucrt:new_handler.obj
 0001:0005383a       ?_set_new_handler@@YAP6AHI@ZH@Z 1005483a f   libucrt:new_handler.obj
 0001:00053860       ?initialize@?$dual_state_global@P6AHI@Z@__crt_state_management@@QAEXQ6AHI@Z@Z 10054860 f i libucrt:new_handler.obj
 0001:0005388f       ?value@?$dual_state_global@P6AHI@Z@__crt_state_management@@QAEAAP6AHI@ZXZ 1005488f f i libucrt:new_handler.obj
 0001:00053892       ___acrt_initialize_new_handler 10054892 f   libucrt:new_handler.obj
 0001:000538a4       __callnewh                 100548a4 f   libucrt:new_handler.obj
 0001:000538f9       __query_new_handler        100548f9 f   libucrt:new_handler.obj
 0001:0005395f       __set_new_handler          1005495f f   libucrt:new_handler.obj
 0001:000539d7       ___pctype_func             100549d7 f   libucrt:ctype.obj
 0001:00053a06       ___pwctype_func            10054a06 f   libucrt:ctype.obj
 0001:00053a0c       __iswctype_l               10054a0c f   libucrt:iswctype.obj
 0001:00053a25       _iswctype                  10054a25 f   libucrt:iswctype.obj
 0001:00053aaa       __isctype                  10054aaa f   libucrt:isctype.obj
 0001:00053ae8       __isctype_l                10054ae8 f   libucrt:isctype.obj
 0001:00053bf6       ?value@?$dual_state_global@J@__crt_state_management@@QAEAAJXZ 10054bf6 f i libucrt:new_mode.obj
 0001:00053bf9       __query_new_mode           10054bf9 f   libucrt:new_mode.obj
 0001:00053bff       __set_new_mode             10054bff f   libucrt:new_mode.obj
 0001:00053de5       ___acrt_DownlevelLCIDToLocaleName 10054de5 f   libucrt:lcidtoname_downlevel.obj
 0001:00053eb9       ___acrt_DownlevelLocaleNameToLCID 10054eb9 f   libucrt:lcidtoname_downlevel.obj
 0001:000540a0       __commit                   100550a0 f   libucrt:commit.obj
 0001:0005413e       ??$?RU__crt_lowio_handle_data@@@__crt_internal_free_policy@@QBEXQBU__crt_lowio_handle_data@@@Z 1005513e f i libucrt:osfinfo.obj
 0001:00054154       ??0?$__crt_unique_heap_ptr@U__crt_lowio_handle_data@@U__crt_internal_free_policy@@@@QAE@QAU__crt_lowio_handle_data@@@Z 10055154 f i libucrt:osfinfo.obj
 0001:00054168       ??1?$__crt_unique_heap_ptr@U__crt_lowio_handle_data@@U__crt_internal_free_policy@@@@QAE@XZ 10055168 f i libucrt:osfinfo.obj
 0001:0005417e       ??B?$__crt_unique_heap_ptr@U__crt_lowio_handle_data@@U__crt_internal_free_policy@@@@QBE_NXZ 1005517e f i libucrt:osfinfo.obj
 0001:00054185       ?detach@?$__crt_unique_heap_ptr@U__crt_lowio_handle_data@@U__crt_internal_free_policy@@@@QAEPAU__crt_lowio_handle_data@@XZ 10055185 f i libucrt:osfinfo.obj
 0001:0005418b       ?get@?$__crt_unique_heap_ptr@U__crt_lowio_handle_data@@U__crt_internal_free_policy@@@@QBEPAU__crt_lowio_handle_data@@XZ 1005518b f i libucrt:osfinfo.obj
 0001:0005418e       ?is_valid@?$__crt_unique_heap_ptr@U__crt_lowio_handle_data@@U__crt_internal_free_policy@@@@QBE_NXZ 1005518e f i libucrt:osfinfo.obj
 0001:00054195       ?release@?$__crt_unique_heap_ptr@U__crt_lowio_handle_data@@U__crt_internal_free_policy@@@@QAEXXZ 10055195 f i libucrt:osfinfo.obj
 0001:000541ab       ___acrt_lowio_create_handle_array 100551ab f   libucrt:osfinfo.obj
 0001:00054243       ___acrt_lowio_destroy_handle_array 10055243 f   libucrt:osfinfo.obj
 0001:00054285       ___acrt_lowio_ensure_fh_exists 10055285 f   libucrt:osfinfo.obj
 0001:0005433e       ___acrt_lowio_lock_fh      1005533e f   libucrt:osfinfo.obj
 0001:00054369       ___acrt_lowio_set_os_handle 10055369 f   libucrt:osfinfo.obj
 0001:00054422       ___acrt_lowio_unlock_fh    10055422 f   libucrt:osfinfo.obj
 0001:0005444d       __alloc_osfhnd             1005544d f   libucrt:osfinfo.obj
 0001:00054598       __free_osfhnd              10055598 f   libucrt:osfinfo.obj
 0001:0005464d       __get_osfhandle            1005564d f   libucrt:osfinfo.obj
 0001:000546d1       __open_osfhandle           100556d1 f   libucrt:osfinfo.obj
 0001:00054820       ___iswcsym                 10055820 f i libucrt:_wctype.obj
 0001:0005484f       ___iswcsymf                1005584f f i libucrt:_wctype.obj
 0001:0005487e       __isleadbyte_l             1005587e f i libucrt:_wctype.obj
 0001:000548c5       __iswalnum_l               100558c5 f i libucrt:_wctype.obj
 0001:000548e0       __iswalpha_l               100558e0 f i libucrt:_wctype.obj
 0001:000548fb       __iswblank_l               100558fb f i libucrt:_wctype.obj
 0001:0005491f       __iswcntrl_l               1005591f f i libucrt:_wctype.obj
 0001:00054936       __iswcsym_l                10055936 f i libucrt:_wctype.obj
 0001:00054965       __iswcsymf_l               10055965 f i libucrt:_wctype.obj
 0001:00054994       __iswdigit_l               10055994 f i libucrt:_wctype.obj
 0001:000549ab       __iswgraph_l               100559ab f i libucrt:_wctype.obj
 0001:000549c6       __iswlower_l               100559c6 f i libucrt:_wctype.obj
 0001:000549dd       __iswprint_l               100559dd f i libucrt:_wctype.obj
 0001:000549f8       __iswpunct_l               100559f8 f i libucrt:_wctype.obj
 0001:00054a0f       __iswspace_l               10055a0f f i libucrt:_wctype.obj
 0001:00054a26       __iswupper_l               10055a26 f i libucrt:_wctype.obj
 0001:00054a3d       __iswxdigit_l              10055a3d f i libucrt:_wctype.obj
 0001:00054a58       _isleadbyte                10055a58 f i libucrt:_wctype.obj
 0001:00054a6f       _iswalnum                  10055a6f f i libucrt:_wctype.obj
 0001:00054a8a       _iswalpha                  10055a8a f i libucrt:_wctype.obj
 0001:00054aa5       _iswascii                  10055aa5 f i libucrt:_wctype.obj
 0001:00054abe       _iswblank                  10055abe f i libucrt:_wctype.obj
 0001:00054ae2       _iswcntrl                  10055ae2 f i libucrt:_wctype.obj
 0001:00054af9       _iswdigit                  10055af9 f i libucrt:_wctype.obj
 0001:00054b10       _iswgraph                  10055b10 f i libucrt:_wctype.obj
 0001:00054b2b       _iswlower                  10055b2b f i libucrt:_wctype.obj
 0001:00054b42       _iswprint                  10055b42 f i libucrt:_wctype.obj
 0001:00054b5d       _iswpunct                  10055b5d f i libucrt:_wctype.obj
 0001:00054b74       _iswspace                  10055b74 f i libucrt:_wctype.obj
 0001:00054b8b       _iswupper                  10055b8b f i libucrt:_wctype.obj
 0001:00054ba2       _iswxdigit                 10055ba2 f i libucrt:_wctype.obj
 0001:00054bbd       ??0?$__crt_scoped_stack_ptr@_W@@QAE@U?$__crt_scoped_stack_ptr_tag@_W@@@Z 10055bbd f i libucrt:lcmapstringa.obj
 0001:00054bd1       ??0?$__crt_scoped_stack_ptr_tag@_W@@QAE@QA_W@Z 10055bd1 f i libucrt:lcmapstringa.obj
 0001:00054be5       ??1?$__crt_scoped_stack_ptr@_W@@QAE@XZ 10055be5 f i libucrt:lcmapstringa.obj
 0001:00054bf0       ??B?$__crt_scoped_stack_ptr@_W@@QBE_NXZ 10055bf0 f i libucrt:lcmapstringa.obj
 0001:00054e5e       ?get@?$__crt_scoped_stack_ptr@_W@@QBEPA_WXZ 10055e5e f i libucrt:lcmapstringa.obj
 0001:00054e61       __MallocaComputeSize       10055e61 f i libucrt:lcmapstringa.obj
 0001:00054e78       __MarkAllocaS              10055e78 f i libucrt:lcmapstringa.obj
 0001:00054e93       ___acrt_LCMapStringA       10055e93 f   libucrt:lcmapstringa.obj
 0001:00054ef0       __freea_crt                10055ef0 f i libucrt:lcmapstringa.obj
 0001:00054f4f       ?__mbrtowc_utf8@__crt_mbstring@@YAIPA_WPBDIPAU_Mbstatet@@@Z 10055f4f f   libucrt:mbrtowc.obj
 0001:00054fa1       ?__mbsrtowcs_utf8@__crt_mbstring@@YAIPA_WPAPBDIPAU_Mbstatet@@@Z 10055fa1 f   libucrt:mbrtowc.obj
 0001:000554be       _btowc                     100564be f   libucrt:mbrtowc.obj
 0001:0005552e       _mbrlen                    1005652e f   libucrt:mbrtowc.obj
 0001:0005556f       _mbrtowc                   1005656f f   libucrt:mbrtowc.obj
 0001:000555d6       _mbsrtowcs                 100565d6 f   libucrt:mbrtowc.obj
 0001:000555e3       _mbsrtowcs_s               100565e3 f   libucrt:mbrtowc.obj
 0001:000556ae       ??$?RG@__crt_internal_free_policy@@QBEXQBG@Z 100566ae f i libucrt:initctype.obj
 0001:000556c4       ??$?RJ@__crt_internal_free_policy@@QBEXQBJ@Z 100566c4 f i libucrt:initctype.obj
 0001:000556da       ??0?$__crt_unique_heap_ptr@GU__crt_internal_free_policy@@@@QAE@QAG@Z 100566da f i libucrt:initctype.obj
 0001:000556ee       ??0?$__crt_unique_heap_ptr@JU__crt_internal_free_policy@@@@QAE@QAJ@Z 100566ee f i libucrt:initctype.obj
 0001:00055702       ??1?$__crt_unique_heap_ptr@GU__crt_internal_free_policy@@@@QAE@XZ 10056702 f i libucrt:initctype.obj
 0001:00055718       ??1?$__crt_unique_heap_ptr@JU__crt_internal_free_policy@@@@QAE@XZ 10056718 f i libucrt:initctype.obj
 0001:0005572e       ?detach@?$__crt_unique_heap_ptr@GU__crt_internal_free_policy@@@@QAEPAGXZ 1005672e f i libucrt:initctype.obj
 0001:00055734       ?detach@?$__crt_unique_heap_ptr@JU__crt_internal_free_policy@@@@QAEPAJXZ 10056734 f i libucrt:initctype.obj
 0001:0005573a       ?release@?$__crt_unique_heap_ptr@GU__crt_internal_free_policy@@@@QAEXXZ 1005673a f i libucrt:initctype.obj
 0001:00055750       ?release@?$__crt_unique_heap_ptr@JU__crt_internal_free_policy@@@@QAEXXZ 10056750 f i libucrt:initctype.obj
 0001:00055766       ____lc_codepage_func       10056766 f   libucrt:initctype.obj
 0001:00055796       ____lc_collate_cp_func     10056796 f   libucrt:initctype.obj
 0001:000557c6       ____lc_locale_name_func    100567c6 f   libucrt:initctype.obj
 0001:000557f9       ____mb_cur_max_func        100567f9 f   libucrt:initctype.obj
 0001:00055829       ____mb_cur_max_l_func      10056829 f   libucrt:initctype.obj
 0001:00055848       ___acrt_locale_initialize_ctype 10056848 f   libucrt:initctype.obj
 0001:00055d89       ___acrt_add_locale_ref     10056d89 f   libucrt:locale_refcounting.obj
 0001:00055e25       ___acrt_free_locale        10056e25 f   libucrt:locale_refcounting.obj
 0001:00055fc1       ___acrt_locale_add_lc_time_reference 10056fc1 f   libucrt:locale_refcounting.obj
 0001:00055ff4       ___acrt_locale_free_lc_time_if_unreferenced 10056ff4 f   libucrt:locale_refcounting.obj
 0001:00056030       ___acrt_locale_release_lc_time_reference 10057030 f   libucrt:locale_refcounting.obj
 0001:00056063       ___acrt_release_locale_ref 10057063 f   libucrt:locale_refcounting.obj
 0001:00056104       ___acrt_update_thread_locale_data 10057104 f   libucrt:locale_refcounting.obj
 0001:00056198       __updatetlocinfoEx_nolock  10057198 f   libucrt:locale_refcounting.obj
 0001:000561fc       ___acrt_fp_strflt_to_string 100571fc f   libucrt:_fptostr.obj
 0001:00057b20       ??0big_integer@__crt_strtox@@QAE@ABU01@@Z 10058b20 f i libucrt:cfout.obj
 0001:00057b60       ??0big_integer@__crt_strtox@@QAE@XZ 10058b60 f i libucrt:cfout.obj
 0001:00057bc0       ??4big_integer@__crt_strtox@@QAEAAU01@ABU01@@Z 10058bc0 f i libucrt:cfout.obj
 0001:00057c00       ??8__crt_strtox@@YA_NABUbig_integer@0@0@Z 10058c00 f i libucrt:cfout.obj
 0001:00057c50       ??9__crt_strtox@@YA_NABUbig_integer@0@0@Z 10058c50 f i libucrt:cfout.obj
 0001:00057ca0       ?add_carry@__crt_strtox@@YAIAAIII@Z 10058ca0 f i libucrt:cfout.obj
 0001:00057cd0       ?add_multiply_carry@__crt_strtox@@YAIAAIIII@Z 10058cd0 f i libucrt:cfout.obj
 0001:00057d00       ?bit_scan_reverse@__crt_strtox@@YAII@Z 10058d00 f i libucrt:cfout.obj
 0001:00057d30       ?count_sequential_high_zeroes@__crt_strtox@@YAII@Z 10058d30 f i libucrt:cfout.obj
 0001:00057d60       ?divide@__crt_strtox@@YA_KAAUbig_integer@1@ABU21@@Z 10058d60 f i libucrt:cfout.obj
 0001:00058310       ?is_zero@__crt_strtox@@YA_NABUbig_integer@1@@Z 10059310 f i libucrt:cfout.obj
 0001:00058330       ?make_big_integer@__crt_strtox@@YA?AUbig_integer@1@_K@Z 10059330 f i libucrt:cfout.obj
 0001:00058360       ?make_big_integer_power_of_two@__crt_strtox@@YA?AUbig_integer@1@I@Z 10059360 f i libucrt:cfout.obj
 0001:000583c0       ?multiply@__crt_strtox@@YA_NAAUbig_integer@1@ABU21@@Z 100593c0 f i libucrt:cfout.obj
 0001:000587d0       ?multiply@__crt_strtox@@YA_NAAUbig_integer@1@I@Z 100597d0 f i libucrt:cfout.obj
 0001:000588d0       ?multiply_64_32@__crt_strtox@@YA_K_KI@Z 100598d0 f i libucrt:cfout.obj
 0001:000588f0       ?multiply_by_power_of_ten@__crt_strtox@@YA_NAAUbig_integer@1@I@Z 100598f0 f i libucrt:cfout.obj
 0001:00058f60       ?multiply_core@__crt_strtox@@YAIQAIII@Z 10059f60 f i libucrt:cfout.obj
 0001:00058fb0       ?shift_left@__crt_strtox@@YA_NAAUbig_integer@1@I@Z 10059fb0 f i libucrt:cfout.obj
 0001:0005915b       ___acrt_fltout             1005a15b f   libucrt:cfout.obj
 0001:0005aa46       __isatty                   1005ba46 f   libucrt:isatty.obj
 0001:0005aab1       ??$?RUlconv@@@__crt_internal_free_policy@@QBEXQBUlconv@@@Z 1005bab1 f i libucrt:initmon.obj
 0001:0005aac7       ??0?$__crt_unique_heap_ptr@Ulconv@@U__crt_internal_free_policy@@@@QAE@QAUlconv@@@Z 1005bac7 f i libucrt:initmon.obj
 0001:0005aadb       ??1?$__crt_unique_heap_ptr@Ulconv@@U__crt_internal_free_policy@@@@QAE@XZ 1005badb f i libucrt:initmon.obj
 0001:0005aaf1       ?detach@?$__crt_unique_heap_ptr@Ulconv@@U__crt_internal_free_policy@@@@QAEPAUlconv@@XZ 1005baf1 f i libucrt:initmon.obj
 0001:0005aaf7       ?release@?$__crt_unique_heap_ptr@Ulconv@@U__crt_internal_free_policy@@@@QAEXXZ 1005baf7 f i libucrt:initmon.obj
 0001:0005ab0d       ___acrt_locale_free_monetary 1005bb0d f   libucrt:initmon.obj
 0001:0005ac4a       ___acrt_locale_initialize_monetary 1005bc4a f   libucrt:initmon.obj
 0001:0005b137       ___acrt_locale_free_numeric 1005c137 f   libucrt:initnum.obj
 0001:0005b1ba       ___acrt_locale_initialize_numeric 1005c1ba f   libucrt:initnum.obj
 0001:0005b495       ??$?RU__crt_lc_time_data@@@__crt_internal_free_policy@@QBEXQBU__crt_lc_time_data@@@Z 1005c495 f i libucrt:inittime.obj
 0001:0005b535       ??0?$__crt_unique_heap_ptr@U__crt_lc_time_data@@U__crt_internal_free_policy@@@@QAE@QAU__crt_lc_time_data@@@Z 1005c535 f i libucrt:inittime.obj
 0001:0005b549       ??1?$__crt_unique_heap_ptr@U__crt_lc_time_data@@U__crt_internal_free_policy@@@@QAE@XZ 1005c549 f i libucrt:inittime.obj
 0001:0005b55f       ??B?$__crt_unique_heap_ptr@U__crt_lc_time_data@@U__crt_internal_free_policy@@@@QBE_NXZ 1005c55f f i libucrt:inittime.obj
 0001:0005b566       ?detach@?$__crt_unique_heap_ptr@U__crt_lc_time_data@@U__crt_internal_free_policy@@@@QAEPAU__crt_lc_time_data@@XZ 1005c566 f i libucrt:inittime.obj
 0001:0005b5b2       ?get@?$__crt_unique_heap_ptr@U__crt_lc_time_data@@U__crt_internal_free_policy@@@@QBEPAU__crt_lc_time_data@@XZ 1005c5b2 f i libucrt:inittime.obj
 0001:0005b94b       ?is_valid@?$__crt_unique_heap_ptr@U__crt_lc_time_data@@U__crt_internal_free_policy@@@@QBE_NXZ 1005c94b f i libucrt:inittime.obj
 0001:0005b952       ?release@?$__crt_unique_heap_ptr@U__crt_lc_time_data@@U__crt_internal_free_policy@@@@QAEXXZ 1005c952 f i libucrt:inittime.obj
 0001:0005b968       ___acrt_locale_free_time   1005c968 f   libucrt:inittime.obj
 0001:0005ba85       ___acrt_locale_initialize_time 1005ca85 f   libucrt:inittime.obj
 0001:0005bc1d       _wcsncpy_s                 1005cc1d f   libucrt:wcsncpy_s.obj
 0001:0005bc2a       _wcscspn                   1005cc2a f   libucrt:wcscspn.obj
 0001:0005bc9b       _wcspbrk                   1005cc9b f   libucrt:wcspbrk.obj
 0001:0005bcfc       __wcsicmp                  1005ccfc f   libucrt:wcsicmp.obj
 0001:0005bdad       __wcsicmp_l                1005cdad f   libucrt:wcsicmp.obj
 0001:0005bec1       ___acrt_GetStringTypeA     1005cec1 f   libucrt:getstringtypea.obj
 0001:0005c936       ___acrt_get_qualified_locale 1005d936 f   libucrt:get_qualified_locale.obj
 0001:0005d524       ___acrt_get_qualified_locale_downlevel 1005e524 f   libucrt:getqloc_downlevel.obj
 0001:0005d798       _localeconv                1005e798 f   libucrt:localeconv.obj
 0001:0005d7cc       __wcsnicmp                 1005e7cc f   libucrt:wcsnicmp.obj
 0001:0005d8a9       __wcsnicmp_l               1005e8a9 f   libucrt:wcsnicmp.obj
 0001:0005d9e5       __strnicmp                 1005e9e5 f   libucrt:strnicmp.obj
 0001:0005da6d       __strnicmp_l               1005ea6d f   libucrt:strnicmp.obj
 0001:0005dbf6       ??$__vcrt_va_start_verify_argument_type@$$CBH@@YAXXZ 1005ebf6 f i libucrt:open.obj
 0001:0005df67       ??$tsopen_nolock@PAHABQAHABQBDABHABHABHABH@?$__crt_char_traits@D@@SAH$$QAPAHABQAHABQBDABH333@Z 1005ef67 f i libucrt:open.obj
 0001:0005dfa5       ??$tsopen_nolock@PAHABQAHABQB_WABHABHABHABH@?$__crt_char_traits@_W@@SAH$$QAPAHABQAHABQB_WABH333@Z 1005efa5 f i libucrt:open.obj
 0001:0005dfe3       ??$tsopen_nolock@PAHPAHABQBDABHHABHH@?$__crt_char_traits@D@@SAH$$QAPAH0ABQBDABH$$QAH23@Z 1005efe3 f i libucrt:open.obj
 0001:0005e021       ??$tsopen_nolock@PAHPAHABQB_WABHHABHH@?$__crt_char_traits@_W@@SAH$$QAPAH0ABQB_WABH$$QAH23@Z 1005f021 f i libucrt:open.obj
 0001:0005e813       __open                     1005f813 f   libucrt:open.obj
 0001:0005e831       __sopen                    1005f831 f   libucrt:open.obj
 0001:0005e873       __sopen_dispatch           1005f873 f   libucrt:open.obj
 0001:0005e880       __sopen_nolock             1005f880 f   libucrt:open.obj
 0001:0005e90c       __sopen_s                  1005f90c f   libucrt:open.obj
 0001:0005e934       __wopen                    1005f934 f   libucrt:open.obj
 0001:0005e952       __wsopen                   1005f952 f   libucrt:open.obj
 0001:0005e994       __wsopen_dispatch          1005f994 f   libucrt:open.obj
 0001:0005e9a1       __wsopen_nolock            1005f9a1 f   libucrt:open.obj
 0001:0005ed98       __wsopen_s                 1005fd98 f   libucrt:open.obj
 0001:0005edc0       ___p__commode              1005fdc0 f   libucrt:ncommode.obj
 0001:0005edc6       ___acrt_stdio_allocate_buffer_nolock 1005fdc6 f   libucrt:_getbuf.obj
 0001:0005ef42       __putwch                   1005ff42 f   libucrt:putwch.obj
 0001:0005ef7c       __putwch_nolock            1005ff7c f   libucrt:putwch.obj
 0001:0005efbd       _nextafter                 1005ffbd f   libucrt:nextafter.obj
 0001:0005f1f1       __mbstowcs_l               100601f1 f   libucrt:mbstowcs.obj
 0001:0005f1fe       __mbstowcs_s_l             100601fe f   libucrt:mbstowcs.obj
 0001:0005f318       _mbstowcs                  10060318 f   libucrt:mbstowcs.obj
 0001:0005f34c       _mbstowcs_s                1006034c f   libucrt:mbstowcs.obj
 0001:0005f374       ___acrt_OutputDebugStringA@4 10060374 f   libucrt:outputdebugstringa.obj
 0001:0005f520       _qsort                     10060520 f   libucrt:qsort.obj
 0001:0005fb51       _strncpy_s                 10060b51 f   libucrt:strncpy_s.obj
 0001:0005fb60       _strpbrk                   10060b60 f   libucrt:strpbrk.obj
 0001:0005fbb0       ??$__acrt_convert_wcs_mbs@D_W$$A6AIPA_WPBDIPAU__crt_locale_pointers@@@ZU__crt_win32_buffer_internal_dynamic_resizing@@@@YAHQBDAAV?$__crt_win32_buffer@_WU__crt_win32_buffer_internal_dynamic_resizing@@@@A6AIPA_WPBDIPAU__crt_locale_pointers@@@Z4@Z 10060bb0 f i libucrt:findfirstfileexa.obj
 0001:0005fc79       ??$__acrt_mbs_to_wcs@U__crt_win32_buffer_internal_dynamic_resizing@@@@YAHQBDAAV?$__crt_win32_buffer@_WU__crt_win32_buffer_internal_dynamic_resizing@@@@PAU__crt_locale_pointers@@@Z 10060c79 f i libucrt:findfirstfileexa.obj
 0001:0005fc9d       ?set_to_nullptr@?$__crt_win32_buffer@_WU__crt_win32_buffer_internal_dynamic_resizing@@@@QAEXXZ 10060c9d f i libucrt:findfirstfileexa.obj
 0001:0005fcb9       ___acrt_FindFirstFileExA   10060cb9 f   libucrt:findfirstfileexa.obj
 0001:0005fd38       ??$?0$0BAE@@?$__crt_win32_buffer@DU__crt_win32_buffer_no_resizing@@@@QAE@AAY0BAE@D@Z 10060d38 f i libucrt:findnextfilea.obj
 0001:0005fd67       ??$?0$0O@@?$__crt_win32_buffer@DU__crt_win32_buffer_no_resizing@@@@QAE@AAY0O@D@Z 10060d67 f i libucrt:findnextfilea.obj
 0001:0005fd94       ??$__acrt_convert_wcs_mbs@_WD$$A6AIPADPB_WIPAU__crt_locale_pointers@@@ZU__crt_win32_buffer_no_resizing@@@@YAHQB_WAAV?$__crt_win32_buffer@DU__crt_win32_buffer_no_resizing@@@@A6AIPADPB_WIPAU__crt_locale_pointers@@@Z4@Z 10060d94 f i libucrt:findnextfilea.obj
 0001:0005fe5e       ??$__acrt_wcs_to_mbs@U__crt_win32_buffer_no_resizing@@@@YAHQB_WAAV?$__crt_win32_buffer@DU__crt_win32_buffer_no_resizing@@@@PAU__crt_locale_pointers@@@Z 10060e5e f i libucrt:findnextfilea.obj
 0001:0005fe82       ??1?$__crt_win32_buffer@DU__crt_win32_buffer_no_resizing@@@@QAE@XZ 10060e82 f i libucrt:findnextfilea.obj
 0001:0005fe8f       ?_deallocate@?$__crt_win32_buffer@DU__crt_win32_buffer_no_resizing@@@@AAEXXZ 10060e8f f i libucrt:findnextfilea.obj
 0001:0005fe9c       ?allocate@?$__crt_win32_buffer@DU__crt_win32_buffer_no_resizing@@@@QAEHI@Z 10060e9c f i libucrt:findnextfilea.obj
 0001:0005fecc       ?allocate@__crt_win32_buffer_no_resizing@@SAHQAPAXIABV__crt_win32_buffer_empty_debug_info@@@Z 10060ecc f i libucrt:findnextfilea.obj
 0001:0005fedc       ?capacity@?$__crt_win32_buffer@DU__crt_win32_buffer_no_resizing@@@@QBEIXZ 10060edc f i libucrt:findnextfilea.obj
 0001:0005fee0       ?data@?$__crt_win32_buffer@DU__crt_win32_buffer_no_resizing@@@@QAEPADXZ 10060ee0 f i libucrt:findnextfilea.obj
 0001:0005fee4       ?deallocate@__crt_win32_buffer_no_resizing@@SAXQAXABV__crt_win32_buffer_empty_debug_info@@@Z 10060ee4 f i libucrt:findnextfilea.obj
 0001:0005fee5       ?debug_info@?$__crt_win32_buffer@DU__crt_win32_buffer_no_resizing@@@@QBEABV__crt_win32_buffer_empty_debug_info@@XZ 10060ee5 f i libucrt:findnextfilea.obj
 0001:0005fee8       ?set_to_nullptr@?$__crt_win32_buffer@DU__crt_win32_buffer_no_resizing@@@@QAEXXZ 10060ee8 f i libucrt:findnextfilea.obj
 0001:0005ff01       ?size@?$__crt_win32_buffer@DU__crt_win32_buffer_no_resizing@@@@QAEXI@Z 10060f01 f i libucrt:findnextfilea.obj
 0001:0005ff13       ___acrt_FindNextFileA      10060f13 f   libucrt:findnextfilea.obj
 0001:000600a4       __mbsdec                   100610a4 f   libucrt:mbsdec.obj
 0001:000600c0       __mbsdec_l                 100610c0 f   libucrt:mbsdec.obj
 0001:00060184       __wcsnicoll                10061184 f   libucrt:wcsnicol.obj
 0001:0006027c       __wcsnicoll_l              1006127c f   libucrt:wcsnicol.obj
 0001:000603e1       __strnicoll                100613e1 f   libucrt:strnicol.obj
 0001:00060414       __strnicoll_l              10061414 f   libucrt:strnicol.obj
 0001:00060510       ___acrt_SetEnvironmentVariableA 10061510 f   libucrt:setenvironmentvariablea.obj
 0001:000605df       __msize                    100615df f   libucrt:msize.obj
 0001:000605ec       __msize_base               100615ec f   libucrt:msize.obj
 0001:0006062b       ___acrt_GetStringTypeW     1006162b f   libucrt:getstringtypew.obj
 0001:0006064a       ___strncnt                 1006164a f   libucrt:strncnt.obj
 0001:0006066d       ?__mbrtoc32_utf8@__crt_mbstring@@YAIPA_UPBDIPAU_Mbstatet@@@Z 1006166d f   libucrt:mbrtoc32.obj
 0001:0006088e       ?reset_and_return@__crt_mbstring@@YAIIPAU_Mbstatet@@@Z 1006188e f i libucrt:mbrtoc32.obj
 0001:000608a7       ?return_illegal_sequence@__crt_mbstring@@YAIPAU_Mbstatet@@@Z 100618a7 f i libucrt:mbrtoc32.obj
 0001:000608cd       _mbrtoc32                  100618cd f   libucrt:mbrtoc32.obj
 0001:000609f3       ___acrt_GetLocaleInfoA     100619f3 f   libucrt:getlocaleinfoa.obj
 0001:00060c11       _fegetenv                  10061c11 f   libucrt:fegetenv.obj
 0001:00060c35       _fesetenv                  10061c35 f   libucrt:fesetenv.obj
 0001:00060c95       _feholdexcept              10061c95 f   libucrt:feholdexcept.obj
 0001:00060d00       __CIlog10                  10061d00 f   libucrt:log10_impl.obj
 0001:00060d3b       __CIlog10_default          10061d3b f   libucrt:log10_impl.obj
 0001:00060d4f       __log10_default            10061d4f     libucrt:log10_impl.obj
 0001:00060e60       _ceil                      10061e60 f   libucrt:ceil_pentium4.obj
 0001:00060ea0       __ceil_pentium4            10061ea0 f   libucrt:ceil_pentium4.obj
 0001:00060fc4       __towlower_l               10061fc4 f   libucrt:towlower.obj
 0001:000610bf       _towlower                  100620bf f   libucrt:towlower.obj
 0001:000610e0       ___ascii_strnicmp          100620e0 f   libucrt:_strnicm.obj
 0001:00061159       ??$__crt_interlocked_read@H@@YAHPDH@Z 10062159 f i libucrt:setmode.obj
 0001:00061168       ?value@?$dual_state_global@H@__crt_state_management@@QAEAAHXZ 10062168 f i libucrt:setmode.obj
 0001:0006116b       __get_fmode                1006216b f   libucrt:setmode.obj
 0001:000611a2       __set_fmode                100621a2 f   libucrt:setmode.obj
 0001:000611ee       __setmode                  100621ee f   libucrt:setmode.obj
 0001:00061336       __setmode_nolock           10062336 f   libucrt:setmode.obj
 0001:000615c7       __chsize                   100625c7 f   libucrt:chsize.obj
 0001:000615ea       __chsize_nolock            100625ea f   libucrt:chsize.obj
 0001:000617df       __chsize_s                 100627df f   libucrt:chsize.obj
 0001:000618b7       __umask                    100628b7 f   libucrt:umask.obj
 0001:000618e5       __umask_s                  100628e5 f   libucrt:umask.obj
 0001:00061a08       ___dcrt_lowio_ensure_console_output_initialized 10062a08 f   libucrt:initcon.obj
 0001:00061a2e       ___dcrt_terminate_console_output 10062a2e f   libucrt:initcon.obj
 0001:00061a4a       ___dcrt_write_console      10062a4a f   libucrt:initcon.obj
 0001:00061ab4       _nexttoward                10062ab4 f   libucrt:nexttoward.obj
 0001:00061ffc       __wcstombs_l               10062ffc f   libucrt:wcstombs.obj
 0001:00062009       __wcstombs_s_l             10063009 f   libucrt:wcstombs.obj
 0001:00062109       _wcstombs                  10063109 f   libucrt:wcstombs.obj
 0001:00062129       _wcstombs_s                10063129 f   libucrt:wcstombs.obj
 0001:00062151       ___acrt_CompareStringW     10063151 f   libucrt:comparestringw.obj
 0001:000624e8       ___acrt_CompareStringA     100634e8 f   libucrt:comparestringa.obj
 0001:00062542       ??$__acrt_fenv_shift_bits@W4__acrt_fenv_abstract_control@@@@YA?AW4__acrt_fenv_abstract_control@@W40@0I@Z 10063542 f i libucrt:_fenvutils.obj
 0001:00062558       ??$__acrt_fenv_shift_bits@W4__acrt_fenv_abstract_status@@@@YA?AW4__acrt_fenv_abstract_status@@W40@0I@Z 10063558 f i libucrt:_fenvutils.obj
 0001:0006256e       ??$__acrt_fenv_translate_bit@W4__acrt_fenv_abstract_control@@W4__acrt_fenv_machine_sse_control@@@@YA?AW4__acrt_fenv_abstract_control@@W4__acrt_fenv_machine_sse_control@@0W40@1@Z 1006356e f i libucrt:_fenvutils.obj
 0001:0006258c       ??$__acrt_fenv_translate_bit@W4__acrt_fenv_abstract_control@@W4__acrt_fenv_machine_x87_control@@@@YA?AW4__acrt_fenv_abstract_control@@W4__acrt_fenv_machine_x87_control@@0W40@1@Z 1006358c f i libucrt:_fenvutils.obj
 0001:000625aa       ??$__acrt_fenv_translate_bit@W4__acrt_fenv_abstract_status@@W4__acrt_fenv_machine_sse_status@@@@YA?AW4__acrt_fenv_abstract_status@@W4__acrt_fenv_machine_sse_status@@0W40@1@Z 100635aa f i libucrt:_fenvutils.obj
 0001:000625c4       ??$__acrt_fenv_translate_bit@W4__acrt_fenv_abstract_status@@W4__acrt_fenv_machine_x87_status@@@@YA?AW4__acrt_fenv_abstract_status@@W4__acrt_fenv_machine_x87_status@@0W40@1@Z 100635c4 f i libucrt:_fenvutils.obj
 0001:000625de       ??$__acrt_fenv_translate_bit@W4__acrt_fenv_machine_sse_control@@W4__acrt_fenv_abstract_control@@@@YA?AW4__acrt_fenv_machine_sse_control@@W4__acrt_fenv_abstract_control@@0W40@1@Z 100635de f i libucrt:_fenvutils.obj
 0001:000625fa       ??$__acrt_fenv_translate_bit@W4__acrt_fenv_machine_sse_status@@W4__acrt_fenv_abstract_status@@@@YA?AW4__acrt_fenv_machine_sse_status@@W4__acrt_fenv_abstract_status@@0W40@1@Z 100635fa f i libucrt:_fenvutils.obj
 0001:00062614       ??$__acrt_fenv_translate_bit@W4__acrt_fenv_machine_x87_control@@W4__acrt_fenv_abstract_control@@@@YA?AW4__acrt_fenv_machine_x87_control@@W4__acrt_fenv_abstract_control@@0W40@1@Z 10063614 f i libucrt:_fenvutils.obj
 0001:00062630       ??$__acrt_fenv_translate_bit@W4__acrt_fenv_machine_x87_status@@W4__acrt_fenv_abstract_status@@@@YA?AW4__acrt_fenv_machine_x87_status@@W4__acrt_fenv_abstract_status@@0W40@1@Z 10063630 f i libucrt:_fenvutils.obj
 0001:0006264a       ??$__acrt_fenv_unshift_bits@W4__acrt_fenv_abstract_control@@@@YA?AW4__acrt_fenv_abstract_control@@W40@0I@Z 1006364a f i libucrt:_fenvutils.obj
 0001:00062660       ??$__acrt_fenv_unshift_bits@W4__acrt_fenv_abstract_status@@@@YA?AW4__acrt_fenv_abstract_status@@W40@0I@Z 10063660 f i libucrt:_fenvutils.obj
 0001:00062c8b       ??I@YA?AW4__acrt_fenv_abstract_control@@W40@0@Z 10063c8b f i libucrt:_fenvutils.obj
 0001:00062c9b       ??I@YA?AW4__acrt_fenv_abstract_status@@W40@0@Z 10063c9b f i libucrt:_fenvutils.obj
 0001:00062cab       ??I@YA?AW4__acrt_fenv_machine_sse_control@@W40@0@Z 10063cab f i libucrt:_fenvutils.obj
 0001:00062cbb       ??I@YA?AW4__acrt_fenv_machine_sse_status@@W40@0@Z 10063cbb f i libucrt:_fenvutils.obj
 0001:00062ccb       ??I@YA?AW4__acrt_fenv_machine_x87_control@@W40@0@Z 10063ccb f i libucrt:_fenvutils.obj
 0001:00062cdb       ??I@YA?AW4__acrt_fenv_machine_x87_status@@W40@0@Z 10063cdb f i libucrt:_fenvutils.obj
 0001:00062ceb       ??U@YA?AW4__acrt_fenv_abstract_control@@W40@0@Z 10063ceb f i libucrt:_fenvutils.obj
 0001:00062cfb       ??U@YA?AW4__acrt_fenv_abstract_status@@W40@0@Z 10063cfb f i libucrt:_fenvutils.obj
 0001:00062d0b       ??U@YA?AW4__acrt_fenv_machine_sse_control@@W40@0@Z 10063d0b f i libucrt:_fenvutils.obj
 0001:00062d1b       ??U@YA?AW4__acrt_fenv_machine_x87_control@@W40@0@Z 10063d1b f i libucrt:_fenvutils.obj
 0001:00062d2b       ??_5@YAAAW4__acrt_fenv_abstract_control@@AAW40@W40@@Z 10063d2b f i libucrt:_fenvutils.obj
 0001:00062d3d       ??_5@YAAAW4__acrt_fenv_abstract_status@@AAW40@W40@@Z 10063d3d f i libucrt:_fenvutils.obj
 0001:00062d4f       ??_5@YAAAW4__acrt_fenv_machine_sse_control@@AAW40@W40@@Z 10063d4f f i libucrt:_fenvutils.obj
 0001:00062d64       ??_5@YAAAW4__acrt_fenv_machine_sse_status@@AAW40@W40@@Z 10063d64 f i libucrt:_fenvutils.obj
 0001:00062d76       ??_5@YAAAW4__acrt_fenv_machine_x87_control@@AAW40@W40@@Z 10063d76 f i libucrt:_fenvutils.obj
 0001:00062d8b       ??_5@YAAAW4__acrt_fenv_machine_x87_status@@AAW40@W40@@Z 10063d8b f i libucrt:_fenvutils.obj
 0001:00062d9d       ?__acrt_fenv_shift_abstract_sse_control@@YA?AW4__acrt_fenv_abstract_control@@W41@@Z 10063d9d f i libucrt:_fenvutils.obj
 0001:00062dc1       ?__acrt_fenv_shift_abstract_sse_status@@YA?AW4__acrt_fenv_abstract_status@@W41@@Z 10063dc1 f i libucrt:_fenvutils.obj
 0001:00062dd5       ?__acrt_fenv_shift_abstract_x87_control@@YA?AW4__acrt_fenv_abstract_control@@W41@@Z 10063dd5 f i libucrt:_fenvutils.obj
 0001:00062df9       ?__acrt_fenv_shift_abstract_x87_status@@YA?AW4__acrt_fenv_abstract_status@@W41@@Z 10063df9 f i libucrt:_fenvutils.obj
 0001:00062e0d       ?__acrt_fenv_unshift_abstract_sse_control@@YA?AW4__acrt_fenv_abstract_control@@W41@@Z 10063e0d f i libucrt:_fenvutils.obj
 0001:00062e33       ?__acrt_fenv_unshift_abstract_sse_status@@YA?AW4__acrt_fenv_abstract_status@@W41@@Z 10063e33 f i libucrt:_fenvutils.obj
 0001:00062e47       ?__acrt_fenv_unshift_abstract_x87_control@@YA?AW4__acrt_fenv_abstract_control@@W41@@Z 10063e47 f i libucrt:_fenvutils.obj
 0001:00062e6d       ?__acrt_fenv_unshift_abstract_x87_status@@YA?AW4__acrt_fenv_abstract_status@@W41@@Z 10063e6d f i libucrt:_fenvutils.obj
 0001:00063524       ___acrt_fenv_expand_round_control 10064524 f   libucrt:_fenvutils.obj
 0001:00063567       ___acrt_fenv_get_common_round_control 10064567 f   libucrt:_fenvutils.obj
 0001:00063591       ___acrt_fenv_get_control   10064591 f   libucrt:_fenvutils.obj
 0001:00063633       ___acrt_fenv_get_fp_status_word_from_exception_mask 10064633 f   libucrt:_fenvutils.obj
 0001:00063653       ___acrt_fenv_get_status    10064653 f   libucrt:_fenvutils.obj
 0001:00063745       ___acrt_fenv_set_control   10064745 f   libucrt:_fenvutils.obj
 0001:000637c9       ___acrt_fenv_set_status    100647c9 f   libucrt:_fenvutils.obj
 0001:00063a95       ___control87_2             10064a95 f   libucrt:ieee87.obj
 0001:00064061       ___fpreset_sse2            10065061 f   libucrt:ieee87.obj
 0001:000642aa       __clearfp                  100652aa f   libucrt:ieee87.obj
 0001:000643c2       __control87                100653c2 f   libucrt:ieee87.obj
 0001:00064780       __controlfp                10065780 f   libucrt:ieee87.obj
 0001:000647a0       __fpreset                  100657a0 f   libucrt:ieee87.obj
 0001:000648a3       __set_controlfp            100658a3 f   libucrt:ieee87.obj
 0001:00064939       __statusfp                 10065939 f   libucrt:ieee87.obj
 0001:000649fd       __statusfp2                100659fd f   libucrt:ieee87.obj
 0001:00064a7b       ___acrt_initialize_sse2    10065a7b f   libucrt:mathfcns.obj
 0001:00064a8f       __set_SSE2_enable          10065a8f f   libucrt:mathfcns.obj
 0001:00064ac0       __CIlog10_pentium4         10065ac0 f   libucrt:log10_pentium4.obj
 0001:00064ad8       __log10_pentium4           10065ad8     libucrt:log10_pentium4.obj
 0001:00064e20       __fFEXP                    10065e20 f   libucrt:87tran.obj
 0001:00064e77       __rtinfpopse               10065e77     libucrt:87tran.obj
 0001:00064e79       __rtinfnpopse              10065e79     libucrt:87tran.obj
 0001:00064e89       __fFLN                     10065e89     libucrt:87tran.obj
 0001:00064f3e       __rtinfpop                 10065f3e     libucrt:87tran.obj
 0001:00064f40       __rtinfnpop                10065f40     libucrt:87tran.obj
 0001:00064f50       __rtforexpinf              10065f50 f   libucrt:87tran.obj
 0001:00064f5d       __ffexpm1                  10065f5d     libucrt:87tran.obj
 0001:00065090       __trandisp1                10066090 f   libucrt:87disp.obj
 0001:00065105       __trandisp2                10066105 f   libucrt:87disp.obj
 0001:0006519f       __rttospopde               1006619f     libucrt:87disp.obj
 0001:000651a4       __rttospop                 100661a4     libucrt:87disp.obj
 0001:000651b0       __rtnospop                 100661b0 f   libucrt:87disp.obj
 0001:000651c0       __rttosnpop                100661c0 f   libucrt:87disp.obj
 0001:000651c1       __rtnospopde               100661c1     libucrt:87disp.obj
 0001:000651c8       __rtzeropop                100661c8     libucrt:87disp.obj
 0001:000651ca       __rtzeronpop               100661ca     libucrt:87disp.obj
 0001:000651d0       __rtzerospop               100661d0 f   libucrt:87disp.obj
 0001:000651dd       __rtonepop                 100661dd     libucrt:87disp.obj
 0001:000651e0       __rtonenpop                100661e0 f   libucrt:87disp.obj
 0001:000651f0       __tosnan1                  100661f0 f   libucrt:87disp.obj
 0001:00065220       __nosnan2                  10066220 f   libucrt:87disp.obj
 0001:00065230       __tosnan2                  10066230 f   libucrt:87disp.obj
 0001:00065260       __nan2                     10066260 f   libucrt:87disp.obj
 0001:000652a0       __rtindfpop                100662a0 f   libucrt:87disp.obj
 0001:000652a2       __rtindfnpop               100662a2     libucrt:87disp.obj
 0001:000652b3       __rttosnpopde              100662b3     libucrt:87disp.obj
 0001:000652c0       __rtatan2inf               100662c0 f   libucrt:87disp.obj
 0001:000652dd       __rtchsifneg               100662dd     libucrt:87disp.obj
 0001:00065379       ___setfflag                10066379 f   libucrt:fp_flags.obj
 0001:000653a0       __twoToTOS                 100663a0 f   libucrt:common.obj
 0001:000653b5       __load_CW                  100663b5 f   libucrt:common.obj
 0001:000653cc       __convertTOStoQNaN         100663cc f   libucrt:common.obj
 0001:000653e5       __fload_withFB             100663e5 f   libucrt:common.obj
 0001:00065428       __checkTOS_withFB          10066428 f   libucrt:common.obj
 0001:0006543e       __fast_exit                1006643e f   libucrt:common.obj
 0001:0006544b       __math_exit                1006644b f   libucrt:common.obj
 0001:00065475       __check_overflow_exit      10066475 f   libucrt:common.obj
 0001:00065489       __check_range_exit         10066489 f   libucrt:common.obj
 0001:00065590       __startTwoArgErrorHandling 10066590 f   libucrt:genexcep.obj
 0001:000655a7       __startOneArgErrorHandling 100665a7 f   libucrt:genexcep.obj
 0001:000655f7       ___libm_error_support      100665f7 f   libucrt:libm_error.obj
 0001:00065895       ___libm_setusermatherr     10066895 f   libucrt:libm_error.obj
 0001:000658c5       __ceil_default             100668c5 f   libucrt:ceil.obj
 0001:000659ac       ___acrt_LCMapStringW       100669ac f   libucrt:lcmapstringw.obj
 0001:000659f9       ___p__fmode                100669f9 f   libucrt:txtmode.obj
 0001:00065a95       __d_int                    10066a95 f   libucrt:_test.obj
 0001:00065bdf       __dtest                    10066bdf f   libucrt:_test.obj
 0001:00065c5c       __fd_int                   10066c5c f   libucrt:_test.obj
 0001:00065d5e       __fdtest                   10066d5e f   libucrt:_test.obj
 0001:00065dbf       __fperrraise               10066dbf f   libucrt:_test.obj
 0001:00065dea       __ld_int                   10066dea f   libucrt:_test.obj
 0001:00065df7       __ldtest                   10066df7 f   libucrt:_test.obj
 0001:00065e04       ?__wcsrtombs_utf8@__crt_mbstring@@YAIPADPAPB_WIPAU_Mbstatet@@@Z 10066e04 f   libucrt:wcrtomb.obj
 0001:000662ae       _wcrtomb                   100672ae f   libucrt:wcrtomb.obj
 0001:000662eb       _wcrtomb_s                 100672eb f   libucrt:wcrtomb.obj
 0001:00066382       _wcsrtombs                 10067382 f   libucrt:wcrtomb.obj
 0001:0006638f       _wcsrtombs_s               1006738f f   libucrt:wcrtomb.obj
 0001:0006644e       _wctob                     1006744e f   libucrt:wcrtomb.obj
 0001:000664c2       __controlfp_s              100674c2 f   libucrt:contrlfp.obj
 0001:00066538       __d_inttype                10067538 f   libucrt:powhlp.obj
 0001:000665bc       __powhlp                   100675bc f   libucrt:powhlp.obj
 0001:00066731       __87except                 10067731 f   libucrt:87except.obj
 0001:0006687d       __frnd                     1006787d f   libucrt:frnd.obj
 0001:00066898       ??_4@YAAAW4__acrt_fenv_abstract_status@@AAW40@W40@@Z 10067898 f i libucrt:fegetexceptflag.obj
 0001:000668aa       _fegetexceptflag           100678aa f   libucrt:fegetexceptflag.obj
 0001:000668e7       ??S@YA?AW4__acrt_fenv_abstract_status@@W40@@Z 100678e7 f i libucrt:fesetexceptflag.obj
 0001:000668f6       _fesetexceptflag           100678f6 f   libucrt:fesetexceptflag.obj
 0001:00066965       ?__c16rtomb_utf8@__crt_mbstring@@YAIPAD_SPAU_Mbstatet@@@Z 10067965 f   libucrt:c16rtomb.obj
 0001:00066abd       _c16rtomb                  10067abd f   libucrt:c16rtomb.obj
 0001:00066aca       _fetestexcept              10067aca f   libucrt:fetestexcept.obj
 0001:00066af4       ?__c32rtomb_utf8@__crt_mbstring@@YAIPAD_UPAU_Mbstatet@@@Z 10067af4 f   libucrt:c32rtomb.obj
 0001:00066bce       _c32rtomb                  10067bce f   libucrt:c32rtomb.obj
 0001:00066be0       __FindPESection            10067be0 f   LIBCMT:pesect.obj
 0001:00066c40       __IsNonwritableInCurrentImage 10067c40 f   LIBCMT:pesect.obj
 0001:00066d30       __ValidateImageBase        10067d30 f   LIBCMT:pesect.obj
 0001:00066d6f       __EH_epilog3               10067d6f f   LIBCMT:ehprolg3.obj
 0001:00066d89       __EH_epilog3_GS            10067d89 f   LIBCMT:ehprolg3.obj
 0001:00066d9e       __EH_epilog3_catch_GS      10067d9e f   LIBCMT:ehprolg3.obj
 0001:00066db3       __EH_prolog3               10067db3 f   LIBCMT:ehprolg3.obj
 0001:00066df4       __EH_prolog3_GS            10067df4 f   LIBCMT:ehprolg3.obj
 0001:00066e38       __EH_prolog3_catch         10067e38 f   LIBCMT:ehprolg3.obj
 0001:00066e7c       __EH_prolog3_catch_GS      10067e7c f   LIBCMT:ehprolg3.obj
 0001:00066ed0       __aulldvrm                 10067ed0 f   LIBCMT:ulldvrm.obj
 0001:00066f8a       ??1type_info@@UAE@XZ       10067f8a f   LIBCMT:std_type_info_static.obj
 0001:00066f91       ??_Gtype_info@@UAEPAXI@Z   10067f91 f i LIBCMT:std_type_info_static.obj
 0001:00066f91       ??_Etype_info@@UAEPAXI@Z   10067f91 f i LIBCMT:std_type_info_static.obj
 0001:00066fbc       ??3@YAXPAXI@Z              10067fbc f   LIBCMT:delete_scalar_size.obj
 0001:00066fd0       __SEH_prolog4_GS           10067fd0 f   LIBCMT:_sehprolg4gs_.obj
 0001:00067019       __SEH_epilog4_GS           10068019 f   LIBCMT:_sehprolg4gs_.obj
 0001:00067040       __allmul                   10068040 f   LIBCMT:llmul.obj
 0001:00067090       __alldvrm                  10068090 f   LIBCMT:lldvrm.obj
 0001:000671b0       __aullshr                  100681b0 f   LIBCMT:ullshr.obj
 0001:000671e0       __chkstk                   100681e0 f   LIBCMT:chkstk.obj
 0001:000671e0       __alloca_probe             100681e0 f   LIBCMT:chkstk.obj
 0001:00067220       __alloca_probe_16          10068220 f   LIBCMT:alloca16.obj
 0001:00067236       __alloca_probe_8           10068236     LIBCMT:alloca16.obj
 0001:00067260       __allshl                   10068260 f   LIBCMT:llshl.obj
 0001:00067290       __ftol2_sse                10068290 f   LIBCMT:_ftol2_.obj
 0001:00067299       __ftol2_pentium4           10068299 f   LIBCMT:_ftol2_.obj
 0001:000672ac       __ftol2_sse_excpt          100682ac f   LIBCMT:_ftol2_.obj
 0001:000672d0       __ftol2                    100682d0 f   LIBCMT:_ftol2_.obj
 0001:00067372       __initialize_default_precision 10068372 f   LIBCMT:default_precision.obj
 0001:0006739b       ??3@YAXPAX@Z               1006839b f   LIBCMT:delete_scalar.obj
 0001:000673a0       _InterlockedPushEntrySList@8 100683a0 f   kernel32:KERNEL32.dll
 0001:000673a6       _InterlockedFlushSList@4   100683a6 f   kernel32:KERNEL32.dll
 0001:000673ac       _RtlUnwind@16              100683ac f   kernel32:KERNEL32.dll
 0001:000673b2       _GetLastError@0            100683b2 f   kernel32:KERNEL32.dll
 0001:000673b8       _SetLastError@4            100683b8 f   kernel32:KERNEL32.dll
 0001:000673be       _EnterCriticalSection@4    100683be f   kernel32:KERNEL32.dll
 0001:000673c4       _LeaveCriticalSection@4    100683c4 f   kernel32:KERNEL32.dll
 0001:000673ca       _DeleteCriticalSection@4   100683ca f   kernel32:KERNEL32.dll
 0001:000673d0       _InitializeCriticalSectionAndSpinCount@8 100683d0 f   kernel32:KERNEL32.dll
 0001:000673d6       _TlsAlloc@0                100683d6 f   kernel32:KERNEL32.dll
 0001:000673dc       _TlsGetValue@4             100683dc f   kernel32:KERNEL32.dll
 0001:000673e2       _TlsSetValue@8             100683e2 f   kernel32:KERNEL32.dll
 0001:000673e8       _TlsFree@4                 100683e8 f   kernel32:KERNEL32.dll
 0001:000673ee       _FreeLibrary@4             100683ee f   kernel32:KERNEL32.dll
 0001:000673f4       _LoadLibraryExW@12         100683f4 f   kernel32:KERNEL32.dll
 0001:000673fa       _EncodePointer@4           100683fa f   kernel32:KERNEL32.dll
 0001:00067400       _RaiseException@16         10068400 f   kernel32:KERNEL32.dll
 0001:00067406       _ExitProcess@4             10068406 f   kernel32:KERNEL32.dll
 0001:0006740c       _GetModuleHandleExW@12     1006840c f   kernel32:KERNEL32.dll
 0001:00067412       _GetStdHandle@4            10068412 f   kernel32:KERNEL32.dll
 0001:00067418       _GetFileType@4             10068418 f   kernel32:KERNEL32.dll
 0001:0006741e       _GetModuleFileNameW@12     1006841e f   kernel32:KERNEL32.dll
 0001:00067424       _WriteConsoleW@20          10068424 f   kernel32:KERNEL32.dll
 0001:0006742a       _HeapAlloc@12              1006842a f   kernel32:KERNEL32.dll
 0001:00067430       _HeapFree@12               10068430 f   kernel32:KERNEL32.dll
 0001:00067436       _GetDateFormatW@24         10068436 f   kernel32:KERNEL32.dll
 0001:0006743c       _GetTimeFormatW@24         1006843c f   kernel32:KERNEL32.dll
 0001:00067442       _CompareStringW@24         10068442 f   kernel32:KERNEL32.dll
 0001:00067448       _LCMapStringW@24           10068448 f   kernel32:KERNEL32.dll
 0001:0006744e       _GetLocaleInfoW@16         1006844e f   kernel32:KERNEL32.dll
 0001:00067454       _IsValidLocale@8           10068454 f   kernel32:KERNEL32.dll
 0001:0006745a       _GetUserDefaultLCID@0      1006845a f   kernel32:KERNEL32.dll
 0001:00067460       _EnumSystemLocalesW@8      10068460 f   kernel32:KERNEL32.dll
 0001:00067466       _GetCurrentThread@0        10068466 f   kernel32:KERNEL32.dll
 0001:0006746c       _HeapReAlloc@16            1006846c f   kernel32:KERNEL32.dll
 0001:00067472       _CloseHandle@4             10068472 f   kernel32:KERNEL32.dll
 0001:00067478       _ReadFile@20               10068478 f   kernel32:KERNEL32.dll
 0001:0006747e       _GetConsoleMode@8          1006847e f   kernel32:KERNEL32.dll
 0001:00067484       _ReadConsoleW@20           10068484 f   kernel32:KERNEL32.dll
 0001:0006748a       _WriteFile@20              1006848a f   kernel32:KERNEL32.dll
 0001:00067490       _GetConsoleCP@0            10068490 f   kernel32:KERNEL32.dll
 0001:00067496       _MultiByteToWideChar@24    10068496 f   kernel32:KERNEL32.dll
 0001:0006749c       _DeleteFileW@4             1006849c f   kernel32:KERNEL32.dll
 0001:000674a2       _SetFilePointerEx@20       100684a2 f   kernel32:KERNEL32.dll
 0001:000674a8       _OutputDebugStringW@4      100684a8 f   kernel32:KERNEL32.dll
 0001:000674ae       _SetConsoleCtrlHandler@8   100684ae f   kernel32:KERNEL32.dll
 0001:000674b4       _FindClose@4               100684b4 f   kernel32:KERNEL32.dll
 0001:000674ba       _FindFirstFileExW@24       100684ba f   kernel32:KERNEL32.dll
 0001:000674c0       _FindNextFileW@8           100684c0 f   kernel32:KERNEL32.dll
 0001:000674c6       _IsValidCodePage@4         100684c6 f   kernel32:KERNEL32.dll
 0001:000674cc       _GetACP@0                  100684cc f   kernel32:KERNEL32.dll
 0001:000674d2       _GetOEMCP@0                100684d2 f   kernel32:KERNEL32.dll
 0001:000674d8       _GetCPInfo@8               100684d8 f   kernel32:KERNEL32.dll
 0001:000674de       _GetCommandLineA@0         100684de f   kernel32:KERNEL32.dll
 0001:000674e4       _GetCommandLineW@0         100684e4 f   kernel32:KERNEL32.dll
 0001:000674ea       _WideCharToMultiByte@32    100684ea f   kernel32:KERNEL32.dll
 0001:000674f0       _GetEnvironmentStringsW@0  100684f0 f   kernel32:KERNEL32.dll
 0001:000674f6       _FreeEnvironmentStringsW@4 100684f6 f   kernel32:KERNEL32.dll
 0001:000674fc       _SetEnvironmentVariableW@8 100684fc f   kernel32:KERNEL32.dll
 0001:00067502       _GetProcessHeap@0          10068502 f   kernel32:KERNEL32.dll
 0001:00067508       _FlushFileBuffers@4        10068508 f   kernel32:KERNEL32.dll
 0001:0006750e       _SetStdHandle@8            1006850e f   kernel32:KERNEL32.dll
 0001:00067514       _GetStringTypeW@16         10068514 f   kernel32:KERNEL32.dll
 0001:0006751a       _CreateFileW@28            1006851a f   kernel32:KERNEL32.dll
 0001:00067520       _HeapSize@12               10068520 f   kernel32:KERNEL32.dll
 0001:00067526       _SetEndOfFile@4            10068526 f   kernel32:KERNEL32.dll
 0001:0006752c       _DecodePointer@4           1006852c f   kernel32:KERNEL32.dll
 0001:00067540       _strrchr                   10068540 f   libvcruntime:strrchr.obj
 0001:0006787c       _memcmp                    1006887c f   libvcruntime:_memcmp_.obj
 0001:0006bf62       _wcschr                    1006cf62 f   libvcruntime:wcschr.obj
 0002:00000000       ___xc_a                    10072000     LIBCMT:initializers.obj
 0002:00000104       ___xc_z                    10072104     LIBCMT:initializers.obj
 0002:00000208       ___xi_a                    10072208     LIBCMT:initializers.obj
 0002:0000030c       ___acrt_stdio_initializer  1007230c     libucrt:stdio_initializer.obj
 0002:00000310       ___acrt_multibyte_initializer 10072310     libucrt:multibyte_initializer.obj
 0002:00000314       ___acrt_tran_sse2_initializer 10072314     libucrt:sse2_initializer.obj
 0002:0000041c       ___xi_z                    1007241c     LIBCMT:initializers.obj
 0002:00000520       ___xp_a                    10072520     LIBCMT:initializers.obj
 0002:00000624       ___acrt_locale_terminator  10072624     libucrt:locale_initializer.obj
 0002:00000628       ___dcrt_console_output_terminator 10072628     libucrt:console_output_initializer.obj
 0002:00000730       ___acrt_stdio_terminator   10072730     libucrt:stdio_initializer.obj
 0002:00000834       ___xp_z                    10072834     LIBCMT:initializers.obj
 0002:00000938       ___xt_a                    10072938     LIBCMT:initializers.obj
 0002:00000a3c       ___xt_z                    10072a3c     LIBCMT:initializers.obj
 0002:00000b40       _speed_controller_copy_RGND 10072b40     speed_controller_copy.obj
 0002:00000b48       _speed_controller_copy_M   10072b48     speed_controller_copy.obj
 0002:00000bec       ??_C@_0BI@PHJEPFFP@Error?5creating?5scope?51?6?$AA@ 10072bec     speed_controller_copy.obj
 0002:00000c08       ??_C@_0CF@NIGKHEHO@Sensor?5Read?5and?5Process?1Scopes?1G@ 10072c08     speed_controller_copy.obj
 0002:00000c34       ??_C@_0CF@MBHBEFDP@Sensor?5Read?5and?5Process?1Scopes?1G@ 10072c34     speed_controller_copy.obj
 0002:00000c60       ??_C@_0CF@KFBNIADL@Sensor?5Read?5and?5Process?1Scopes?1G@ 10072c60     speed_controller_copy.obj
 0002:00000c8c       ??_C@_0BC@OJJPBDHH@FixedStepDiscrete?$AA@ 10072c8c     speed_controller_copy.obj
 0002:00000ca4       ??_C@_04EPKDLPPB@tout?$AA@ 10072ca4     speed_controller_copy.obj
 0002:00000caa       ??_C@_00CNPNBAHC@?$AA@     10072caa     speed_controller_copy.obj
 0002:00000cac       ??_C@_03HBFGMJOD@rt_?$AA@  10072cac     speed_controller_copy.obj
 0002:00000cb0       ??_C@_06OKIIDEAB@Setup1?$AA@ 10072cb0     speed_controller_copy.obj
 0002:00000cb8       ??_C@_0DF@PEDEKAGG@speed_controller_copy?1Sensor?5Rea@ 10072cb8     speed_controller_copy.obj
 0002:00000cf8       ??_C@_06JHPPMAEE@Setup4?$AA@ 10072cf8     speed_controller_copy.obj
 0002:00000d00       ??_C@_0DF@IJEDFECD@speed_controller_copy?1Sensor?5Rea@ 10072d00     speed_controller_copy.obj
 0002:00000d40       ??_C@_0O@CADGMBMO@Analog?5input3?$AA@ 10072d40     speed_controller_copy.obj
 0002:00000d50       ??_C@_0DM@INCBCCEJ@speed_controller_copy?1Sensor?5Rea@ 10072d50     speed_controller_copy.obj
 0002:00000d98       ??_C@_0P@IHAPCODB@Analog?5output1?$AA@ 10072d98     speed_controller_copy.obj
 0002:00000dac       ??_C@_0CF@BDLBKHJA@speed_controller_copy?1Analog?5out@ 10072dac     speed_controller_copy.obj
 0002:00000dd8       __real@3f50624dd2f1a9fc    10072dd8     speed_controller_copy.obj
 0002:00000de8       __real@3fd0000000000000    10072de8     speed_controller_copy.obj
 0002:00000df8       __real@3fe4cccccccccccd    10072df8     speed_controller_copy.obj
 0002:00000e08       __real@3ff0000000000000    10072e08     speed_controller_copy.obj
 0002:00000e18       __real@3ff0cccccccccccd    10072e18     speed_controller_copy.obj
 0002:00000e28       __real@4008000000000000    10072e28     speed_controller_copy.obj
 0002:00000e38       __real@40b7700000000000    10072e38     speed_controller_copy.obj
 0002:00000e48       __real@41f0000000000000    10072e48     speed_controller_copy.obj
 0002:00000e58       __real@bff0000000000000    10072e58     speed_controller_copy.obj
 0002:00000e70       __xmm@00000000000000003f50624dd2f1a9fc 10072e70     speed_controller_copy.obj
 0002:00000e90       __xmm@00000090000000390000004c00000001 10072e90     speed_controller_copy.obj
 0002:00000eb0       __xmm@3ff0cccccccccccd0000000000000000 10072eb0     speed_controller_copy.obj
 0002:00000ed0       __xmm@41f00000000000000000000000000000 10072ed0     speed_controller_copy.obj
 0002:00000ee8       __real@3cb0000000000000    10072ee8     rt_matrx.obj
 0002:00000ef8       __real@3fe0000000000000    10072ef8     rt_matrx.obj
 0002:00001768       ??_C@_0DJ@FHKINPLE@Unexpected?5itemKind?5?$DN?5DATA_ITEM?5@ 10073768     rt_logging.obj
 0002:000017ac       ??_C@_0DA@IEHFPFCJ@Unexpected?5itemKind?$DN?$CFd?5in?5rt_Pro@ 100737ac     rt_logging.obj
 0002:000017e8       ??_C@_0DA@IFLHJPBO@Unexpected?5itemKind?$DN?$CFd?5in?5rt_Pro@ 100737e8     rt_logging.obj
 0002:00001824       ??_C@_0DA@IAPIIJJL@Unexpected?5itemKind?$DN?$CFd?5in?5rt_Pro@ 10073824     rt_logging.obj
 0002:00001860       ??_C@_0BE@LCIGPJIG@MATLAB?55?40?5MAT?9file?$AA@ 10073860     rt_logging.obj
 0002:00001878       ??_C@_0FB@PCJEAJIB@?$CK?$CK?$CK?5Log?5variable?5?$CFs?5has?5wrapped?5@ 10073878     rt_logging.obj
 0002:000018e0       ??_C@_0MG@NKMLMOGF@?$CK?$CK?$CK?5To?5avoid?5wrapping?0?5explicitl@ 100738e0     rt_logging.obj
 0002:000019d0       ??_C@_0N@IPAEOLLP@_rtw_tmw?4tmw?$AA@ 100739d0     rt_logging.obj
 0002:000019e0       ??_C@_04HDOCAJNK@?$CFs?$CFs?$AA@ 100739e0     rt_logging.obj
 0002:000019e8       ??_C@_03ELIABIOC@w?$CLb?$AA@ 100739e8     rt_logging.obj
 0002:000019ec       ??_C@_0BF@JPILDDFA@?$CK?$CK?$CK?5Error?5opening?5?$CFs?$AA@ 100739ec     rt_logging.obj
 0002:00001a08       ??_C@_0BK@EEMDELA@unable?5to?5open?5data?5file?6?$AA@ 10073a08     rt_logging.obj
 0002:00001a28       ??_C@_04CGFJFPFD@none?$AA@ 10073a28     rt_logging.obj
 0002:00001a30       ??_C@_0EE@LCGFPNON@?$CK?$CK?$CK?5Error?5creating?5signals?5struc@ 10073a30     rt_logging.obj
 0002:00001a84       ??_C@_0CE@NHECEDMK@?$CK?$CK?$CK?5Error?5creating?5log?5variable?5@ 10073a84     rt_logging.obj
 0002:00001ab0       ??_C@_0DB@IOCGKAGH@?$CK?$CK?$CK?5Errors?5occurred?5when?5startin@ 10073ab0     rt_logging.obj
 0002:00001aec       ??_C@_0BO@BBLOGEBK@?$CK?$CK?$CK?5Memory?5allocation?5error?4?6?$AA@ 10073aec     rt_logging.obj
 0002:00001b10       ??_C@_0N@LGFBAGEL@?5?$CIreal?5part?$CJ?$AA@ 10073b10     rt_logging.obj
 0002:00001b20       ??_C@_0KH@CGNMHNFE@?5?5?5?5varName?5?5?5?5?5?5?5?5?5?5?$DN?5?$CFs?$CFs?6?5?5?5?5@ 10073b20     rt_logging.obj
 0002:00001be8       ??_C@_0LE@OALKKEFM@?5?5?5?5varName?5?5?5?5?5?5?5?5?5?5?$DN?5?$CFs?5?$CIcompl@ 10073be8     rt_logging.obj
 0002:00001cc0       ??_C@_0KF@JDDLEOKO@?5?5?5?5varName?5?5?5?5?5?5?5?5?5?5?$DN?5?$CFs?6?5?5?5?5nR@ 10073cc0     rt_logging.obj
 0002:00001d88       ??_C@_0DP@HPDMIOFM@?$CK?$CK?$CK?5Using?5a?5default?5buffer?5of?5si@ 10073d88     rt_logging.obj
 0002:00001dd8       ??_C@_0KE@JEFOLKNF@?6?$CK?$CK?$CK?5Memory?5required?5to?5log?5vari@ 10073dd8     rt_logging.obj
 0002:00001ea0       ??_C@_0JP@DKLMHCBI@?$CK?$CK?$CK?5Details?3?6?5?5?5?5?5?5?5varName?5?5?5?5?5@ 10073ea0     rt_logging.obj
 0002:00001f60       ??_C@_0CM@CAMILBED@?$CK?$CK?$CK?5Error?5allocating?5memory?5for?5@ 10073f60     rt_logging.obj
 0002:00001f94       ??_C@_0DF@BBCNMOPM@?$CK?$CK?$CK?5Error?5allocating?5memory?5for?5@ 10073f94     rt_logging.obj
 0002:00001fd8       ??_C@_0JP@DBCLPCCI@?$CK?$CK?$CK?5Details?3?6?5?5?5?5?5?5?5varName?5?5?5?5?5@ 10073fd8     rt_logging.obj
 0002:00002098       ??_C@_0FK@DPGAOBGA@?$CK?$CK?$CK?5Error?5allocating?5memory?5for?5@ 10074098     rt_logging.obj
 0002:00002104       ??_C@_0BI@GGDNPHLJ@?$CK?$CK?$CK?5Error?5writing?5to?5?$CFs?$AA@ 10074104     rt_logging.obj
 0002:00002120       ??_C@_0CB@IBGJGELG@?$CK?$CK?$CK?5Error?5writing?5?$CFs?5due?5to?3?5?$CFs?6@ 10074120     rt_logging.obj
 0002:00002148       ??_C@_0CN@FLMCHCPB@?$CK?$CK?$CK?5Error?5writing?5log?5variable?5?$CF@ 10074148     rt_logging.obj
 0002:00002180       ??_C@_0DH@GAJCNOJP@?$CK?$CK?$CK?5Error?5writing?5structure?5log?5@ 10074180     rt_logging.obj
 0002:000021c4       ??_C@_0BD@POEALECL@?$CK?$CK?5created?5?$CFs?5?$CK?$CK?6?6?$AA@ 100741c4     rt_logging.obj
 0002:000021e0       __real@4020000000000000    100741e0     rt_logging.obj
 0002:000021f0       __real@41dfffffffc00000    100741f0     rt_logging.obj
 0002:00002200       __real@41efffffffe00000    10074200     rt_logging.obj
 0002:00002210       __real@4330000000000000    10074210     rt_logging.obj
 0002:00002220       __real@8000000000000000    10074220     rt_logging.obj
 0002:00002230       __real@bfbf9add3afd2773    10074230     rt_logging.obj
 0002:00002240       __real@c000000000000000    10074240     rt_logging.obj
 0002:00002250       __xmm@20202020202020202020202020202020 10074250     rt_logging.obj
 0002:00003044       ??_C@_0P@KABGHJIH@controller1?1p1?$AA@ 10075044     speed_controller_copy_capi.obj
 0002:00003058       ??_C@_0P@ILDLCKEE@controller1?1p2?$AA@ 10075058     speed_controller_copy_capi.obj
 0002:0000306c       ??_C@_0P@JCCABLAF@controller1?1p3?$AA@ 1007506c     speed_controller_copy_capi.obj
 0002:00003080       ??_C@_09IIHOELEE@Constant1?$AA@ 10075080     speed_controller_copy_capi.obj
 0002:0000308c       ??_C@_0M@DLHHNGHG@Saturation1?$AA@ 1007508c     speed_controller_copy_capi.obj
 0002:0000309c       ??_C@_0CG@PLEDHPMH@Sensor?5Read?5and?5Process?1Control?5@ 1007509c     speed_controller_copy_capi.obj
 0002:000030cc       ??_C@_0CP@PHBOMDHN@Sensor?5Read?5and?5Process?1State?5De@ 100750cc     speed_controller_copy_capi.obj
 0002:00003104       ??_C@_0CP@NMDDJALO@Sensor?5Read?5and?5Process?1State?5De@ 10075104     speed_controller_copy_capi.obj
 0002:0000313c       ??_C@_07KCCBPEDJ@tStride?$AA@ 1007513c     speed_controller_copy_capi.obj
 0002:00003148       ??_C@_0CP@MFCIKBPP@Sensor?5Read?5and?5Process?1State?5De@ 10075148     speed_controller_copy_capi.obj
 0002:00003180       ??_C@_0CP@IKGJDHDI@Sensor?5Read?5and?5Process?1State?5De@ 10075180     speed_controller_copy_capi.obj
 0002:000031b8       ??_C@_0CP@JDHCAGHJ@Sensor?5Read?5and?5Process?1State?5De@ 100751b8     speed_controller_copy_capi.obj
 0002:000031f0       ??_C@_0CP@LIFPFFLK@Sensor?5Read?5and?5Process?1State?5De@ 100751f0     speed_controller_copy_capi.obj
 0002:00003228       ??_C@_0CP@KBEEGEPL@Sensor?5Read?5and?5Process?1State?5De@ 10075228     speed_controller_copy_capi.obj
 0002:00003260       ??_C@_0CK@EPKECMCP@Sensor?5Read?5and?5Process?1measureS@ 10075260     speed_controller_copy_capi.obj
 0002:00003294       ??_C@_0BP@GBKKPIPH@Sensor?5Read?5and?5Process?1Gain10?$AA@ 10075294     speed_controller_copy_capi.obj
 0002:000032bc       ??_C@_0M@BBOJFLCF@tStance_out?$AA@ 100752bc     speed_controller_copy_capi.obj
 0002:000032cc       ??_C@_0BO@NFOIHGPA@Sensor?5Read?5and?5Process?1Gain3?$AA@ 100752cc     speed_controller_copy_capi.obj
 0002:000032f0       ??_C@_0N@MGNBEKJF@strideStateR?$AA@ 100752f0     speed_controller_copy_capi.obj
 0002:00003300       ??_C@_0BO@JKKJOADH@Sensor?5Read?5and?5Process?1Gain4?$AA@ 10075300     speed_controller_copy_capi.obj
 0002:00003324       ??_C@_0M@MILAJKPO@tStride_avg?$AA@ 10075324     speed_controller_copy_capi.obj
 0002:00003334       ??_C@_0CG@GCPFDBN@Sensor?5Read?5and?5Process?1Analog?5i@ 10075334     speed_controller_copy_capi.obj
 0002:00003364       ??_C@_0DO@KJGAJBGN@Sensor?5Read?5and?5Process?13rd?5Orde@ 10075364     speed_controller_copy_capi.obj
 0002:000033b0       ??_C@_0M@FEKEABGH@GRF?6voltage?$AA@ 100753b0     speed_controller_copy_capi.obj
 0002:000033c0       ??_C@_0CE@OJNAHKDM@Sensor?5Read?5and?5Process?1Unit?5Del@ 100753c0     speed_controller_copy_capi.obj
 0002:000033ec       ??_C@_0DB@PHJMFODM@Sensor?5Read?5and?5Process?1GUI?1UseI@ 100753ec     speed_controller_copy_capi.obj
 0002:00003428       ??_C@_0CH@HCNACJKG@Sensor?5Read?5and?5Process?1GUI?1num_@ 10075428     speed_controller_copy_capi.obj
 0002:00003458       ??_C@_0L@HDJHAPAM@num_strike?$AA@ 10075458     speed_controller_copy_capi.obj
 0002:00003468       ??_C@_0CG@IDNEEFNG@Sensor?5Read?5and?5Process?1GUI?1num_@ 10075468     speed_controller_copy_capi.obj
 0002:00003498       ??_C@_09BPIDOJJH@num_swing?$AA@ 10075498     speed_controller_copy_capi.obj
 0002:000034a4       ??_C@_0CH@FDBFCGIJ@Sensor?5Read?5and?5Process?1GUI?1thre@ 100754a4     speed_controller_copy_capi.obj
 0002:000034d4       ??_C@_0L@FCFCAACD@thresh_mid?$AA@ 100754d4     speed_controller_copy_capi.obj
 0002:000034e4       ??_C@_0CJ@EENPHMHF@Sensor?5Read?5and?5Process?1GUI?1thre@ 100754e4     speed_controller_copy_capi.obj
 0002:00003518       ??_C@_0N@MCDKKMKM@thresh_swing?$AA@ 10075518     speed_controller_copy_capi.obj
 0002:00003528       ??_C@_0CD@PDLALKLI@Sensor?5Read?5and?5Process?1GUI?1to_p@ 10075528     speed_controller_copy_capi.obj
 0002:00003554       ??_C@_06FDKIFIDL@to_pct?$AA@ 10075554     speed_controller_copy_capi.obj
 0002:0000355c       ??_C@_0CN@KINCEAFL@Sensor?5Read?5and?5Process?1GUI?1tsta@ 1007555c     speed_controller_copy_capi.obj
 0002:00003594       ??_C@_0BB@FJNFKCME@tstance_avg_init?$AA@ 10075594     speed_controller_copy_capi.obj
 0002:000035a8       ??_C@_0CI@LBKGEBCJ@Sensor?5Read?5and?5Process?1GUI?1tsta@ 100755a8     speed_controller_copy_capi.obj
 0002:000035d8       ??_C@_0M@IHKEEMPJ@tstance_pct?$AA@ 100755d8     speed_controller_copy_capi.obj
 0002:000035e8       ??_C@_0CN@LLOKLGDL@Sensor?5Read?5and?5Process?1GUI?1tstr@ 100755e8     speed_controller_copy_capi.obj
 0002:00003620       ??_C@_0BB@EKONFEKE@tstride_avg_init?$AA@ 10075620     speed_controller_copy_capi.obj
 0002:00003634       ??_C@_0CH@JMNDKLMH@Sensor?5Read?5and?5Process?1GUI?1tswi@ 10075634     speed_controller_copy_capi.obj
 0002:00003664       ??_C@_0L@JNJEINGN@tswing_min?$AA@ 10075664     speed_controller_copy_capi.obj
 0002:00003674       ??_C@_0CB@LBOKOAMP@Sensor?5Read?5and?5Process?1GUI?1LOCK@ 10075674     speed_controller_copy_capi.obj
 0002:0000369c       ??_C@_04GPIFAJG@LOCK?$AA@  1007569c     speed_controller_copy_capi.obj
 0002:000036a4       ??_C@_0CB@NAPLIEKG@Sensor?5Read?5and?5Process?1GUI?1REST@ 100756a4     speed_controller_copy_capi.obj
 0002:000036cc       ??_C@_04GHOJDEPP@REST?$AA@ 100756cc     speed_controller_copy_capi.obj
 0002:000036d4       ??_C@_0CA@BENOALGE@Sensor?5Read?5and?5Process?1GUI?1RUN?$AA@ 100756d4     speed_controller_copy_capi.obj
 0002:000036fc       ??_C@_03LLDCGJBK@RUN?$AA@  100756fc     speed_controller_copy_capi.obj
 0002:00003700       ??_C@_0CE@HCPJNIIF@Sensor?5Read?5and?5Process?1GUI?1SETZ@ 10075700     speed_controller_copy_capi.obj
 0002:0000372c       ??_C@_07GOIBCPN@SETZERO?$AA@ 1007572c     speed_controller_copy_capi.obj
 0002:00003738       ??_C@_0CD@KGCDKNOH@Sensor?5Read?5and?5Process?1GUI?1STAN@ 10075738     speed_controller_copy_capi.obj
 0002:00003764       ??_C@_06GDLEPGE@STANCE?$AA@ 10075764     speed_controller_copy_capi.obj
 0002:0000376c       ??_C@_0CC@HPDEKCIB@Sensor?5Read?5and?5Process?1GUI?1SWIN@ 1007576c     speed_controller_copy_capi.obj
 0002:00003794       ??_C@_05GNDEFJGB@SWING?$AA@ 10075794     speed_controller_copy_capi.obj
 0002:0000379c       ??_C@_0CF@JCKKMHGB@Sensor?5Read?5and?5Process?1GUI?1degt@ 1007579c     speed_controller_copy_capi.obj
 0002:000037c8       ??_C@_05ILGHGDPO@pflex?$AA@ 100757c8     speed_controller_copy_capi.obj
 0002:000037d0       ??_C@_0CE@MPMCGIAK@Sensor?5Read?5and?5Process?1GUI?1MinM@ 100757d0     speed_controller_copy_capi.obj
 0002:000037fc       ??_C@_0BB@CCPDHGLH@strideStateRight?$AA@ 100757fc     speed_controller_copy_capi.obj
 0002:00003810       ??_C@_0O@CNFDLBGH@vGRF?5Left?5?$FLN?$FN?$AA@ 10075810     speed_controller_copy_capi.obj
 0002:00003820       ??_C@_0P@PNDBBID@vGRF?5Right?5?$FLN?$FN?$AA@ 10075820     speed_controller_copy_capi.obj
 0002:00003834       ??_C@_0CD@IINMCGJC@Sensor?5Read?5and?5Process?1Scopes?1S@ 10075834     speed_controller_copy_capi.obj
 0002:00003860       ??_C@_0EF@GFNHFPEE@Sensor?5Read?5and?5Process?1Zero?5Lev@ 10075860     speed_controller_copy_capi.obj
 0002:000038b4       ??_C@_07NOEEMOIE@GRFzero?$AA@ 100758b4     speed_controller_copy_capi.obj
 0002:000038c0       ??_C@_0DJ@GNIICAMP@Sensor?5Read?5and?5Process?1Zero?5Lev@ 100758c0     speed_controller_copy_capi.obj
 0002:00003904       ??_C@_05LPIJGKJ@Value?$AA@ 10075904     speed_controller_copy_capi.obj
 0002:0000390c       ??_C@_0L@FBCGKKEN@UpperLimit?$AA@ 1007590c     speed_controller_copy_capi.obj
 0002:0000391c       ??_C@_0L@DGFJOHKP@LowerLimit?$AA@ 1007591c     speed_controller_copy_capi.obj
 0002:0000392c       ??_C@_02KKFPAPOP@P1?$AA@   1007592c     speed_controller_copy_capi.obj
 0002:00003930       ??_C@_02IBHCFMCM@P2?$AA@   10075930     speed_controller_copy_capi.obj
 0002:00003934       ??_C@_02JIGJGNGN@P3?$AA@   10075934     speed_controller_copy_capi.obj
 0002:00003938       ??_C@_02NHCIPLKK@P4?$AA@   10075938     speed_controller_copy_capi.obj
 0002:0000393c       ??_C@_02MODDMKOL@P5?$AA@   1007593c     speed_controller_copy_capi.obj
 0002:00003940       ??_C@_0CB@OHBHENCI@Sensor?5Read?5and?5Process?1subjMass@ 10075940     speed_controller_copy_capi.obj
 0002:00003968       ??_C@_0N@DKJJGJMJ@InitialValue?$AA@ 10075968     speed_controller_copy_capi.obj
 0002:00003978       ??_C@_0CL@JAEOOGEN@Sensor?5Read?5and?5Process?1GRF_Thre@ 10075978     speed_controller_copy_capi.obj
 0002:000039ac       ??_C@_0CJ@DBOBGOPJ@Sensor?5Read?5and?5Process?1GRF_Thre@ 100759ac     speed_controller_copy_capi.obj
 0002:000039e0       ??_C@_04OMOMKKFL@Gain?$AA@ 100759e0     speed_controller_copy_capi.obj
 0002:000039e8       ??_C@_0BO@IDLCNBHG@Sensor?5Read?5and?5Process?1Gain5?$AA@ 100759e8     speed_controller_copy_capi.obj
 0002:00003a0c       ??_C@_0BO@DGBMKPDL@Sensor?5Read?5and?5Process?1Gain8?$AA@ 10075a0c     speed_controller_copy_capi.obj
 0002:00003a30       ??_C@_0BO@CPAHJOHK@Sensor?5Read?5and?5Process?1Gain9?$AA@ 10075a30     speed_controller_copy_capi.obj
 0002:00003a54       ??_C@_02OFBOJJCI@P6?$AA@   10075a54     speed_controller_copy_capi.obj
 0002:00003a58       ??_C@_02PMAFKIGJ@P7?$AA@   10075a58     speed_controller_copy_capi.obj
 0002:00003a5c       ??_C@_0BP@BOIBFHCH@Sensor?5Read?5and?5Process?1Setup1?$AA@ 10075a5c     speed_controller_copy_capi.obj
 0002:00003a84       ??_C@_0BP@GDPGKDGC@Sensor?5Read?5and?5Process?1Setup4?$AA@ 10075a84     speed_controller_copy_capi.obj
 0002:00003aac       ??_C@_09OMDFKCLN@Numerator?$AA@ 10075aac     speed_controller_copy_capi.obj
 0002:00003ab8       ??_C@_0M@KDILNJPK@Denominator?$AA@ 10075ab8     speed_controller_copy_capi.obj
 0002:00003ac8       ??_C@_0O@KHJPNGBD@InitialStates?$AA@ 10075ac8     speed_controller_copy_capi.obj
 0002:00003ad8       ??_C@_0BB@CFEOEMDC@InitialCondition?$AA@ 10075ad8     speed_controller_copy_capi.obj
 0002:00003aec       ??_C@_0CD@LENOHJLL@Sensor?5Read?5and?5Process?1GUI?1BTLo@ 10075aec     speed_controller_copy_capi.obj
 0002:00003b18       ??_C@_0CC@BLHOEMGL@Sensor?5Read?5and?5Process?1GUI?1BTRu@ 10075b18     speed_controller_copy_capi.obj
 0002:00003b40       ??_C@_0CM@EGICAHHF@Sensor?5Read?5and?5Process?1GUI?1BTme@ 10075b40     speed_controller_copy_capi.obj
 0002:00003b74       ??_C@_0DC@GLGEGJGK@Sensor?5Read?5and?5Process?1GUI?1BTre@ 10075b74     speed_controller_copy_capi.obj
 0002:00003bb0       ??_C@_0CH@ECMFMMKF@Sensor?5Read?5and?5Process?1GUI?1BTze@ 10075bb0     speed_controller_copy_capi.obj
 0002:00003be0       ??_C@_0CI@LMABJNMC@Sensor?5Read?5and?5Process?1GUI?1BTze@ 10075be0     speed_controller_copy_capi.obj
 0002:00003c10       ??_C@_0CC@DGEJHEFK@Sensor?5Read?5and?5Process?1GUI?1LOCK@ 10075c10     speed_controller_copy_capi.obj
 0002:00003c38       ??_C@_0CC@CEGLMMC@Sensor?5Read?5and?5Process?1GUI?1REST@ 10075c38     speed_controller_copy_capi.obj
 0002:00003c60       ??_C@_0CB@HHOIDKNB@Sensor?5Read?5and?5Process?1GUI?1RUN_@ 10075c60     speed_controller_copy_capi.obj
 0002:00003c88       ??_C@_0CF@KAIDMPOM@Sensor?5Read?5and?5Process?1GUI?1SETZ@ 10075c88     speed_controller_copy_capi.obj
 0002:00003cb4       ??_C@_0CE@DOLBFON@Sensor?5Read?5and?5Process?1GUI?1STAN@ 10075cb4     speed_controller_copy_capi.obj
 0002:00003ce0       ??_C@_0CD@KHODMGIP@Sensor?5Read?5and?5Process?1GUI?1SWIN@ 10075ce0     speed_controller_copy_capi.obj
 0002:00003d0c       ??_C@_0CG@DNFFDKEJ@Sensor?5Read?5and?5Process?1GUI?1pfle@ 10075d0c     speed_controller_copy_capi.obj
 0002:00003d3c       ??_C@_0CH@CHEOIPKA@Sensor?5Read?5and?5Process?1GUI?1pfle@ 10075d3c     speed_controller_copy_capi.obj
 0002:00003d6c       ??_C@_06BNJCAIGJ@double?$AA@ 10075d6c     speed_controller_copy_capi.obj
 0002:00003d74       ??_C@_06CNMIJIPB@real_T?$AA@ 10075d74     speed_controller_copy_capi.obj
 0002:00003d7c       ??_C@_05KNFBNCOH@float?$AA@ 10075d7c     speed_controller_copy_capi.obj
 0002:00003d84       ??_C@_0DL@PGGFBBLM@Error?3?5task?5ID?5?$CFd?5is?5out?5of?5rang@ 10075d84     speed_controller_copy_xcp_TET.obj
 0002:00003dd0       __real@3e112e0be826d695    10075dd0     speed_controller_copy_xcp_TET.obj
 0002:00003de0       __real@3f847ae147ae147b    10075de0     speed_controller_copy_xcp_TET.obj
 0002:00003df0       __real@3fefae147ae147ae    10075df0     speed_controller_copy_xcp_TET.obj
 0002:00003dfc       _serialfifoground          10075dfc     xpc_datatype_ground.obj
 0002:00003e08       _bcmsg1553ground           10075e08     xpc_datatype_ground.obj
 0002:00003e18       _bcstatground              10075e18     xpc_datatype_ground.obj
 0002:00003e30       _bmmsg1553ground           10075e30     xpc_datatype_ground.obj
 0002:00003e6c       ??_C@_0BI@INNPNFJN@Memory?5Allocation?5Error?$AA@ 10075e6c     rtw_modelmap_utils.obj
 0002:00003e88       ??_C@_1HC@FPPMHEFB@?$AAC?$AA?3?$AA?2?$AAP?$AAR?$AAO?$AAG?$AAR?$AAA?$AA?$HO?$AA1?$AA?2?$AAM?$AAA?$AAT?$AAL?$AAA?$AAB?$AA?2?$AAR?$AA2?$AA0?$AA1?$AA7?$AAb?$AA?2?$AAr?$AAt?$AAw?$AA?2?$AAc?$AA?2@ 10075e88     rtw_modelmap_utils.obj
 0002:00003f10       ??_C@_1CI@OEAJCJND@?$AAj?$AA?5?$AA?$DN?$AA?$DN?$AA?5?$AAe?$AAn?$AAc?$AAo?$AAd?$AAe?$AAd?$AAP?$AAa?$AAt?$AAh?$AAL?$AAe?$AAn?$AA?$AA@ 10075f10     rtw_modelmap_utils.obj
 0002:00003f40       ??_C@_1DC@NFAOIFKB@?$AAe?$AAn?$AAc?$AAo?$AAd?$AAe?$AAd?$AAP?$AAa?$AAt?$AAh?$AA?$FL?$AAj?$AA?9?$AA1?$AA?$FN?$AA?5?$AA?$DN?$AA?$DN?$AA?5?$AA?8?$AA?2?$AA0?$AA?8?$AA?$AA@ 10075f40     rtw_modelmap_utils.obj
 0002:00003f7c       ??_C@_1DI@FLNJGPEE@?$AAs?$AAi?$AAg?$AAC?$AAo?$AAm?$AAp?$AAl?$AAe?$AAx?$AAi?$AAt?$AAy?$AA?$FL?$AA?$CK?$AAs?$AAi?$AAg?$AAI?$AAd?$AAx?$AA?$FN?$AA?5?$AA?$CB?$AA?$DN?$AA?5?$AA1?$AA?$AA@ 10075f7c     rtw_modelmap_utils.obj
 0002:00003fc0       ??_C@_1KI@OFELMGBG@?$AA?$CI?$AA?$CI?$AA?$CI?$AAd?$AAa?$AAt?$AAa?$AAT?$AAy?$AAp?$AAe?$AAM?$AAa?$AAp?$AA?$CJ?$AA?$FL?$AA?$CI?$AA?$CI?$AA?$CI?$AAs?$AAt?$AAa?$AAt?$AAe?$AAs?$AA?$CJ?$AA?$FL?$AA?$CI?$AAi?$AA?$CJ?$AA?$FN?$AA?4@ 10075fc0     rtw_modelmap_utils.obj
 0002:0000408c       ??_C@_1DA@ILCMPHNE@?$AAf?$AAu?$AAl?$AAl?$AAP?$AAa?$AAt?$AAh?$AA?5?$AA?$CB?$AA?$DN?$AA?5?$AA?$CI?$AA?$CI?$AAv?$AAo?$AAi?$AAd?$AA?5?$AA?$CK?$AA?$CJ?$AA0?$AA?$CJ?$AA?$AA@ 1007608c     rtw_modelmap_utils.obj
 0002:000040c8       ??_C@_1CI@OEPPFCCA@?$AAp?$AAa?$AAt?$AAh?$AA?5?$AA?$CB?$AA?$DN?$AA?5?$AA?$CI?$AA?$CI?$AAv?$AAo?$AAi?$AAd?$AA?5?$AA?$CK?$AA?$CJ?$AA0?$AA?$CJ?$AA?$AA@ 100760c8     rtw_modelmap_utils.obj
 0002:000040f8       ??_C@_1FK@GLJIMFHB@?$AA?$CI?$AA?$CI?$AAm?$AAm?$AAi?$AA?$CJ?$AA?9?$AA?$DO?$AAI?$AAn?$AAs?$AAt?$AAa?$AAn?$AAc?$AAe?$AAM?$AAa?$AAp?$AA?4?$AAf?$AAu?$AAl?$AAl?$AAP?$AAa?$AAt?$AAh?$AA?$CJ?$AA?5?$AA?$DN?$AA?$DN@ 100760f8     rtw_modelmap_utils.obj
 0002:00004164       ??_C@_1DG@HPCJGNCE@?$AAm?$AAm?$AAi?$AAP?$AAa?$AAt?$AAh?$AA?$FL?$AAp?$AAa?$AAt?$AAh?$AAL?$AAe?$AAn?$AA?9?$AA1?$AA?$FN?$AA?5?$AA?$DN?$AA?$DN?$AA?5?$AA?8?$AA?2?$AA0?$AA?8?$AA?$AA@ 10076164     rtw_modelmap_utils.obj
 0002:000041a4       ??_C@_1DM@DBAOGGOO@?$AAm?$AAm?$AAi?$AAP?$AAa?$AAt?$AAh?$AA?$FL?$AAm?$AAm?$AAi?$AAP?$AAa?$AAt?$AAh?$AAL?$AAe?$AAn?$AA?9?$AA1?$AA?$FN?$AA?5?$AA?$DN?$AA?$DN?$AA?5?$AA?8?$AA?2?$AA0?$AA?8?$AA?$AA@ 100761a4     rtw_modelmap_utils.obj
 0002:000041ec       ??_C@_1DC@LHIAKAFE@?$AAb?$AAl?$AAo?$AAc?$AAk?$AAP?$AAa?$AAt?$AAh?$AA?5?$AA?$CB?$AA?$DN?$AA?5?$AA?$CI?$AA?$CI?$AAv?$AAo?$AAi?$AAd?$AA?5?$AA?$CK?$AA?$CJ?$AA0?$AA?$CJ?$AA?$AA@ 100761ec     rtw_modelmap_utils.obj
 0002:00004228       ??_C@_1GI@KIEJKPGC@?$AAf?$AAu?$AAl?$AAl?$AAS?$AAt?$AAa?$AAt?$AAe?$AAB?$AAl?$AAo?$AAc?$AAk?$AAP?$AAa?$AAt?$AAh?$AA?$FL?$AAf?$AAu?$AAl?$AAl?$AAS?$AAt?$AAa?$AAt?$AAe?$AAB?$AAl?$AAo?$AAc@ 10076228     rtw_modelmap_utils.obj
 0002:000042a8       ??_C@_1EE@DNPIBJHC@?$AA?$CI?$AA?$CI?$AAd?$AAi?$AAm?$AAM?$AAa?$AAp?$AA?$CJ?$AA?$FL?$AA?$CI?$AAm?$AAa?$AAp?$AAI?$AAd?$AAx?$AA?$CJ?$AA?$FN?$AA?4?$AAn?$AAu?$AAm?$AAD?$AAi?$AAm?$AAs?$AA?$CJ?$AA?5?$AA?$DN?$AA?$DN?$AA?5@ 100762a8     rtw_modelmap_utils.obj
 0002:000042fc       ??_C@_06JFOKFOED@CSTATE?$AA@ 100762fc     rtw_modelmap_utils.obj
 0002:00004304       ??_C@_06FAENGAMN@DSTATE?$AA@ 10076304     rtw_modelmap_utils.obj
 0002:0000430c       ??_C@_1BI@LEBJNOGG@?$AAc?$AAs?$AAv?$AAI?$AAd?$AAx?$AA?5?$AA?$DO?$AA?$DN?$AA?5?$AA0?$AA?$AA@ 1007630c     rtw_modelmap_utils.obj
 0002:00004328       ??_C@_1BA@KDMGHCHP@?$AAT?$AAI?$AAD?$AA?$DN?$AA?$DN?$AA?9?$AA1?$AA?$AA@ 10076328     rtw_modelmap_utils.obj
 0002:0000433c       ??_C@_1DM@DHGKBPCE@?$AAs?$AAi?$AAg?$AAP?$AAa?$AAt?$AAh?$AA?$FL?$AAs?$AAi?$AAg?$AAP?$AAa?$AAt?$AAh?$AAL?$AAe?$AAn?$AA?9?$AA1?$AA?$FN?$AA?5?$AA?$DN?$AA?$DN?$AA?5?$AA?8?$AA?2?$AA0?$AA?8?$AA?$AA@ 1007633c     rtw_modelmap_utils.obj
 0002:00004384       ??_C@_0BG@NECBIIOC@speed_controller_copy?$AA@ 10076384     xpctarget.obj
 0002:000043a0       _ptsetfilename             100763a0     xpctarget.obj
 0002:000043a4       _xmlfile                   100763a4     xpctarget.obj
 0002:000043ac       ??_C@_03KJCPEMEA@6?47?$AA@ 100763ac     xpctarget.obj
 0002:000043b0       __real@3fb999999999999a    100763b0     xpctarget.obj
 0002:000043c0       __real@408f400000000000    100763c0     xpctarget.obj
 0002:000043d0       _speed_controller_copy_BIOMAP 100763d0     appmappingData.obj
 0002:000045ec       _speed_controller_copy_dtmap 100765ec     appmappingData.obj
 0002:000045f8       _speed_controller_copy_LBLMAP 100765f8     appmappingData.obj
 0002:00004818       _speed_controller_copy_SIDMAP 10076818     appmappingData.obj
 0002:00004a38       _speed_controller_copy_SBIO 10076a38     appmappingData.obj
 0002:00004af0       _speed_controller_copy_SLBL 10076af0     appmappingData.obj
 0002:00004ba8       _speed_controller_copy_PTIDSMAP 10076ba8     appmappingData.obj
 0002:00004df8       _speed_controller_copy_PTNAMESMAP 10076df8     appmappingData.obj
 0002:00005048       _speed_controller_copy_SPTMAP 10077048     appmappingData.obj
 0002:00005170       _appInfo                   10077170     appmappingData.obj
 0002:00005484       ??_C@_0BA@GJJGMLGD@Speedgoat?5IO101?$AA@ 10077484     sg_IO101_da_s.obj
 0002:00005498       ??_C@_0CI@PKDAJHKG@?$CFs?5calibration?5data?5retrieval?5ti@ 10077498     sg_IO101_da_s.obj
 0002:000054c8       ??_C@_0ED@LKHIFFLC@Wrong?5number?5of?5input?5arguments?5@ 100774c8     sg_IO101_da_s.obj
 0002:00005518       ??_C@_0BG@EPCOHGPO@?$CFs?3?5board?5not?5present?$AA@ 10077518     sg_IO101_da_s.obj
 0002:00005534       ??_C@_0CI@NFFNBHJA@?$CFs?5?$CIbus?5?$CFd?0?5slot?5?$CFd?$CJ?3?5board?5not?5@ 10077534     sg_IO101_da_s.obj
 0002:00005568       __real@3eb0c6f7a0b5ed8d    10077568     sg_IO101_da_s.obj
 0002:00005578       __real@3f1a36e2eb1c432d    10077578     sg_IO101_da_s.obj
 0002:00005588       __real@3f6ad7d7c2ca148b    10077588     sg_IO101_da_s.obj
 0002:00005598       __real@4024000000000000    10077598     sg_IO101_da_s.obj
 0002:000055a8       __real@40a9998000000000    100775a8     sg_IO101_da_s.obj
 0002:000055b8       __real@40fd204000000000    100775b8     sg_IO101_da_s.obj
 0002:000055c4       ??_C@_0P@FEDIIJDN@Acromag?5PMC730?$AA@ 100775c4     sg_IO101_setup_s.obj
 0002:000055d8       ??_C@_0BA@CGNHFNKE@Speedgoat?5IO106?$AA@ 100775d8     sg_IO106_ad_s.obj
 0002:000055f0       __real@4004000000000000    100775f0     sg_IO106_ad_s.obj
 0002:00005600       __real@4014000000000000    10077600     sg_IO106_ad_s.obj
 0002:00005610       __real@40b999999999999a    10077610     sg_IO106_ad_s.obj
 0002:00005620       __real@40c999999999999a    10077620     sg_IO106_ad_s.obj
 0002:00005630       __xmm@400400000000000040c999999999999a 10077630     sg_IO106_ad_s.obj
 0002:00005650       __xmm@401400000000000040b999999999999a 10077650     sg_IO106_ad_s.obj
 0002:00005670       __xmm@402400000000000040a999999999999a 10077670     sg_IO106_ad_s.obj
 0002:00005684       ??_C@_0CH@BHKGEFPM@?5?5?$CFs?5failed?5to?5clear?5analog?5inpu@ 10077684     sg_IO106_setup_s.obj
 0002:000056b4       ??_C@_0CA@JNBAOBJE@?5?5?$CFs?5autocalibration?5started?4?4?6?$AA@ 100776b4     sg_IO106_setup_s.obj
 0002:000056dc       ??_C@_0BP@MLPPNOH@?5?5?$CFs?5autocalibration?5timed?5out?$AA@ 100776dc     sg_IO106_setup_s.obj
 0002:00005704       ??_C@_0CB@CHAPPIHB@?5?5?$CFs?5autocalibration?5succeeded?4?6@ 10077704     sg_IO106_setup_s.obj
 0002:00005730       __real@4132342800000000    10077730     sg_IO106_setup_s.obj
 0002:00005740       __real@4156c13200000000    10077740     sg_IO106_setup_s.obj
 0002:0000574c       ??_C@_0CG@HGCDJNPD@?$CFs?5ID?$CFi?3?5Invalid?5PCI?5bus?5argumen@ 1007774c     sglibc_MSVC140_vc:sglibc.obj
 0002:0000577c       ??_C@_0CO@FBMLOABH@?$CFs?5ID?$CFi?3?5Not?5found?5at?5bus?5?$CFi?0?5sl@ 1007777c     sglibc_MSVC140_vc:sglibc.obj
 0002:000057b4       ??_C@_0BJ@EIMDIBO@?$CFs?3?5No?5such?5module?5found?$AA@ 100777b4     sglibc_MSVC140_vc:sglibc.obj
 0002:000057d8       ??_C@_0MC@DHPOAAJA@?$CFs?5ID?$CFi?3?5Only?5?$CFi?5modules?5found?4?5@ 100777d8     sglibc_MSVC140_vc:sglibc.obj
 0002:000058c0       ??_C@_0BH@OIBECGCO@?$CFs?5ID?$CFi?3?5Unknown?5error?$AA@ 100778c0     sglibc_MSVC140_vc:sglibc.obj
 0002:000058dc       ??_C@_0BK@EBKJELMI@maxfunc?5?$DN?5?$CFd?5at?5?$FL?$CFd?0?5?$CFd?$FN?6?$AA@ 100778dc     xpcruntime:xpcimports.obj
 0002:000058fc       ??_C@_0CC@DMFKNLL@VendorId?5?$DN?50x?$CFx?0?5DeviceId?5?$DN?50x?$CFx@ 100778fc     xpcruntime:xpcimports.obj
 0002:00005924       ??_C@_0DH@OHCBLNMG@Subsystem?5Device?5ID?5?$DN?50x?$CFx?6Subsy@ 10077924     xpcruntime:xpcimports.obj
 0002:00005968       ??_C@_0BD@MMMMEFCM@Class?5Code?5?$DN?50x?$CFx?6?$AA@ 10077968     xpcruntime:xpcimports.obj
 0002:00005980       ??_C@_0BE@OLDDDNHM@InterruptLine?5?$DN?5?$CFd?6?$AA@ 10077980     xpcruntime:xpcimports.obj
 0002:00005998       ??_C@_0CE@IBMFFAPN@bus?5?$DN?5?$CFd?0?5slot?5?$DN?5?$CFd?0?5function?5?$DN?5@ 10077998     xpcruntime:xpcimports.obj
 0002:000059c4       ??_C@_0CE@DGLLGDFH@?5?5?5?5Phys?5?5?5Virtual?5?5?5Length?5IO?1M@ 100779c4     xpcruntime:xpcimports.obj
 0002:000059f0       ??_C@_0BI@FEOPLEMG@?$CF08x?5?$CF08x?5?$CF08x?5?5?5?5?5?5?$CFc?6?$AA@ 100779f0     xpcruntime:xpcimports.obj
 0002:00005a0c       ??_C@_0BB@BNNCEDPC@rl32eScopeExists?$AA@ 10077a0c     xpcruntime:xpcimports.obj
 0002:00005a20       ??_C@_0BM@FJBFEGFG@rl32eScopeExists?5not?5found?6?$AA@ 10077a20     xpcruntime:xpcimports.obj
 0002:00005a44       ??_C@_0O@BNNGKJEA@rl32eDefScope?$AA@ 10077a44     xpcruntime:xpcimports.obj
 0002:00005a54       ??_C@_0BJ@CDNOENKA@rl32eDefScope?5not?5found?6?$AA@ 10077a54     xpcruntime:xpcimports.obj
 0002:00005a74       ??_C@_0P@CKNKILDP@rl32eAddSignal?$AA@ 10077a74     xpcruntime:xpcimports.obj
 0002:00005a88       ??_C@_0BK@GMJAJBAI@rl32eAddSignal?5not?5found?6?$AA@ 10077a88     xpcruntime:xpcimports.obj
 0002:00005aa8       ??_C@_0BB@LDMIHGCE@rl32eGetSignalNo?$AA@ 10077aa8     xpcruntime:xpcimports.obj
 0002:00005abc       ??_C@_0BM@LGAMBAID@rl32eGetSignalNo?5not?5found?6?$AA@ 10077abc     xpcruntime:xpcimports.obj
 0002:00005ae0       ??_C@_0O@CFDGALBP@rl32eSetScope?$AA@ 10077ae0     xpcruntime:xpcimports.obj
 0002:00005af0       ??_C@_0BJ@JCLHHIN@rl32eSetScope?5not?5found?6?$AA@ 10077af0     xpcruntime:xpcimports.obj
 0002:00005b10       ??_C@_0P@IKMCBMHH@xpceFSScopeSet?$AA@ 10077b10     xpcruntime:xpcimports.obj
 0002:00005b24       ??_C@_0BK@JODJPNNH@xpceFSScopeSet?5not?5found?6?$AA@ 10077b24     xpcruntime:xpcimports.obj
 0002:00005b44       ??_C@_0BE@DLACEEJM@rl32eSetTargetScope?$AA@ 10077b44     xpcruntime:xpcimports.obj
 0002:00005b5c       ??_C@_0BP@JCHFMKPJ@rl32eSetTargetScope?5not?5found?6?$AA@ 10077b5c     xpcruntime:xpcimports.obj
 0002:00005b84       ??_C@_0BJ@LIDLNDHC@rl32eSetTargetScopeSigFt?$AA@ 10077b84     xpcruntime:xpcimports.obj
 0002:00005ba4       ??_C@_0CE@JLGHCFHI@rl32eSetTargetScopeSigFt?5not?5fou@ 10077ba4     xpcruntime:xpcimports.obj
 0002:00005bd0       ??_C@_0BI@JAPOIDNG@rl32eRestartAcquisition?$AA@ 10077bd0     xpcruntime:xpcimports.obj
 0002:00005bec       ??_C@_0CD@LLBEFFBO@rl32eRestartAcquisition?5not?5foun@ 10077bec     xpcruntime:xpcimports.obj
 0002:00005c18       ??_C@_0P@IEIIADJB@xpceScopeAcqOK?$AA@ 10077c18     xpcruntime:xpcimports.obj
 0002:00005c2c       ??_C@_0BK@NJCKNFPN@xpceScopeAcqOK?5not?5found?6?$AA@ 10077c2c     xpcruntime:xpcimports.obj
 0002:00005c4c       ??_C@_0BA@IJINKAHF@xpceRegisterISR?$AA@ 10077c4c     xpcruntime:xpcimports.obj
 0002:00005c60       ??_C@_0BL@NNDLOEJE@xpceRegisterISR?5not?5found?6?$AA@ 10077c60     xpcruntime:xpcimports.obj
 0002:00005c80       ??_C@_0BC@NLBADGKF@xpceDeRegisterISR?$AA@ 10077c80     xpcruntime:xpcimports.obj
 0002:00005c98       ??_C@_0BN@DCAIKFFD@xpceDeRegisterISR?5not?5found?6?$AA@ 10077c98     xpcruntime:xpcimports.obj
 0002:00005cbc       ??_C@_07JPMEPILD@xpcInpB?$AA@ 10077cbc     xpcruntime:xpcimports.obj
 0002:00005cc8       ??_C@_0BD@PGABEJOL@xpcInpB?5not?5found?6?$AA@ 10077cc8     xpcruntime:xpcimports.obj
 0002:00005ce0       ??_C@_07KIHBBOKH@xpcInpW?$AA@ 10077ce0     xpcruntime:xpcimports.obj
 0002:00005cec       ??_C@_0BD@FPCJFMCC@xpcInpW?5not?5found?6?$AA@ 10077cec     xpcruntime:xpcimports.obj
 0002:00005d04       ??_C@_08KDIAJBOP@xpcInpDW?$AA@ 10077d04     xpcruntime:xpcimports.obj
 0002:00005d10       ??_C@_0BE@PIELDNIL@xpcInpDW?5not?5found?6?$AA@ 10077d10     xpcruntime:xpcimports.obj
 0002:00005d28       ??_C@_08PJFMOIGO@xpcOutpB?$AA@ 10077d28     xpcruntime:xpcimports.obj
 0002:00005d34       ??_C@_0BE@HCKNCEKF@xpcOutpB?5not?5found?6?$AA@ 10077d34     xpcruntime:xpcimports.obj
 0002:00005d4c       ??_C@_08MOOJAOHK@xpcOutpW?$AA@ 10077d4c     xpcruntime:xpcimports.obj
 0002:00005d58       ??_C@_0BE@NLIFDBGM@xpcOutpW?5not?5found?6?$AA@ 10077d58     xpcruntime:xpcimports.obj
 0002:00005d70       ??_C@_09FLIEKHJG@xpcOutpDW?$AA@ 10077d70     xpcruntime:xpcimports.obj
 0002:00005d7c       ??_C@_0BF@GJKLPNHB@xpcOutpDW?5not?5found?6?$AA@ 10077d7c     xpcruntime:xpcimports.obj
 0002:00005d98       ??_C@_0BH@EHOLELHH@xpcReserveMemoryRegion?$AA@ 10077d98     xpcruntime:xpcimports.obj
 0002:00005db4       ??_C@_0CC@KAAAGPI@xpcReserveMemoryRegion?5not?5found@ 10077db4     xpcruntime:xpcimports.obj
 0002:00005ddc       ??_C@_0BA@JGPMHGAF@rl32eShowPCIDev?$AA@ 10077ddc     xpcruntime:xpcimports.obj
 0002:00005df0       ??_C@_0BL@DDFFLNHI@rl32eShowPCIDev?5not?5found?6?$AA@ 10077df0     xpcruntime:xpcimports.obj
 0002:00005e10       ??_C@_0BB@KBCOJPFB@rl32eShowPCIInfo?$AA@ 10077e10     xpcruntime:xpcimports.obj
 0002:00005e24       ??_C@_0BM@IFDMAGLO@rl32eShowPCIInfo?5not?5found?6?$AA@ 10077e24     xpcruntime:xpcimports.obj
 0002:00005e48       ??_C@_0BA@BGPAADB@rl32eGetPCIInfo?$AA@ 10077e48     xpcruntime:xpcimports.obj
 0002:00005e5c       ??_C@_0BL@IGOMLDCK@rl32eGetPCIInfo?5not?5found?6?$AA@ 10077e5c     xpcruntime:xpcimports.obj
 0002:00005e7c       ??_C@_0BG@NJPFKFDP@rl32eGetPCIInfoAtSlot?$AA@ 10077e7c     xpcruntime:xpcimports.obj
 0002:00005e98       ??_C@_0CB@BBKIPMLA@rl32eGetPCIInfoAtSlot?5not?5found?6@ 10077e98     xpcruntime:xpcimports.obj
 0002:00005ec0       ??_C@_0BH@OKBOPNFG@xpceAssignPCIInterrupt?$AA@ 10077ec0     xpcruntime:xpcimports.obj
 0002:00005edc       ??_C@_0CC@CDNDNJBJ@xpceAssignPCIInterrupt?5not?5found@ 10077edc     xpcruntime:xpcimports.obj
 0002:00005f04       ??_C@_0BD@PCKOKHO@xpceGetSignalValue?$AA@ 10077f04     xpcruntime:xpcimports.obj
 0002:00005f1c       ??_C@_0BO@GCBDJHMB@xpceGetSignalValue?5not?5found?6?$AA@ 10077f1c     xpcruntime:xpcimports.obj
 0002:00005f40       ??_C@_0BB@BJONJAGA@xpceSetParameter?$AA@ 10077f40     xpcruntime:xpcimports.obj
 0002:00005f54       ??_C@_0BM@BJIKDLHA@xpceSetParameter?5not?5found?6?$AA@ 10077f54     xpcruntime:xpcimports.obj
 0002:00005f78       ??_C@_0BB@GNFDFMCM@xpceGetParameter?$AA@ 10077f78     xpcruntime:xpcimports.obj
 0002:00005f8c       ??_C@_0BM@POHNKBC@xpceGetParameter?5not?5found?6?$AA@ 10077f8c     xpcruntime:xpcimports.obj
 0002:00005fb0       ??_C@_0BB@CEIJLFCD@xpceGetParamDims?$AA@ 10077fb0     xpcruntime:xpcimports.obj
 0002:00005fc4       ??_C@_0BM@OABDBKAO@xpceGetParamDims?5not?5found?6?$AA@ 10077fc4     xpcruntime:xpcimports.obj
 0002:00005fe8       ??_C@_0L@OCBLLHBM@xpceGetTET?$AA@ 10077fe8     xpcruntime:xpcimports.obj
 0002:00005ff8       ??_C@_0BG@HNOFBOB@xpceGetTET?5not?5found?6?$AA@ 10077ff8     xpcruntime:xpcimports.obj
 0002:00006014       ??_C@_0P@OKGNGAGH@xpcIsModelInit?$AA@ 10078014     xpcruntime:xpcimports.obj
 0002:00006028       ??_C@_0BK@DHEMLBIM@xpcIsModelInit?5not?5found?6?$AA@ 10078028     xpcruntime:xpcimports.obj
 0002:00006048       ??_C@_0BH@KJJLCAOJ@xpcAllocPhysicalMemory?$AA@ 10078048     xpcruntime:xpcimports.obj
 0002:00006064       ??_C@_0CC@MOJPNHKL@xpcAllocPhysicalMemory?5not?5found@ 10078064     xpcruntime:xpcimports.obj
 0002:0000608c       ??_C@_0BG@CBNPGAEL@xpcFreePhysicalMemory?$AA@ 1007808c     xpcruntime:xpcimports.obj
 0002:000060a8       ??_C@_0CB@PKJEBPOG@xpcFreePhysicalMemory?5not?5found?6@ 100780a8     xpcruntime:xpcimports.obj
 0002:000060d0       ??_C@_0BC@JGKNLICL@xpcGetElapsedTime?$AA@ 100780d0     xpcruntime:xpcimports.obj
 0002:000060e8       ??_C@_0BN@OEOAHCIO@xpcGetElapsedTime?5not?5found?6?$AA@ 100780e8     xpcruntime:xpcimports.obj
 0002:0000610c       ??_C@_0M@ICBLMODA@xpcBusyWait?$AA@ 1007810c     xpcruntime:xpcimports.obj
 0002:0000611c       ??_C@_0BH@FBOPECBI@xpcBusyWait?5not?5found?6?$AA@ 1007811c     xpcruntime:xpcimports.obj
 0002:00006138       ??_C@_0N@LKKJEKKA@TBCreateSpin?$AA@ 10078138     xpcruntime:xpcimports.obj
 0002:00006148       ??_C@_0BI@FHKMLKOE@TBCreateSpin?5not?5found?6?$AA@ 10078148     xpcruntime:xpcimports.obj
 0002:00006164       ??_C@_0N@HOAJHNBD@TBDeleteSpin?$AA@ 10078164     xpcruntime:xpcimports.obj
 0002:00006174       ??_C@_0BI@BKCPAAG@TBDeleteSpin?5not?5found?6?$AA@ 10078174     xpcruntime:xpcimports.obj
 0002:00006190       ??_C@_0P@DAHDDBJG@TBTakeSpinFast?$AA@ 10078190     xpcruntime:xpcimports.obj
 0002:000061a4       ??_C@_0BK@NKAIBHGB@TBTakeSpinFast?5not?5found?6?$AA@ 100781a4     xpcruntime:xpcimports.obj
 0002:000061c4       ??_C@_0P@FKNAAELA@TBGiveSpinFast?$AA@ 100781c4     xpcruntime:xpcimports.obj
 0002:000061d8       ??_C@_0BK@KGPJBJND@TBGiveSpinFast?5not?5found?6?$AA@ 100781d8     xpcruntime:xpcimports.obj
 0002:000061f8       ??_C@_0BE@IIGBFDHK@xpceCreateSemaphore?$AA@ 100781f8     xpcruntime:xpcimports.obj
 0002:00006210       ??_C@_0BP@KFBAFFKJ@xpceCreateSemaphore?5not?5found?6?$AA@ 10078210     xpcruntime:xpcimports.obj
 0002:00006238       ??_C@_0BC@IFNIONKJ@xpceWaitSemaphore?$AA@ 10078238     xpcruntime:xpcimports.obj
 0002:00006250       ??_C@_0BN@NMFAADIO@xpceWaitSemaphore?5not?5found?6?$AA@ 10078250     xpcruntime:xpcimports.obj
 0002:00006274       ??_C@_0BE@NNDIOBKE@xpceSignalSemaphore?$AA@ 10078274     xpcruntime:xpcimports.obj
 0002:0000628c       ??_C@_0BP@LBANMHJP@xpceSignalSemaphore?5not?5found?6?$AA@ 1007828c     xpcruntime:xpcimports.obj
 0002:000062b4       ??_C@_0BE@MEBEKOIM@xpceDeleteSemaphore?$AA@ 100782b4     xpcruntime:xpcimports.obj
 0002:000062cc       ??_C@_0BP@OFNCKOJH@xpceDeleteSemaphore?5not?5found?6?$AA@ 100782cc     xpcruntime:xpcimports.obj
 0002:000062f4       ??_C@_0BD@MFNDMBOF@FindUsbVideoDevice?$AA@ 100782f4     xpcruntime:xpcimports.obj
 0002:0000630c       ??_C@_0BO@POKLDHMI@FindUsbVideoDevice?5not?5found?6?$AA@ 1007830c     xpcruntime:xpcimports.obj
 0002:00006330       ??_C@_0BA@PLPAPNAB@GetVideoConfigs?$AA@ 10078330     xpcruntime:xpcimports.obj
 0002:00006344       ??_C@_0BL@DALDHKHC@GetVideoConfigs?5not?5found?6?$AA@ 10078344     xpcruntime:xpcimports.obj
 0002:00006364       ??_C@_0L@GBAEMHMH@StartVideo?$AA@ 10078364     xpcruntime:xpcimports.obj
 0002:00006374       ??_C@_0BG@HDCELEBP@StartVideo?5not?5found?6?$AA@ 10078374     xpcruntime:xpcimports.obj
 0002:00006390       ??_C@_0BA@FDNPOCLN@ReadFrameBuffer?$AA@ 10078390     xpcruntime:xpcimports.obj
 0002:000063a4       ??_C@_0BL@JHGHPNBI@ReadFrameBuffer?5not?5found?6?$AA@ 100783a4     xpcruntime:xpcimports.obj
 0002:000063c4       ??_C@_09FAHCLKAG@StopVideo?$AA@ 100783c4     xpcruntime:xpcimports.obj
 0002:000063d0       ??_C@_0BF@NKGKKADL@StopVideo?5not?5found?6?$AA@ 100783d0     xpcruntime:xpcimports.obj
 0002:000063ec       ??_C@_0O@MCPKDLLL@ConvertUImage?$AA@ 100783ec     xpcruntime:xpcimports.obj
 0002:000063fc       ??_C@_0BJ@PHJKOAFL@ConvertUImage?5not?5found?6?$AA@ 100783fc     xpcruntime:xpcimports.obj
 0002:0000641c       ??_C@_0BD@NKCBPBJJ@CreateVideoDisplay?$AA@ 1007841c     xpcruntime:xpcimports.obj
 0002:00006434       ??_C@_0BO@HPPLLNFP@CreateVideoDisplay?5not?5found?6?$AA@ 10078434     xpcruntime:xpcimports.obj
 0002:00006458       ??_C@_0BE@KJCKGPHA@DestroyVideoDisplay?$AA@ 10078458     xpcruntime:xpcimports.obj
 0002:00006470       ??_C@_0BP@FMGLJAIJ@DestroyVideoDisplay?5not?5found?6?$AA@ 10078470     xpcruntime:xpcimports.obj
 0002:00006498       ??_C@_0BC@HCMIMIDN@StartVideoDisplay?$AA@ 10078498     xpcruntime:xpcimports.obj
 0002:000064b0       ??_C@_0BN@EFIEBGOO@StartVideoDisplay?5not?5found?6?$AA@ 100784b0     xpcruntime:xpcimports.obj
 0002:000064d4       ??_C@_0BB@JBBLMILG@StopVideoDisplay?$AA@ 100784d4     xpcruntime:xpcimports.obj
 0002:000064e8       ??_C@_0BM@DBJBPLEL@StopVideoDisplay?5not?5found?6?$AA@ 100784e8     xpcruntime:xpcimports.obj
 0002:0000650c       ??_C@_0M@MFJEGMHC@StreamVideo?$AA@ 1007850c     xpcruntime:xpcimports.obj
 0002:0000651c       ??_C@_0BH@OINCDMLA@StreamVideo?5not?5found?6?$AA@ 1007851c     xpcruntime:xpcimports.obj
 0002:00006538       ??_C@_0N@IGGLCIGE@xpceaddEvent?$AA@ 10078538     xpcruntime:xpcimports.obj
 0002:00006548       ??_C@_0BI@NHJNFMKH@xpceaddEvent?5not?5found?6?$AA@ 10078548     xpcruntime:xpcimports.obj
 0002:00006564       ??_C@_0BC@MLJODBHJ@slrtStartProfiler?$AA@ 10078564     xpcruntime:xpcimports.obj
 0002:0000657c       ??_C@_0BN@HLNCOKA@slrtStartProfiler?5not?5found?6?$AA@ 1007857c     xpcruntime:xpcimports.obj
 0002:000065a0       ??_C@_0BB@ONJONMCD@slrtStopProfiler?$AA@ 100785a0     xpcruntime:xpcimports.obj
 0002:000065b4       ??_C@_0BM@GAKJEGBA@slrtStopProfiler?5not?5found?6?$AA@ 100785b4     xpcruntime:xpcimports.obj
 0002:000065d8       ??_C@_0BF@EILBHBBF@slrtGetProfilerState?$AA@ 100785d8     xpcruntime:xpcimports.obj
 0002:000065f4       ??_C@_0CA@EDDFOCLE@slrtGetProfilerState?5not?5found?6?$AA@ 100785f4     xpcruntime:xpcimports.obj
 0002:0000661c       ??_C@_0BB@HDPOIJAB@xpceDAQPostEvent?$AA@ 1007861c     xpcruntime:xpcimports.obj
 0002:00006630       ??_C@_0BM@IHANBKGN@xpceDAQPostEvent?5not?5found?6?$AA@ 10078630     xpcruntime:xpcimports.obj
 0002:00006654       ??_C@_0BH@MBACMOD@xpceDAQUpdateTimeStamp?$AA@ 10078654     xpcruntime:xpcimports.obj
 0002:00006670       ??_C@_0CC@DAKBBINL@xpceDAQUpdateTimeStamp?5not?5found@ 10078670     xpcruntime:xpcimports.obj
 0002:00006698       ??_C@_0BG@CCHICKPN@slrteSetStepSizeDelta?$AA@ 10078698     xpcruntime:xpcimports.obj
 0002:000066b4       ??_C@_0CB@MKHINEIJ@slrteSetStepSizeDelta?5not?5found?6@ 100786b4     xpcruntime:xpcimports.obj
 0002:000066dc       ??_C@_0BI@CLNBLDKJ@slrteGetCurrentStepSize?$AA@ 100786dc     xpcruntime:xpcimports.obj
 0002:000066f8       ??_C@_0CD@GIOJPGJA@slrteGetCurrentStepSize?5not?5foun@ 100786f8     xpcruntime:xpcimports.obj
 0002:00006724       ??_C@_0BE@FCLCBOC@registerPTPTimeRead?$AA@ 10078724     xpcruntime:xpcimports.obj
 0002:0000673c       ??_C@_0BP@LHPKAJIP@registerPTPTimeRead?5not?5found?6?$AA@ 1007873c     xpcruntime:xpcimports.obj
 0002:00006764       ??_C@_0BG@KIGCDDJI@unRegisterPTPTimeRead?$AA@ 10078764     xpcruntime:xpcimports.obj
 0002:00006780       ??_C@_0CB@MLFFBFCM@unRegisterPTPTimeRead?5not?5found?6@ 10078780     xpcruntime:xpcimports.obj
 0002:000067a8       ??_C@_0BB@IPMDDBHK@slTestInitialize?$AA@ 100787a8     xpcruntime:xpcimports.obj
 0002:000067bc       ??_C@_0BM@LAJFCCJH@slTestInitialize?5not?5found?6?$AA@ 100787bc     xpcruntime:xpcimports.obj
 0002:000067e0       ??_C@_0BF@OOMPMEBC@slTestLogAssessments?$AA@ 100787e0     xpcruntime:xpcimports.obj
 0002:000067fc       ??_C@_0CA@FGJCEBAG@slTestLogAssessments?5not?5found?6?$AA@ 100787fc     xpcruntime:xpcimports.obj
 0002:00006824       ??_C@_0BB@HJHKONHO@slTestEvalOnFail?$AA@ 10078824     xpcruntime:xpcimports.obj
 0002:00006838       ??_C@_0BM@JIKCFFNJ@slTestEvalOnFail?5not?5found?6?$AA@ 10078838     xpcruntime:xpcimports.obj
 0002:0000685c       ??_C@_0BA@LBHLABFP@slTestTerminate?$AA@ 1007885c     xpcruntime:xpcimports.obj
 0002:00006870       ??_C@_0BL@EMFGKAPA@slTestTerminate?5not?5found?6?$AA@ 10078870     xpcruntime:xpcimports.obj
 0002:00006890       ??_C@_0BE@JPNPBBEO@slTestRegAssessment?$AA@ 10078890     xpcruntime:xpcimports.obj
 0002:000068a8       ??_C@_0BP@FBDEJJJH@slTestRegAssessment?5not?5found?6?$AA@ 100788a8     xpcruntime:xpcimports.obj
 0002:000068d0       ??_C@_0O@NCLGDNIB@slrteSetupMSI?$AA@ 100788d0     xpcruntime:xpcimports.obj
 0002:000068e0       ??_C@_0BJ@HEFMECLM@slrteSetupMSI?5not?5found?6?$AA@ 100788e0     xpcruntime:xpcimports.obj
 0002:00006900       ??_C@_0BH@BPOLALHD@slrtGetCRBScratchSpace?$AA@ 10078900     xpcruntime:xpcimports.obj
 0002:0000691c       ??_C@_0CC@KCKAJKKJ@slrtGetCRBScratchSpace?5not?5found@ 1007891c     xpcruntime:xpcimports.obj
 0002:00006944       ??_C@_0BC@MKFDAKOL@slrtGetSgCRBSpace?$AA@ 10078944     xpcruntime:xpcimports.obj
 0002:0000695c       ??_C@_0BN@JDPHPLHL@slrtGetSgCRBSpace?5not?5found?6?$AA@ 1007895c     xpcruntime:xpcimports.obj
 0002:00006980       ??_C@_0P@EPAPKLIF@slrtfsOpenFile?$AA@ 10078980     xpcruntime:xpcimports.obj
 0002:00006994       ??_C@_0BK@FIHCBOHG@slrtfsOpenFile?5not?5found?6?$AA@ 10078994     xpcruntime:xpcimports.obj
 0002:000069b4       ??_C@_0BA@LILAFDDL@slrtfsCloseFile?$AA@ 100789b4     xpcruntime:xpcimports.obj
 0002:000069c8       ??_C@_0BL@DEGHJFIB@slrtfsCloseFile?5not?5found?6?$AA@ 100789c8     xpcruntime:xpcimports.obj
 0002:000069e8       ??_C@_0BC@OKMJDIEH@slrtfsWriteToFile?$AA@ 100789e8     xpcruntime:xpcimports.obj
 0002:00006a00       ??_C@_0BN@KCFLCLAH@slrtfsWriteToFile?5not?5found?6?$AA@ 10078a00     xpcruntime:xpcimports.obj
 0002:00006a24       ??_C@_0BK@GIPNFFFF@slrtfsGetFileErrorMessage?$AA@ 10078a24     xpcruntime:xpcimports.obj
 0002:00006a44       ??_C@_0CF@BCBLMKLE@slrtfsGetFileErrorMessage?5not?5fo@ 10078a44     xpcruntime:xpcimports.obj
 0002:00006a70       ??_C@_0BD@ICBOKMK@slrtfsGetFileError?$AA@ 10078a70     xpcruntime:xpcimports.obj
 0002:00006a88       ??_C@_0BO@FNBANAE@slrtfsGetFileError?5not?5found?6?$AA@ 10078a88     xpcruntime:xpcimports.obj
 0002:00006aac       ??_C@_0BE@PPAJMHJP@slrtfsOpenFileAsync?$AA@ 10078aac     xpcruntime:xpcimports.obj
 0002:00006ac4       ??_C@_0BP@HKBMMJOK@slrtfsOpenFileAsync?5not?5found?6?$AA@ 10078ac4     xpcruntime:xpcimports.obj
 0002:00006aec       ??_C@_0BF@IGNDIBPF@slrtfsCloseFileAsync?$AA@ 10078aec     xpcruntime:xpcimports.obj
 0002:00006b08       ??_C@_0CA@GJPFDBKN@slrtfsCloseFileAsync?5not?5found?6?$AA@ 10078b08     xpcruntime:xpcimports.obj
 0002:00006b30       ??_C@_0BE@IOLEBNB@slrtfsGetFileStatus?$AA@ 10078b30     xpcruntime:xpcimports.obj
 0002:00006b48       ??_C@_0BP@PEFHDGHL@slrtfsGetFileStatus?5not?5found?6?$AA@ 10078b48     xpcruntime:xpcimports.obj
 0002:00006b70       ??_C@_0M@HKIJIMG@slrtfsFread?$AA@ 10078b70     xpcruntime:xpcimports.obj
 0002:00006b80       ??_C@_0BH@OOKBGONO@slrtfsFread?5not?5found?6?$AA@ 10078b80     xpcruntime:xpcimports.obj
 0002:00006b9c       ??_C@_0BE@OGCMPLAP@slrtGetDefaultDrive?$AA@ 10078b9c     xpcruntime:xpcimports.obj
 0002:00006bb4       ??_C@_0BP@HKFGLHOE@slrtGetDefaultDrive?5not?5found?6?$AA@ 10078bb4     xpcruntime:xpcimports.obj
 0002:00006bdc       ??_C@_0N@NAJIKFFI@slrtLogEvent?$AA@ 10078bdc     xpcruntime:xpcimports.obj
 0002:00006bec       ??_C@_0BI@NKCEACND@slrtLogEvent?5not?5found?6?$AA@ 10078bec     xpcruntime:xpcimports.obj
 0002:00006c08       ??_C@_0N@IDKFJOHI@getlasterror?$AA@ 10078c08     xpcruntime:xpcimports.obj
 0002:00006c18       ??_C@_0BI@MIHMCHGL@getlasterror?5not?5found?6?$AA@ 10078c18     xpcruntime:xpcimports.obj
 0002:00006c34       ??_C@_0P@OKHGKJKN@geterrorstring?$AA@ 10078c34     xpcruntime:xpcimports.obj
 0002:00006c48       ??_C@_0BK@NOHFDMLP@geterrorstring?5not?5found?6?$AA@ 10078c48     xpcruntime:xpcimports.obj
 0002:00006c68       ??_C@_0BD@HNFFKMGJ@slrtGetCPUTCelsius?$AA@ 10078c68     xpcruntime:xpcimports.obj
 0002:00006c80       ??_C@_0BO@LHBFKLIH@slrtGetCPUTCelsius?5not?5found?6?$AA@ 10078c80     xpcruntime:xpcimports.obj
 0002:00006ca4       ??_C@_0M@OONCNCLM@slrtWarning?$AA@ 10078ca4     xpcruntime:xpcimports.obj
 0002:00006cb4       ??_C@_0BH@ICKGIEMB@slrtWarning?5not?5found?6?$AA@ 10078cb4     xpcruntime:xpcimports.obj
 0002:00006cd0       ??_C@_0M@JACEPOPN@registerNIC?$AA@ 10078cd0     xpcruntime:xpcimports.obj
 0002:00006ce0       ??_C@_0BH@JMDHJIAC@registerNIC?5not?5found?6?$AA@ 10078ce0     xpcruntime:xpcimports.obj
 0002:00006cfc       ??_C@_0M@KBKHECFH@NICSetIface?$AA@ 10078cfc     xpcruntime:xpcimports.obj
 0002:00006d0c       ??_C@_0BH@NJAHOBA@NICSetIface?5not?5found?6?$AA@ 10078d0c     xpcruntime:xpcimports.obj
 0002:00006d28       ??_C@_0M@FAILFBCK@NICGetIface?$AA@ 10078d28     xpcruntime:xpcimports.obj
 0002:00006d38       ??_C@_0BH@KDLLDOGM@NICGetIface?5not?5found?6?$AA@ 10078d38     xpcruntime:xpcimports.obj
 0002:00006d54       ??_C@_0L@JNFPDPO@releaseNIC?$AA@ 10078d54     xpcruntime:xpcimports.obj
 0002:00006d64       ??_C@_0BG@EBGJANLA@releaseNIC?5not?5found?6?$AA@ 10078d64     xpcruntime:xpcimports.obj
 0002:00006d80       ??_C@_0BC@HLDKJAG@SetIPTASKPriority?$AA@ 10078d80     xpcruntime:xpcimports.obj
 0002:00006d98       ??_C@_0BN@OGKMHHAE@SetIPTASKPriority?5not?5found?6?$AA@ 10078d98     xpcruntime:xpcimports.obj
 0002:00006dbc       ??_C@_0O@LHENMBDD@OpenInterface?$AA@ 10078dbc     xpcruntime:xpcimports.obj
 0002:00006dcc       ??_C@_0BJ@PFGDBKHB@OpenInterface?5not?5found?6?$AA@ 10078dcc     xpcruntime:xpcimports.obj
 0002:00006dec       ??_C@_0P@IINFELKD@CloseInterface?$AA@ 10078dec     xpcruntime:xpcimports.obj
 0002:00006e00       ??_C@_0BK@PAPDNDBK@CloseInterface?5not?5found?6?$AA@ 10078e00     xpcruntime:xpcimports.obj
 0002:00006e20       ??_C@_05LEFIAAOI@SetIP?$AA@ 10078e20     xpcruntime:xpcimports.obj
 0002:00006e28       ??_C@_0BB@CGLIBAMM@SetIP?5not?5found?6?$AA@ 10078e28     xpcruntime:xpcimports.obj
 0002:00006e3c       ??_C@_0BA@HIJJHHMD@AddGatewayRoute?$AA@ 10078e3c     xpcruntime:xpcimports.obj
 0002:00006e50       ??_C@_0BL@BFCFMDMN@AddGatewayRoute?5not?5found?6?$AA@ 10078e50     xpcruntime:xpcimports.obj
 0002:00006e70       ??_C@_0M@PHMABFPI@DeleteRoute?$AA@ 10078e70     xpcruntime:xpcimports.obj
 0002:00006e80       ??_C@_0BH@JPJGLLID@DeleteRoute?5not?5found?6?$AA@ 10078e80     xpcruntime:xpcimports.obj
 0002:00006e9c       ??_C@_0BA@FCDIMKIJ@GetHostTarIPAdd?$AA@ 10078e9c     xpcruntime:xpcimports.obj
 0002:00006eb0       ??_C@_0BL@MBKDGKBO@GetHostTarIPAdd?5not?5found?6?$AA@ 10078eb0     xpcruntime:xpcimports.obj
 0002:00006ed0       ??_C@_0M@HPMIPIBI@GetDCUUsage?$AA@ 10078ed0     xpcruntime:xpcimports.obj
 0002:00006ee0       ??_C@_0BH@EBLJKCJC@GetDCUUsage?5not?5found?6?$AA@ 10078ee0     xpcruntime:xpcimports.obj
 0002:00006efc       ??_C@_06MPKMECK@accept?$AA@ 10078efc     xpcruntime:xpcimports.obj
 0002:00006f04       ??_C@_0BC@GBGIEMNO@accept?5not?5found?6?$AA@ 10078f04     xpcruntime:xpcimports.obj
 0002:00006f1c       ??_C@_04NPNJNMMP@bind?$AA@ 10078f1c     xpcruntime:xpcimports.obj
 0002:00006f24       ??_C@_0BA@DAJNENLO@bind?5not?5found?6?$AA@ 10078f24     xpcruntime:xpcimports.obj
 0002:00006f38       ??_C@_0L@CKHNIFCM@setsockopt?$AA@ 10078f38     xpcruntime:xpcimports.obj
 0002:00006f48       ??_C@_0BG@MFIIOMFE@setsockopt?5not?5found?6?$AA@ 10078f48     xpcruntime:xpcimports.obj
 0002:00006f64       ??_C@_0M@ODDJDCDK@closesocket?$AA@ 10078f64     xpcruntime:xpcimports.obj
 0002:00006f74       ??_C@_0BH@JHGHMIL@closesocket?5not?5found?6?$AA@ 10078f74     xpcruntime:xpcimports.obj
 0002:00006f90       ??_C@_07KAIBNCHO@connect?$AA@ 10078f90     xpcruntime:xpcimports.obj
 0002:00006f9c       ??_C@_0BD@MKLLMBM@connect?5not?5found?6?$AA@ 10078f9c     xpcruntime:xpcimports.obj
 0002:00006fb4       ??_C@_0M@PBPOCKDG@ioctlsocket?$AA@ 10078fb4     xpcruntime:xpcimports.obj
 0002:00006fc4       ??_C@_0BH@NFCNHHIH@ioctlsocket?5not?5found?6?$AA@ 10078fc4     xpcruntime:xpcimports.obj
 0002:00006fe0       ??_C@_06OODDLKLE@listen?$AA@ 10078fe0     xpcruntime:xpcimports.obj
 0002:00006fe8       ??_C@_0BC@NHBILEKI@listen?5not?5found?6?$AA@ 10078fe8     xpcruntime:xpcimports.obj
 0002:00007000       ??_C@_08HMBBGFHE@recvfrom?$AA@ 10079000     xpcruntime:xpcimports.obj
 0002:0000700c       ??_C@_0BE@BJAJFFLF@recvfrom?5not?5found?6?$AA@ 1007900c     xpcruntime:xpcimports.obj
 0002:00007024       ??_C@_06MEPBGKEC@sendto?$AA@ 10079024     xpcruntime:xpcimports.obj
 0002:0000702c       ??_C@_0BC@BHPIMDJO@sendto?5not?5found?6?$AA@ 1007902c     xpcruntime:xpcimports.obj
 0002:00007044       ??_C@_09JKBDEEOB@inet_addr?$AA@ 10079044     xpcruntime:xpcimports.obj
 0002:00007050       ??_C@_0BF@HKJPGECN@inet_addr?5not?5found?6?$AA@ 10079050     xpcruntime:xpcimports.obj
 0002:0000706c       ??_C@_06HBELJPBO@socket?$AA@ 1007906c     xpcruntime:xpcimports.obj
 0002:00007074       ??_C@_0BC@NAGFFJGA@socket?5not?5found?6?$AA@ 10079074     xpcruntime:xpcimports.obj
 0002:0000708c       ??_C@_09ICJIFGNC@GetSocket?$AA@ 1007908c     xpcruntime:xpcimports.obj
 0002:00007098       ??_C@_0BF@KDBCKMOJ@GetSocket?5not?5found?6?$AA@ 10079098     xpcruntime:xpcimports.obj
 0002:000070b4       ??_C@_0P@KJEGJMJI@GetSocketState?$AA@ 100790b4     xpcruntime:xpcimports.obj
 0002:000070c8       ??_C@_0BK@IALBJHEB@GetSocketState?5not?5found?6?$AA@ 100790c8     xpcruntime:xpcimports.obj
 0002:000070e8       ??_C@_0L@MEAJHNHB@SocketSend?$AA@ 100790e8     xpcruntime:xpcimports.obj
 0002:000070f8       ??_C@_0BG@EOCMBFJA@SocketSend?5not?5found?6?$AA@ 100790f8     xpcruntime:xpcimports.obj
 0002:00007114       ??_C@_0O@PFPCLEMF@SocketReceive?$AA@ 10079114     xpcruntime:xpcimports.obj
 0002:00007124       ??_C@_0BJ@HIBADDFO@SocketReceive?5not?5found?6?$AA@ 10079124     xpcruntime:xpcimports.obj
 0002:00007144       ??_C@_0BD@OOGFNAIK@CreateServerSocket?$AA@ 10079144     xpcruntime:xpcimports.obj
 0002:0000715c       ??_C@_0BO@GKIJHIPH@CreateServerSocket?5not?5found?6?$AA@ 1007915c     xpcruntime:xpcimports.obj
 0002:00007180       ??_C@_0BB@KGHJGFFO@OpenServerListen?$AA@ 10079180     xpcruntime:xpcimports.obj
 0002:00007194       ??_C@_0BM@NFMMLIO@OpenServerListen?5not?5found?6?$AA@ 10079194     xpcruntime:xpcimports.obj
 0002:000071b8       ??_C@_0BE@BAJLDJAH@ConnectServerSocket?$AA@ 100791b8     xpcruntime:xpcimports.obj
 0002:000071d0       ??_C@_0BP@KJNODIKE@ConnectServerSocket?5not?5found?6?$AA@ 100791d0     xpcruntime:xpcimports.obj
 0002:000071f8       ??_C@_0BC@PLKKJDIM@CloseServerSocket?$AA@ 100791f8     xpcruntime:xpcimports.obj
 0002:00007210       ??_C@_0BN@KEJEPNMB@CloseServerSocket?5not?5found?6?$AA@ 10079210     xpcruntime:xpcimports.obj
 0002:00007234       ??_C@_0BC@IHMNIGFJ@ResetServerSocket?$AA@ 10079234     xpcruntime:xpcimports.obj
 0002:0000724c       ??_C@_0BN@NIOGJLCG@ResetServerSocket?5not?5found?6?$AA@ 1007924c     xpcruntime:xpcimports.obj
 0002:00007270       ??_C@_0BD@MCLPKCPP@CreateClientSocket?$AA@ 10079270     xpcruntime:xpcimports.obj
 0002:00007288       ??_C@_0BO@DILAGPFN@CreateClientSocket?5not?5found?6?$AA@ 10079288     xpcruntime:xpcimports.obj
 0002:000072ac       ??_C@_0BB@DAPKNNLG@BindClientSocket?$AA@ 100792ac     xpcruntime:xpcimports.obj
 0002:000072c0       ??_C@_0BM@LLLMMDFN@BindClientSocket?5not?5found?6?$AA@ 100792c0     xpcruntime:xpcimports.obj
 0002:000072e4       ??_C@_0BE@DMEBELHC@ConnectClientSocket?$AA@ 100792e4     xpcruntime:xpcimports.obj
 0002:000072fc       ??_C@_0BP@PLOHCPAO@ConnectClientSocket?5not?5found?6?$AA@ 100792fc     xpcruntime:xpcimports.obj
 0002:00007324       ??_C@_0BC@NHHAOBPJ@CloseClientSocket?$AA@ 10079324     xpcruntime:xpcimports.obj
 0002:0000733c       ??_C@_0BN@PGKNOKGL@CloseClientSocket?5not?5found?6?$AA@ 1007933c     xpcruntime:xpcimports.obj
 0002:00007360       ??_C@_0BC@KLBHPECM@ResetClientSocket?$AA@ 10079360     xpcruntime:xpcimports.obj
 0002:00007378       ??_C@_0BN@IKNPIMIM@ResetClientSocket?5not?5found?6?$AA@ 10079378     xpcruntime:xpcimports.obj
 0002:0000739c       ??_C@_0M@IJOPFCCE@UDPOpenSend?$AA@ 1007939c     xpcruntime:xpcimports.obj
 0002:000073ac       ??_C@_0BH@CCHBDPG@UDPOpenSend?5not?5found?6?$AA@ 100793ac     xpcruntime:xpcimports.obj
 0002:000073c8       ??_C@_0P@MEPACHPD@UDPOpenReceive?$AA@ 100793c8     xpcruntime:xpcimports.obj
 0002:000073dc       ??_C@_0BK@PFMCPKIO@UDPOpenReceive?5not?5found?6?$AA@ 100793dc     xpcruntime:xpcimports.obj
 0002:000073fc       ??_C@_0N@NMMOLOEM@UDPCloseSend?$AA@ 100793fc     xpcruntime:xpcimports.obj
 0002:0000740c       ??_C@_0BI@ENKCOCDG@UDPCloseSend?5not?5found?6?$AA@ 1007940c     xpcruntime:xpcimports.obj
 0002:00007428       ??_C@_0BA@DMJGBBIA@UDPCloseReceive?$AA@ 10079428     xpcruntime:xpcimports.obj
 0002:0000743c       ??_C@_0BL@PEBIMLNC@UDPCloseReceive?5not?5found?6?$AA@ 1007943c     xpcruntime:xpcimports.obj
 0002:00007460       __real@0000000000000000    10079460     xpcruntime:xpcPCFunctions.obj
 0002:00007470       __real@3f538bcdfefbf402    10079470     xpcruntime:xpcPCFunctions.obj
 0002:00007480       __real@40112e0be826d695    10079480     xpcruntime:xpcPCFunctions.obj
 0002:00007538       __pDefaultRawDllMain       10079538     LIBCMT:dll_dllmain.obj
 0002:00007538       __pRawDllMain              10079538     LIBCMT:dll_dllmain.obj
 0002:0000772c       ??_C@_08EHJDFFNH@__based?$CI?$AA@ 1007972c     libvcruntime:undname.obj
 0002:00007738       ??_C@_07KOLFKCDI@__cdecl?$AA@ 10079738     libvcruntime:undname.obj
 0002:00007744       ??_C@_08GHMPAG@__pascal?$AA@ 10079744     libvcruntime:undname.obj
 0002:00007750       ??_C@_09IFJBGAPI@__stdcall?$AA@ 10079750     libvcruntime:undname.obj
 0002:0000775c       ??_C@_0L@NPHFGOKO@__thiscall?$AA@ 1007975c     libvcruntime:undname.obj
 0002:0000776c       ??_C@_0L@JMKHOMEK@__fastcall?$AA@ 1007976c     libvcruntime:undname.obj
 0002:0000777c       ??_C@_0N@BCKKPABJ@__vectorcall?$AA@ 1007977c     libvcruntime:undname.obj
 0002:0000778c       ??_C@_09HIJEGCPM@__clrcall?$AA@ 1007978c     libvcruntime:undname.obj
 0002:00007798       ??_C@_06GHPCKEAG@__eabi?$AA@ 10079798     libvcruntime:undname.obj
 0002:000077a0       ??_C@_07EECFKIPL@__swift?$AA@ 100797a0     libvcruntime:undname.obj
 0002:000077ac       ??_C@_07JOMMBBKO@__ptr64?$AA@ 100797ac     libvcruntime:undname.obj
 0002:000077b8       ??_C@_0L@PILCLIHE@__restrict?$AA@ 100797b8     libvcruntime:undname.obj
 0002:000077c8       ??_C@_0M@GFIIJFMG@__unaligned?$AA@ 100797c8     libvcruntime:undname.obj
 0002:000077d8       ??_C@_09DHDLOLLB@restrict?$CI?$AA@ 100797d8     libvcruntime:undname.obj
 0002:000077e4       ??_C@_04NIHEBCM@?5new?$AA@ 100797e4     libvcruntime:undname.obj
 0002:000077ec       ??_C@_07FPCDHGMM@?5delete?$AA@ 100797ec     libvcruntime:undname.obj
 0002:000077f8       ??_C@_01NEMOKFLO@?$DN?$AA@ 100797f8     libvcruntime:undname.obj
 0002:000077fc       ??_C@_02GPIOPFAK@?$DO?$DO?$AA@ 100797fc     libvcruntime:undname.obj
 0002:00007800       ??_C@_02FODMEDOG@?$DM?$DM?$AA@ 10079800     libvcruntime:undname.obj
 0002:00007804       ??_C@_01DCLJPIOD@?$CB?$AA@ 10079804     libvcruntime:undname.obj
 0002:00007808       ??_C@_02EGOFBIJA@?$DN?$DN?$AA@ 10079808     libvcruntime:undname.obj
 0002:0000780c       ??_C@_02FDNJECIE@?$CB?$DN?$AA@ 1007980c     libvcruntime:undname.obj
 0002:00007810       ??_C@_02GPECMEKF@?$FL?$FN?$AA@ 10079810     libvcruntime:undname.obj
 0002:00007814       ??_C@_08LHJFAFGD@operator?$AA@ 10079814     libvcruntime:undname.obj
 0002:00007820       ??_C@_02HBOOOICD@?9?$DO?$AA@ 10079820     libvcruntime:undname.obj
 0002:00007824       ??_C@_01NBENCBCI@?$CK?$AA@ 10079824     libvcruntime:undname.obj
 0002:00007828       ??_C@_02ECNGHCIF@?$CL?$CL?$AA@ 10079828     libvcruntime:undname.obj
 0002:0000782c       ??_C@_02BAABKJLB@?9?9?$AA@ 1007982c     libvcruntime:undname.obj
 0002:00007830       ??_C@_01JOAMLHOP@?9?$AA@   10079830     libvcruntime:undname.obj
 0002:00007834       ??_C@_01MIFGBAGJ@?$CL?$AA@ 10079834     libvcruntime:undname.obj
 0002:00007838       ??_C@_01HNPIGOCE@?$CG?$AA@ 10079838     libvcruntime:undname.obj
 0002:0000783c       ??_C@_03MNHNFDLC@?9?$DO?$CK?$AA@ 1007983c     libvcruntime:undname.obj
 0002:00007840       ??_C@_01KMDKNFGN@?1?$AA@   10079840     libvcruntime:undname.obj
 0002:00007844       ??_C@_01FGNFDNOH@?$CF?$AA@ 10079844     libvcruntime:undname.obj
 0002:00007848       ??_C@_01MNNFJEPP@?$DM?$AA@ 10079848     libvcruntime:undname.obj
 0002:0000784c       ??_C@_02EHCHHCKH@?$DM?$DN?$AA@ 1007984c     libvcruntime:undname.obj
 0002:00007850       ??_C@_01PPODPGHN@?$DO?$AA@ 10079850     libvcruntime:undname.obj
 0002:00007854       ??_C@_02EEKDKGMJ@?$DO?$DN?$AA@ 10079854     libvcruntime:undname.obj
 0002:00007858       ??_C@_01IHBHIGKO@?0?$AA@   10079858     libvcruntime:undname.obj
 0002:0000785c       ??_C@_02HCKGKOFO@?$CI?$CJ?$AA@ 1007985c     libvcruntime:undname.obj
 0002:00007860       ??_C@_01PJKLJHI@?$HO?$AA@  10079860     libvcruntime:undname.obj
 0002:00007864       ??_C@_01JKBOJNNK@?$FO?$AA@ 10079864     libvcruntime:undname.obj
 0002:00007868       ??_C@_01DNKMNLPK@?$HM?$AA@ 10079868     libvcruntime:undname.obj
 0002:0000786c       ??_C@_02PPKAJPJL@?$CG?$CG?$AA@ 1007986c     libvcruntime:undname.obj
 0002:00007870       ??_C@_02NONPIBCD@?$HM?$HM?$AA@ 10079870     libvcruntime:undname.obj
 0002:00007874       ??_C@_02FPIMKNGF@?$CK?$DN?$AA@ 10079874     libvcruntime:undname.obj
 0002:00007878       ??_C@_02FOEOMHFC@?$CL?$DN?$AA@ 10079878     libvcruntime:undname.obj
 0002:0000787c       ??_C@_02FKMDLLOA@?9?$DN?$AA@ 1007987c     libvcruntime:undname.obj
 0002:00007880       ??_C@_02FJEHGPIO@?1?$DN?$AA@ 10079880     libvcruntime:undname.obj
 0002:00007884       ??_C@_02FENAOKFI@?$CF?$DN?$AA@ 10079884     libvcruntime:undname.obj
 0002:00007888       ??_C@_03IKFCCPFF@?$DO?$DO?$DN?$AA@ 10079888     libvcruntime:undname.obj
 0002:0000788c       ??_C@_03CDNPDDLA@?$DM?$DM?$DN?$AA@ 1007988c     libvcruntime:undname.obj
 0002:00007890       ??_C@_02FGJGFEAB@?$CG?$DN?$AA@ 10079890     libvcruntime:undname.obj
 0002:00007894       ??_C@_02DHLNPPGH@?$HM?$DN?$AA@ 10079894     libvcruntime:undname.obj
 0002:00007898       ??_C@_02MHEGNOJ@?$FO?$DN?$AA@ 10079898     libvcruntime:undname.obj
 0002:0000789c       ??_C@_09IFPLHPGF@?$GAvftable?8?$AA@ 1007989c     libvcruntime:undname.obj
 0002:000078a8       ??_C@_09BLBHBJP@?$GAvbtable?8?$AA@ 100798a8     libvcruntime:undname.obj
 0002:000078b4       ??_C@_07FEEIOKP@?$GAvcall?8?$AA@ 100798b4     libvcruntime:undname.obj
 0002:000078c0       ??_C@_08LLFFHHDJ@?$GAtypeof?8?$AA@ 100798c0     libvcruntime:undname.obj
 0002:000078cc       ??_C@_0BF@KDPPACIK@?$GAlocal?5static?5guard?8?$AA@ 100798cc     libvcruntime:undname.obj
 0002:000078e8       ??_C@_08OBABFOLI@?$GAstring?8?$AA@ 100798e8     libvcruntime:undname.obj
 0002:000078f4       ??_C@_0BD@JDLKDPAB@?$GAvbase?5destructor?8?$AA@ 100798f4     libvcruntime:undname.obj
 0002:0000790c       ??_C@_0BN@DEGPLNFK@?$GAvector?5deleting?5destructor?8?$AA@ 1007990c     libvcruntime:undname.obj
 0002:00007930       ??_C@_0BO@OBMKPJIG@?$GAdefault?5constructor?5closure?8?$AA@ 10079930     libvcruntime:undname.obj
 0002:00007954       ??_C@_0BN@IMDCHIKM@?$GAscalar?5deleting?5destructor?8?$AA@ 10079954     libvcruntime:undname.obj
 0002:00007978       ??_C@_0BO@PFGOCPJJ@?$GAvector?5constructor?5iterator?8?$AA@ 10079978     libvcruntime:undname.obj
 0002:0000799c       ??_C@_0BN@LFPFMEDL@?$GAvector?5destructor?5iterator?8?$AA@ 1007999c     libvcruntime:undname.obj
 0002:000079c0       ??_C@_0CE@IKBNEHA@?$GAvector?5vbase?5constructor?5iterat@ 100799c0     libvcruntime:undname.obj
 0002:000079ec       ??_C@_0BL@NILFHHPC@?$GAvirtual?5displacement?5map?8?$AA@ 100799ec     libvcruntime:undname.obj
 0002:00007a0c       ??_C@_0CB@JONCMFFK@?$GAeh?5vector?5constructor?5iterator?8@ 10079a0c     libvcruntime:undname.obj
 0002:00007a34       ??_C@_0CA@GCEOPDGL@?$GAeh?5vector?5destructor?5iterator?8?$AA@ 10079a34     libvcruntime:undname.obj
 0002:00007a5c       ??_C@_0CH@OOJPLCPH@?$GAeh?5vector?5vbase?5constructor?5ite@ 10079a5c     libvcruntime:undname.obj
 0002:00007a8c       ??_C@_0BL@LLKPOHJI@?$GAcopy?5constructor?5closure?8?$AA@ 10079a8c     libvcruntime:undname.obj
 0002:00007aac       ??_C@_0BA@KBCDOMBN@?$GAudt?5returning?8?$AA@ 10079aac     libvcruntime:undname.obj
 0002:00007ac0       ??_C@_03KLGMFNMG@?$GAEH?$AA@ 10079ac0     libvcruntime:undname.obj
 0002:00007ac4       ??_C@_05KHLCHHI@?$GARTTI?$AA@ 10079ac4     libvcruntime:undname.obj
 0002:00007acc       ??_C@_0BA@KKLDJDLB@?$GAlocal?5vftable?8?$AA@ 10079acc     libvcruntime:undname.obj
 0002:00007ae0       ??_C@_0CE@IIHCMGGL@?$GAlocal?5vftable?5constructor?5closu@ 10079ae0     libvcruntime:undname.obj
 0002:00007b0c       ??_C@_06FHBGPFGH@?5new?$FL?$FN?$AA@ 10079b0c     libvcruntime:undname.obj
 0002:00007b14       ??_C@_09LBNFPBCA@?5delete?$FL?$FN?$AA@ 10079b14     libvcruntime:undname.obj
 0002:00007b20       ??_C@_0P@HJKNJFNN@?$GAomni?5callsig?8?$AA@ 10079b20     libvcruntime:undname.obj
 0002:00007b34       ??_C@_0BL@CNOONJFP@?$GAplacement?5delete?5closure?8?$AA@ 10079b34     libvcruntime:undname.obj
 0002:00007b54       ??_C@_0BN@CKNJLHMB@?$GAplacement?5delete?$FL?$FN?5closure?8?$AA@ 10079b54     libvcruntime:undname.obj
 0002:00007b78       ??_C@_0CG@CFDHKGGD@?$GAmanaged?5vector?5constructor?5iter@ 10079b78     libvcruntime:undname.obj
 0002:00007ba8       ??_C@_0CF@IMGKMJNO@?$GAmanaged?5vector?5destructor?5itera@ 10079ba8     libvcruntime:undname.obj
 0002:00007bd4       ??_C@_0CG@HLDDJMAG@?$GAeh?5vector?5copy?5constructor?5iter@ 10079bd4     libvcruntime:undname.obj
 0002:00007c04       ??_C@_0CM@FCBBDIGB@?$GAeh?5vector?5vbase?5copy?5constructo@ 10079c04     libvcruntime:undname.obj
 0002:00007c38       ??_C@_0BL@CLIPGLGB@?$GAdynamic?5initializer?5for?5?8?$AA@ 10079c38     libvcruntime:undname.obj
 0002:00007c58       ??_C@_0CB@PDBIFEP@?$GAdynamic?5atexit?5destructor?5for?5?8@ 10079c58     libvcruntime:undname.obj
 0002:00007c80       ??_C@_0CD@CGAJBKEJ@?$GAvector?5copy?5constructor?5iterato@ 10079c80     libvcruntime:undname.obj
 0002:00007cac       ??_C@_0CJ@GJELGAMM@?$GAvector?5vbase?5copy?5constructor?5i@ 10079cac     libvcruntime:undname.obj
 0002:00007ce0       ??_C@_0CL@FGIJHLCE@?$GAmanaged?5vector?5copy?5constructor@ 10079ce0     libvcruntime:undname.obj
 0002:00007d14       ??_C@_0BM@PMGGMLDN@?$GAlocal?5static?5thread?5guard?8?$AA@ 10079d14     libvcruntime:undname.obj
 0002:00007d38       ??_C@_0N@BDNMDMOL@operator?5?$CC?$CC?5?$AA@ 10079d38     libvcruntime:undname.obj
 0002:00007d48       ??_C@_0BC@GGEBGALA@operator?5co_await?$AA@ 10079d48     libvcruntime:undname.obj
 0002:00007d60       ??_C@_0BC@DAFEJGAK@?5Type?5Descriptor?8?$AA@ 10079d60     libvcruntime:undname.obj
 0002:00007d78       ??_C@_0BM@LDKODKLH@?5Base?5Class?5Descriptor?5at?5?$CI?$AA@ 10079d78     libvcruntime:undname.obj
 0002:00007d9c       ??_C@_0BD@LGICGFMM@?5Base?5Class?5Array?8?$AA@ 10079d9c     libvcruntime:undname.obj
 0002:00007db4       ??_C@_0BN@MECKDCOJ@?5Class?5Hierarchy?5Descriptor?8?$AA@ 10079db4     libvcruntime:undname.obj
 0002:00007dd8       ??_C@_0BK@CFCOFLF@?5Complete?5Object?5Locator?8?$AA@ 10079dd8     libvcruntime:undname.obj
 0002:00007df8       ??_C@_04HEJADOOB@CV?3?5?$AA@ 10079df8     libvcruntime:undname.obj
 0002:00007e00       ??_C@_02MOLJINC@?3?3?$AA@  10079e00     libvcruntime:undname.obj
 0002:00007e04       ??_C@_0BE@JAEOCHPE@template?9parameter?9?$AA@ 10079e04     libvcruntime:undname.obj
 0002:00007e1c       ??_C@_0O@KHGCOMHP@generic?9type?9?$AA@ 10079e1c     libvcruntime:undname.obj
 0002:00007e2c       ??_C@_01NLNLIGKH@?$GA?$AA@ 10079e2c     libvcruntime:undname.obj
 0002:00007e30       ??_C@_01GEODFPGF@?8?$AA@   10079e30     libvcruntime:undname.obj
 0002:00007e34       ??_C@_0BG@JNJLAMPM@?$GAanonymous?5namespace?8?$AA@ 10079e34     libvcruntime:undname.obj
 0002:00007e50       ??_C@_02OHHJMEON@?8?8?$AA@ 10079e50     libvcruntime:undname.obj
 0002:00007e54       ??_C@_0BN@IBLMMFAP@?$GAnon?9type?9template?9parameter?$AA@ 10079e54     libvcruntime:undname.obj
 0002:00007e78       ??_C@_04GKJNKENE@void?$AA@ 10079e78     libvcruntime:undname.obj
 0002:00007e80       ??_C@_0BE@EODMJLIF@?$GAtemplate?9parameter?$AA@ 10079e80     libvcruntime:undname.obj
 0002:00007e98       ??_C@_03KHICJKCI@?4?4?4?$AA@ 10079e98     libvcruntime:undname.obj
 0002:00007e9c       ??_C@_04HIBGFPH@NULL?$AA@  10079e9c     libvcruntime:undname.obj
 0002:00007ea4       ??_C@_02DPKJAMEF@?$CFd?$AA@ 10079ea4     libvcruntime:undname.obj
 0002:00007ea8       ??_C@_0BK@IHCCFNEL@?$GAtemplate?9type?9parameter?9?$AA@ 10079ea8     libvcruntime:undname.obj
 0002:00007ec8       ??_C@_0BK@OFCNNNKO@?$GAgeneric?9class?9parameter?9?$AA@ 10079ec8     libvcruntime:undname.obj
 0002:00007ee8       ??_C@_0BL@NGJBLFIL@?$GAgeneric?9method?9parameter?9?$AA@ 10079ee8     libvcruntime:undname.obj
 0002:00007f08       ??_C@_03OPGICMGF@?$HN?8?5?$AA@ 10079f08     libvcruntime:undname.obj
 0002:00007f0c       ??_C@_02IGFCGPIL@?$HN?8?$AA@ 10079f0c     libvcruntime:undname.obj
 0002:00007f10       ??_C@_01CLKCMJKC@?5?$AA@   10079f10     libvcruntime:undname.obj
 0002:00007f14       ??_C@_0N@CBHHHENL@?$GAvtordispex?$HL?$AA@ 10079f14     libvcruntime:undname.obj
 0002:00007f24       ??_C@_0L@GHPFDFH@?$GAvtordisp?$HL?$AA@ 10079f24     libvcruntime:undname.obj
 0002:00007f34       ??_C@_0L@HNGCOGAE@?$GAadjustor?$HL?$AA@ 10079f34     libvcruntime:undname.obj
 0002:00007f44       ??_C@_0CB@KJDOOODE@?$GAlocal?5static?5destructor?5helper?8@ 10079f44     libvcruntime:undname.obj
 0002:00007f6c       ??_C@_0DB@ILEFOCIJ@?$GAtemplate?5static?5data?5member?5con@ 10079f6c     libvcruntime:undname.obj
 0002:00007fa8       ??_C@_0DA@HGFJFBBE@?$GAtemplate?5static?5data?5member?5des@ 10079fa8     libvcruntime:undname.obj
 0002:00007fe4       ??_C@_07PGOEDBHP@static?5?$AA@ 10079fe4     libvcruntime:undname.obj
 0002:00007ff0       ??_C@_08NIEOINHE@virtual?5?$AA@ 10079ff0     libvcruntime:undname.obj
 0002:00007ffc       ??_C@_09LAPHOOG@private?3?5?$AA@ 10079ffc     libvcruntime:undname.obj
 0002:00008008       ??_C@_0M@GAIFPFIP@protected?3?5?$AA@ 1007a008     libvcruntime:undname.obj
 0002:00008018       ??_C@_08GPDDCMKI@public?3?5?$AA@ 1007a018     libvcruntime:undname.obj
 0002:00008024       ??_C@_08KJLFOPNE@?$FLthunk?$FN?3?$AA@ 1007a024     libvcruntime:undname.obj
 0002:00008030       ??_C@_0M@DHNBOJMP@extern?5?$CCC?$CC?5?$AA@ 1007a030     libvcruntime:undname.obj
 0002:00008040       ??_C@_02KCKGHPCA@?$CJ?5?$AA@ 1007a040     libvcruntime:undname.obj
 0002:00008044       ??_C@_05CIHEBHNO@char?5?$AA@ 1007a044     libvcruntime:undname.obj
 0002:0000804c       ??_C@_06EHJMALKF@short?5?$AA@ 1007a04c     libvcruntime:undname.obj
 0002:00008054       ??_C@_04LAHKHJMA@int?5?$AA@ 1007a054     libvcruntime:undname.obj
 0002:0000805c       ??_C@_05CJIMAING@long?5?$AA@ 1007a05c     libvcruntime:undname.obj
 0002:00008064       ??_C@_09EBBEKKIH@unsigned?5?$AA@ 1007a064     libvcruntime:undname.obj
 0002:00008070       ??_C@_05BEFAKPML@void?5?$AA@ 1007a070     libvcruntime:undname.obj
 0002:00008078       ??_C@_08PABEKFH@volatile?$AA@ 1007a078     libvcruntime:undname.obj
 0002:00008084       ??_C@_0BA@LKIJLKPP@std?3?3nullptr_t?5?$AA@ 1007a084     libvcruntime:undname.obj
 0002:00008098       ??_C@_0P@GCOCNKDM@std?3?3nullptr_t?$AA@ 1007a098     libvcruntime:undname.obj
 0002:000080ac       ??_C@_0L@EGPHHEKN@?$DMellipsis?$DO?$AA@ 1007a0ac     libvcruntime:undname.obj
 0002:000080bc       ??_C@_04EENFHACM@?0?4?4?4?$AA@ 1007a0bc     libvcruntime:undname.obj
 0002:000080c4       ??_C@_0M@ELJOJFFH@?0?$DMellipsis?$DO?$AA@ 1007a0c4     libvcruntime:undname.obj
 0002:000080d4       ??_C@_09DNHFEOJI@?5noexcept?$AA@ 1007a0d4     libvcruntime:undname.obj
 0002:000080e0       ??_C@_03PBJBJNON@cpu?$AA@  1007a0e0     libvcruntime:undname.obj
 0002:000080e4       ??_C@_03DCBBJBAA@amp?$AA@  1007a0e4     libvcruntime:undname.obj
 0002:000080e8       ??_C@_02KEGNLNML@?0?5?$AA@ 1007a0e8     libvcruntime:undname.obj
 0002:000080ec       ??_C@_04ENMBGAPA@char?$AA@ 1007a0ec     libvcruntime:undname.obj
 0002:000080f4       ??_C@_05BFKKPKCG@short?$AA@ 1007a0f4     libvcruntime:undname.obj
 0002:000080fc       ??_C@_03JBIPMCLC@int?$AA@  1007a0fc     libvcruntime:undname.obj
 0002:00008100       ??_C@_04GOKPGOLB@long?$AA@ 1007a100     libvcruntime:undname.obj
 0002:00008108       ??_C@_04DDKJGDCM@bool?$AA@ 1007a108     libvcruntime:undname.obj
 0002:00008110       ??_C@_06EBGKOKIG@__int8?$AA@ 1007a110     libvcruntime:undname.obj
 0002:00008118       ??_C@_07ICFHOGAF@__int16?$AA@ 1007a118     libvcruntime:undname.obj
 0002:00008124       ??_C@_07OFLPPHGP@__int32?$AA@ 1007a124     libvcruntime:undname.obj
 0002:00008130       ??_C@_07LFCOJCAC@__int64?$AA@ 1007a130     libvcruntime:undname.obj
 0002:0000813c       ??_C@_08GAHOLHEO@__int128?$AA@ 1007a13c     libvcruntime:undname.obj
 0002:00008148       ??_C@_09EEKGDCPH@?$DMunknown?$DO?$AA@ 1007a148     libvcruntime:undname.obj
 0002:00008154       ??_C@_08HBIPOFJB@char16_t?$AA@ 1007a154     libvcruntime:undname.obj
 0002:00008160       ??_C@_08IECNCBKG@char32_t?$AA@ 1007a160     libvcruntime:undname.obj
 0002:0000816c       ??_C@_07CLGGIAMF@wchar_t?$AA@ 1007a16c     libvcruntime:undname.obj
 0002:00008178       ??_C@_06GCICPBLB@__w64?5?$AA@ 1007a178     libvcruntime:undname.obj
 0002:00008180       ??_C@_07NFANNNEC@UNKNOWN?$AA@ 1007a180     libvcruntime:undname.obj
 0002:0000818c       ??_C@_07EDHNAJHC@signed?5?$AA@ 1007a18c     libvcruntime:undname.obj
 0002:00008198       ??_C@_05BNCCCJPP@const?$AA@ 1007a198     libvcruntime:undname.obj
 0002:000081a0       ??_C@_09EFNPDFFP@?5volatile?$AA@ 1007a1a0     libvcruntime:undname.obj
 0002:000081ac       ??_C@_0P@GCIFDJCJ@?$GAunknown?5ecsu?8?$AA@ 1007a1ac     libvcruntime:undname.obj
 0002:000081c0       ??_C@_06MOJHIBMG@union?5?$AA@ 1007a1c0     libvcruntime:undname.obj
 0002:000081c8       ??_C@_07DIBCDNGL@struct?5?$AA@ 1007a1c8     libvcruntime:undname.obj
 0002:000081d4       ??_C@_06LJBABKPM@class?5?$AA@ 1007a1d4     libvcruntime:undname.obj
 0002:000081dc       ??_C@_08KOFANOFK@coclass?5?$AA@ 1007a1dc     libvcruntime:undname.obj
 0002:000081e8       ??_C@_0N@DLIEFKNA@cointerface?5?$AA@ 1007a1e8     libvcruntime:undname.obj
 0002:000081f8       ??_C@_05LJGMCFOG@enum?5?$AA@ 1007a1f8     libvcruntime:undname.obj
 0002:00008200       ??_C@_09GAIEOBLP@volatile?5?$AA@ 1007a200     libvcruntime:undname.obj
 0002:0000820c       ??_C@_06LIJLOJAG@const?5?$AA@ 1007a20c     libvcruntime:undname.obj
 0002:00008214       ??_C@_02KJPKDIBN@?$CG?5?$AA@ 1007a214     libvcruntime:undname.obj
 0002:00008218       ??_C@_03PCKGMOPB@?$CG?$CG?5?$AA@ 1007a218     libvcruntime:undname.obj
 0002:0000821c       ??_C@_0M@EALIELKG@cli?3?3array?$DM?$AA@ 1007a21c     libvcruntime:undname.obj
 0002:0000822c       ??_C@_0O@GKABPPIF@cli?3?3pin_ptr?$DM?$AA@ 1007a22c     libvcruntime:undname.obj
 0002:0000823c       ??_C@_02GOGNNPBN@?$CJ?$FL?$AA@ 1007a23c     libvcruntime:undname.obj
 0002:00008240       ??_C@_06EEGAIFAK@?$HLflat?$HN?$AA@ 1007a240     libvcruntime:undname.obj
 0002:00008248       ??_C@_05JIBOFOHK@?$HLfor?5?$AA@ 1007a248     libvcruntime:undname.obj
 0002:00008250       ??_C@_02MDINNEEG@s?5?$AA@  1007a250     libvcruntime:undname.obj
 0002:00008258       ??_7DNameNode@@6B@         1007a258     libvcruntime:undname.obj
 0002:0000826c       ??_7charNode@@6B@          1007a26c     libvcruntime:undname.obj
 0002:00008280       ??_7pcharNode@@6B@         1007a280     libvcruntime:undname.obj
 0002:00008294       ??_7pDNameNode@@6B@        1007a294     libvcruntime:undname.obj
 0002:000082a8       ??_7DNameStatusNode@@6B@   1007a2a8     libvcruntime:undname.obj
 0002:000082bc       ??_7pairNode@@6B@          1007a2bc     libvcruntime:undname.obj
 0002:000082cc       ??_C@_04OKOHEJBO@?5?$DP?$DP?5?$AA@ 1007a2cc     libvcruntime:undname.obj
 0002:000082d4       ?nodes@?1??make@DNameStatusNode@@SAPBV2@W4DNameStatus@@@Z@4QBV2@B 1007a2d4     libvcruntime:undname.obj
 0002:00008320       ??_C@_1DM@KHCHBNEB@?$AAa?$AAp?$AAi?$AA?9?$AAm?$AAs?$AA?9?$AAw?$AAi?$AAn?$AA?9?$AAc?$AAo?$AAr?$AAe?$AA?9?$AAf?$AAi?$AAb?$AAe?$AAr?$AAs?$AA?9?$AAl?$AA1?$AA?9?$AA1?$AA?9?$AA1?$AA?$AA@ 1007a320     libvcruntime:winapi_downlevel.obj
 0002:00008368       ??_C@_1DK@LPPGFMPP@?$AAa?$AAp?$AAi?$AA?9?$AAm?$AAs?$AA?9?$AAw?$AAi?$AAn?$AA?9?$AAc?$AAo?$AAr?$AAe?$AA?9?$AAs?$AAy?$AAn?$AAc?$AAh?$AA?9?$AAl?$AA1?$AA?9?$AA2?$AA?9?$AA0?$AA?$AA@ 1007a368     libvcruntime:winapi_downlevel.obj
 0002:000083b0       ??_C@_1BC@GDMECMAK@?$AAk?$AAe?$AAr?$AAn?$AAe?$AAl?$AA3?$AA2?$AA?$AA@ 1007a3b0     libvcruntime:winapi_downlevel.obj
 0002:000083c8       ??_C@_1BA@PFFKHIOG@?$AAa?$AAp?$AAi?$AA?9?$AAm?$AAs?$AA?9?$AA?$AA@ 1007a3c8     libvcruntime:winapi_downlevel.obj
 0002:000083dc       ??_C@_1BA@IAIFMGEF@?$AAe?$AAx?$AAt?$AA?9?$AAm?$AAs?$AA?9?$AA?$AA@ 1007a3dc     libvcruntime:winapi_downlevel.obj
 0002:000083fc       ??_C@_08KNHFBNJ@FlsAlloc?$AA@ 1007a3fc     libvcruntime:winapi_downlevel.obj
 0002:00008414       ??_C@_07PEJMOBNF@FlsFree?$AA@ 1007a414     libvcruntime:winapi_downlevel.obj
 0002:0000842c       ??_C@_0M@GDNOONDI@FlsGetValue?$AA@ 1007a42c     libvcruntime:winapi_downlevel.obj
 0002:00008448       ??_C@_0M@JCPCPOEF@FlsSetValue?$AA@ 1007a448     libvcruntime:winapi_downlevel.obj
 0002:00008464       ??_C@_0BM@HCFOFFN@InitializeCriticalSectionEx?$AA@ 1007a464     libvcruntime:winapi_downlevel.obj
 0002:0000848c       ??_7exception@std@@6B@     1007a48c     libvcruntime:frame.obj
 0002:00008498       ??_C@_0BC@EOODALEL@Unknown?5exception?$AA@ 1007a498     libvcruntime:frame.obj
 0002:000084b4       ??_7bad_exception@std@@6B@ 1007a4b4     libvcruntime:frame.obj
 0002:000084c0       ??_C@_0O@DPKOEFFH@bad?5exception?$AA@ 1007a4c0     libvcruntime:frame.obj
 0002:000084d0       __pDestructExceptionObject 1007a4d0     libvcruntime:ehhelpers.obj
 0002:00008500       _standard_lookup_table     1007a500     libucrt:output.obj
 0002:00008570       _format_validation_lookup_table 1007a570     libucrt:output.obj
 0002:000085e0       ??_C@_1O@CEDCILHN@?$AA?$CI?$AAn?$AAu?$AAl?$AAl?$AA?$CJ?$AA?$AA@ 1007a5e0     libucrt:output.obj
 0002:000085f0       ??_C@_06OJHGLDPL@?$CInull?$CJ?$AA@ 1007a5f0     libucrt:output.obj
 0002:000085f8       _RtlNtPathSeperatorString  1007a5f8     libucrt:exit.obj
 0002:00008604       ??_C@_13FPGAJAPJ@?$AA?2?$AA?$AA@ 1007a604     libucrt:exit.obj
 0002:00008608       _RtlDosPathSeperatorsString 1007a608     libucrt:exit.obj
 0002:00008614       ??_C@_15MNCACJLI@?$AA?2?$AA?1?$AA?$AA@ 1007a614     libucrt:exit.obj
 0002:0000861c       _RtlAlternateDosPathSeperatorString 1007a61c     libucrt:exit.obj
 0002:00008628       ??_C@_13CGOKJPIL@?$AA?1?$AA?$AA@ 1007a628     libucrt:exit.obj
 0002:0000862c       ??_C@_1BI@BGOHAHKC@?$AAm?$AAs?$AAc?$AAo?$AAr?$AAe?$AAe?$AA?4?$AAd?$AAl?$AAl?$AA?$AA@ 1007a62c     libucrt:exit.obj
 0002:00008648       ??_C@_0P@MIGLKIOC@CorExitProcess?$AA@ 1007a648     libucrt:exit.obj
 0002:0000865c       ??_C@_0CK@CFPGFGGO@Assertion?5failed?3?5?$CFTs?0?5file?5?$CFTs?0@ 1007a65c     libucrt:assert.obj
 0002:00008690       ??_C@_1FE@LHBLIKM@?$AAA?$AAs?$AAs?$AAe?$AAr?$AAt?$AAi?$AAo?$AAn?$AA?5?$AAf?$AAa?$AAi?$AAl?$AAe?$AAd?$AA?3?$AA?5?$AA?$CF?$AAT?$AAs?$AA?0?$AA?5?$AAf?$AAi?$AAl?$AAe?$AA?5?$AA?$CF?$AAT?$AAs?$AA?0@ 1007a690     libucrt:assert.obj
 0002:000086f4       ??_C@_0CF@GOGNBNAK@Microsoft?5Visual?5C?$CL?$CL?5Runtime?5Lib@ 1007a6f4     libucrt:assert.obj
 0002:00008720       ??_C@_1EK@MBDPDCGA@?$AAM?$AAi?$AAc?$AAr?$AAo?$AAs?$AAo?$AAf?$AAt?$AA?5?$AAV?$AAi?$AAs?$AAu?$AAa?$AAl?$AA?5?$AAC?$AA?$CL?$AA?$CL?$AA?5?$AAR?$AAu?$AAn?$AAt?$AAi?$AAm?$AAe?$AA?5?$AAL?$AAi?$AAb@ 1007a720     libucrt:assert.obj
 0002:00008778       ??_C@_0BC@LAIDCHCH@Assertion?5failed?$CB?$AA@ 1007a778     libucrt:assert.obj
 0002:00008790       ??_C@_1CE@OJBNHDMO@?$AAA?$AAs?$AAs?$AAe?$AAr?$AAt?$AAi?$AAo?$AAn?$AA?5?$AAf?$AAa?$AAi?$AAl?$AAe?$AAd?$AA?$CB?$AA?$AA@ 1007a790     libucrt:assert.obj
 0002:000087bc       ??_C@_09KLGCKDOD@Program?3?5?$AA@ 1007a7bc     libucrt:assert.obj
 0002:000087c8       ??_C@_1BE@PHKBBGE@?$AAP?$AAr?$AAo?$AAg?$AAr?$AAa?$AAm?$AA?3?$AA?5?$AA?$AA@ 1007a7c8     libucrt:assert.obj
 0002:000087e0       ??_C@_06IGPBOHMJ@File?3?5?$AA@ 1007a7e0     libucrt:assert.obj
 0002:000087e8       ??_C@_1O@HEMHKNDC@?$AAF?$AAi?$AAl?$AAe?$AA?3?$AA?5?$AA?$AA@ 1007a7e8     libucrt:assert.obj
 0002:000087f8       ??_C@_06FIEBOLOH@Line?3?5?$AA@ 1007a7f8     libucrt:assert.obj
 0002:00008800       ??_C@_1O@KCAFKHJE@?$AAL?$AAi?$AAn?$AAe?$AA?3?$AA?5?$AA?$AA@ 1007a800     libucrt:assert.obj
 0002:00008810       ??_C@_0N@MEECIJGN@Expression?3?5?$AA@ 1007a810     libucrt:assert.obj
 0002:00008820       ??_C@_1BK@PEDCIPMA@?$AAE?$AAx?$AAp?$AAr?$AAe?$AAs?$AAs?$AAi?$AAo?$AAn?$AA?3?$AA?5?$AA?$AA@ 1007a820     libucrt:assert.obj
 0002:00008840       ??_C@_0HA@OJHAGA@For?5information?5on?5how?5your?5prog@ 1007a840     libucrt:assert.obj
 0002:000088c8       ??_C@_1OA@EGMLFBHJ@?$AAF?$AAo?$AAr?$AA?5?$AAi?$AAn?$AAf?$AAo?$AAr?$AAm?$AAa?$AAt?$AAi?$AAo?$AAn?$AA?5?$AAo?$AAn?$AA?5?$AAh?$AAo?$AAw?$AA?5?$AAy?$AAo?$AAu?$AAr?$AA?5?$AAp?$AAr?$AAo?$AAg@ 1007a8c8     libucrt:assert.obj
 0002:000089d4       ??_C@_0DN@EBBNMLME@?$CIPress?5Retry?5to?5debug?5the?5applic@ 1007a9d4     libucrt:assert.obj
 0002:00008a20       ??_C@_1HK@POCJMFGK@?$AA?$CI?$AAP?$AAr?$AAe?$AAs?$AAs?$AA?5?$AAR?$AAe?$AAt?$AAr?$AAy?$AA?5?$AAt?$AAo?$AA?5?$AAd?$AAe?$AAb?$AAu?$AAg?$AA?5?$AAt?$AAh?$AAe?$AA?5?$AAa?$AAp?$AAp?$AAl?$AAi?$AAc@ 1007aa20     libucrt:assert.obj
 0002:00008ab4       ??_C@_17LGKOMLJ@?$AA?4?$AA?4?$AA?4?$AA?$AA@ 1007aab4     libucrt:assert.obj
 0002:00008ac0       ??_C@_01EEMJAFIK@?6?$AA@   1007aac0     libucrt:assert.obj
 0002:00008ac4       ??_C@_13LBAGMAIH@?$AA?6?$AA?$AA@ 1007aac4     libucrt:assert.obj
 0002:00008ac8       ??_C@_02PHMGELLB@?6?6?$AA@ 1007aac8     libucrt:assert.obj
 0002:00008acc       ??_C@_15IABLJNFO@?$AA?6?$AA?6?$AA?$AA@ 1007aacc     libucrt:assert.obj
 0002:00008ad4       ??_C@_0BH@DNAGHKFM@?$DMprogram?5name?5unknown?$DO?$AA@ 1007aad4     libucrt:assert.obj
 0002:00008af0       ??_C@_1CO@EAEJAADC@?$AA?$DM?$AAp?$AAr?$AAo?$AAg?$AAr?$AAa?$AAm?$AA?5?$AAn?$AAa?$AAm?$AAe?$AA?5?$AAu?$AAn?$AAk?$AAn?$AAo?$AAw?$AAn?$AA?$DO?$AA?$AA@ 1007aaf0     libucrt:assert.obj
 0002:00008c40       ??_C@_03KHJOGHMM@exp?$AA@  1007ac40     libucrt:fpexcept.obj
 0002:00008c44       ??_C@_03JGHBODFD@pow?$AA@  1007ac44     libucrt:fpexcept.obj
 0002:00008c48       ??_C@_03MGHMBJCF@log?$AA@  1007ac48     libucrt:fpexcept.obj
 0002:00008c4c       ??_C@_05HGHHAHAP@log10?$AA@ 1007ac4c     libucrt:fpexcept.obj
 0002:00008c54       ??_C@_04COOMCNPB@sinh?$AA@ 1007ac54     libucrt:fpexcept.obj
 0002:00008c5c       ??_C@_04HPJJNFIM@cosh?$AA@ 1007ac5c     libucrt:fpexcept.obj
 0002:00008c64       ??_C@_04FJHINJAO@tanh?$AA@ 1007ac64     libucrt:fpexcept.obj
 0002:00008c6c       ??_C@_04FIHNOPOL@asin?$AA@ 1007ac6c     libucrt:fpexcept.obj
 0002:00008c74       ??_C@_04PDIFKINK@acos?$AA@ 1007ac74     libucrt:fpexcept.obj
 0002:00008c7c       ??_C@_04MLLJIGOK@atan?$AA@ 1007ac7c     libucrt:fpexcept.obj
 0002:00008c84       ??_C@_05KNGEOGJB@atan2?$AA@ 1007ac84     libucrt:fpexcept.obj
 0002:00008c8c       ??_C@_04EIAKFFMI@sqrt?$AA@ 1007ac8c     libucrt:fpexcept.obj
 0002:00008c94       ??_C@_03BLEJJJBH@sin?$AA@  1007ac94     libucrt:fpexcept.obj
 0002:00008c98       ??_C@_03LALBNOCG@cos?$AA@  1007ac98     libucrt:fpexcept.obj
 0002:00008c9c       ??_C@_03IIINPABG@tan?$AA@  1007ac9c     libucrt:fpexcept.obj
 0002:00008ca0       ??_C@_04GFPJNGEK@ceil?$AA@ 1007aca0     libucrt:fpexcept.obj
 0002:00008ca8       ??_C@_05PBJFFIGL@floor?$AA@ 1007aca8     libucrt:fpexcept.obj
 0002:00008cb0       ??_C@_04ODHECPBC@fabs?$AA@ 1007acb0     libucrt:fpexcept.obj
 0002:00008cb8       ??_C@_04EHEDPDJG@modf?$AA@ 1007acb8     libucrt:fpexcept.obj
 0002:00008cc0       ??_C@_05CEJMAHNP@ldexp?$AA@ 1007acc0     libucrt:fpexcept.obj
 0002:00008cc8       ??_C@_05KBKMEMPO@_cabs?$AA@ 1007acc8     libucrt:fpexcept.obj
 0002:00008cd0       ??_C@_06MEIMCGCF@_hypot?$AA@ 1007acd0     libucrt:fpexcept.obj
 0002:00008cd8       ??_C@_04KEPJIHGP@fmod?$AA@ 1007acd8     libucrt:fpexcept.obj
 0002:00008ce0       ??_C@_05GKKHEGJL@frexp?$AA@ 1007ace0     libucrt:fpexcept.obj
 0002:00008ce8       ??_C@_03MJLDFKDL@_y0?$AA@  1007ace8     libucrt:fpexcept.obj
 0002:00008cec       ??_C@_03NAKIGLHK@_y1?$AA@  1007acec     libucrt:fpexcept.obj
 0002:00008cf0       ??_C@_03ONILCKOB@_yn?$AA@  1007acf0     libucrt:fpexcept.obj
 0002:00008cf4       ??_C@_05JGDBENOH@_logb?$AA@ 1007acf4     libucrt:fpexcept.obj
 0002:00008cfc       ??_C@_0L@KDOEJCKC@_nextafter?$AA@ 1007acfc     libucrt:fpexcept.obj
 0002:00008d10       ___acrt_exception_action_table 1007ad10     libucrt:exception_filter.obj
 0002:00008dbc       ___acrt_signal_action_table_count 1007adbc     libucrt:exception_filter.obj
 0002:00008dc0       ___acrt_signal_action_table_size 1007adc0     libucrt:exception_filter.obj
 0002:00008dc4       ___acrt_signal_action_first_fpe_index 1007adc4     libucrt:exception_filter.obj
 0002:00008dc8       ___acrt_signal_action_fpe_count 1007adc8     libucrt:exception_filter.obj
 0002:00008e6c       __Fenv1                    1007ae6c     libucrt:atox.obj
 0002:00009080       ??_C@_1EA@JGEFHKEI@?$AAa?$AAp?$AAi?$AA?9?$AAm?$AAs?$AA?9?$AAw?$AAi?$AAn?$AA?9?$AAc?$AAo?$AAr?$AAe?$AA?9?$AAd?$AAa?$AAt?$AAe?$AAt?$AAi?$AAm?$AAe?$AA?9?$AAl?$AA1?$AA?9?$AA1?$AA?9?$AA1?$AA?$AA@ 1007b080     libucrt:winapi_thunks.obj
 0002:000090cc       ??_C@_1DI@IJCEHOCB@?$AAa?$AAp?$AAi?$AA?9?$AAm?$AAs?$AA?9?$AAw?$AAi?$AAn?$AA?9?$AAc?$AAo?$AAr?$AAe?$AA?9?$AAf?$AAi?$AAl?$AAe?$AA?9?$AAl?$AA1?$AA?9?$AA2?$AA?9?$AA2?$AA?$AA@ 1007b0cc     libucrt:winapi_thunks.obj
 0002:00009110       ??_C@_1EI@MPIAOHOC@?$AAa?$AAp?$AAi?$AA?9?$AAm?$AAs?$AA?9?$AAw?$AAi?$AAn?$AA?9?$AAc?$AAo?$AAr?$AAe?$AA?9?$AAl?$AAo?$AAc?$AAa?$AAl?$AAi?$AAz?$AAa?$AAt?$AAi?$AAo?$AAn?$AA?9?$AAl?$AA1?$AA?9@ 1007b110     libucrt:winapi_thunks.obj
 0002:00009168       ??_C@_1FK@FPHCKFIE@?$AAa?$AAp?$AAi?$AA?9?$AAm?$AAs?$AA?9?$AAw?$AAi?$AAn?$AA?9?$AAc?$AAo?$AAr?$AAe?$AA?9?$AAl?$AAo?$AAc?$AAa?$AAl?$AAi?$AAz?$AAa?$AAt?$AAi?$AAo?$AAn?$AA?9?$AAo?$AAb?$AAs@ 1007b168     libucrt:winapi_thunks.obj
 0002:000091d8       ??_C@_1EM@DILCGIIO@?$AAa?$AAp?$AAi?$AA?9?$AAm?$AAs?$AA?9?$AAw?$AAi?$AAn?$AA?9?$AAc?$AAo?$AAr?$AAe?$AA?9?$AAp?$AAr?$AAo?$AAc?$AAe?$AAs?$AAs?$AAt?$AAh?$AAr?$AAe?$AAa?$AAd?$AAs?$AA?9?$AAl@ 1007b1d8     libucrt:winapi_thunks.obj
 0002:00009234       ??_C@_1DM@LNCGDDPN@?$AAa?$AAp?$AAi?$AA?9?$AAm?$AAs?$AA?9?$AAw?$AAi?$AAn?$AA?9?$AAc?$AAo?$AAr?$AAe?$AA?9?$AAs?$AAt?$AAr?$AAi?$AAn?$AAg?$AA?9?$AAl?$AA1?$AA?9?$AA1?$AA?9?$AA0?$AA?$AA@ 1007b234     libucrt:winapi_thunks.obj
 0002:0000927c       ??_C@_1DO@FPAPJEMD@?$AAa?$AAp?$AAi?$AA?9?$AAm?$AAs?$AA?9?$AAw?$AAi?$AAn?$AA?9?$AAc?$AAo?$AAr?$AAe?$AA?9?$AAs?$AAy?$AAs?$AAi?$AAn?$AAf?$AAo?$AA?9?$AAl?$AA1?$AA?9?$AA2?$AA?9?$AA1?$AA?$AA@ 1007b27c     libucrt:winapi_thunks.obj
 0002:000092c8       ??_C@_1DK@NDHNAHIO@?$AAa?$AAp?$AAi?$AA?9?$AAm?$AAs?$AA?9?$AAw?$AAi?$AAn?$AA?9?$AAc?$AAo?$AAr?$AAe?$AA?9?$AAw?$AAi?$AAn?$AAr?$AAt?$AA?9?$AAl?$AA1?$AA?9?$AA1?$AA?9?$AA0?$AA?$AA@ 1007b2c8     libucrt:winapi_thunks.obj
 0002:00009310       ??_C@_1DM@KGHDGBCM@?$AAa?$AAp?$AAi?$AA?9?$AAm?$AAs?$AA?9?$AAw?$AAi?$AAn?$AA?9?$AAc?$AAo?$AAr?$AAe?$AA?9?$AAx?$AAs?$AAt?$AAa?$AAt?$AAe?$AA?9?$AAl?$AA2?$AA?9?$AA1?$AA?9?$AA0?$AA?$AA@ 1007b310     libucrt:winapi_thunks.obj
 0002:00009358       ??_C@_1EO@IJIOEFOH@?$AAa?$AAp?$AAi?$AA?9?$AAm?$AAs?$AA?9?$AAw?$AAi?$AAn?$AA?9?$AAr?$AAt?$AAc?$AAo?$AAr?$AAe?$AA?9?$AAn?$AAt?$AAu?$AAs?$AAe?$AAr?$AA?9?$AAw?$AAi?$AAn?$AAd?$AAo?$AAw?$AA?9@ 1007b358     libucrt:winapi_thunks.obj
 0002:000093b8       ??_C@_1FG@HHGEKANL@?$AAa?$AAp?$AAi?$AA?9?$AAm?$AAs?$AA?9?$AAw?$AAi?$AAn?$AA?9?$AAs?$AAe?$AAc?$AAu?$AAr?$AAi?$AAt?$AAy?$AA?9?$AAs?$AAy?$AAs?$AAt?$AAe?$AAm?$AAf?$AAu?$AAn?$AAc?$AAt?$AAi@ 1007b3b8     libucrt:winapi_thunks.obj
 0002:00009420       ??_C@_1EG@DBIOJECG@?$AAe?$AAx?$AAt?$AA?9?$AAm?$AAs?$AA?9?$AAw?$AAi?$AAn?$AA?9?$AAn?$AAt?$AAu?$AAs?$AAe?$AAr?$AA?9?$AAd?$AAi?$AAa?$AAl?$AAo?$AAg?$AAb?$AAo?$AAx?$AA?9?$AAl?$AA1?$AA?9?$AA1@ 1007b420     libucrt:winapi_thunks.obj
 0002:00009478       ??_C@_1EO@FIHMJCLF@?$AAe?$AAx?$AAt?$AA?9?$AAm?$AAs?$AA?9?$AAw?$AAi?$AAn?$AA?9?$AAn?$AAt?$AAu?$AAs?$AAe?$AAr?$AA?9?$AAw?$AAi?$AAn?$AAd?$AAo?$AAw?$AAs?$AAt?$AAa?$AAt?$AAi?$AAo?$AAn?$AA?9@ 1007b478     libucrt:winapi_thunks.obj
 0002:000094d8       ??_C@_1BC@DNHGCMLG@?$AAa?$AAd?$AAv?$AAa?$AAp?$AAi?$AA3?$AA2?$AA?$AA@ 1007b4d8     libucrt:winapi_thunks.obj
 0002:000094f0       ??_C@_1M@OAIMIKLP@?$AAn?$AAt?$AAd?$AAl?$AAl?$AA?$AA@ 1007b4f0     libucrt:winapi_thunks.obj
 0002:00009500       ??_C@_1EG@DPGNFKGC@?$AAa?$AAp?$AAi?$AA?9?$AAm?$AAs?$AA?9?$AAw?$AAi?$AAn?$AA?9?$AAa?$AAp?$AAp?$AAm?$AAo?$AAd?$AAe?$AAl?$AA?9?$AAr?$AAu?$AAn?$AAt?$AAi?$AAm?$AAe?$AA?9?$AAl?$AA1?$AA?9?$AA1@ 1007b500     libucrt:winapi_thunks.obj
 0002:00009554       ??_C@_1O@BCCLBEOE@?$AAu?$AAs?$AAe?$AAr?$AA3?$AA2?$AA?$AA@ 1007b554     libucrt:winapi_thunks.obj
 0002:00009568       ??_C@_0BA@FHFNEAED@AreFileApisANSI?$AA@ 1007b568     libucrt:winapi_thunks.obj
 0002:00009588       ??_C@_0BA@IHGNDAEB@CompareStringEx?$AA@ 1007b588     libucrt:winapi_thunks.obj
 0002:000095a8       ??_C@_0BE@LJANKFHF@EnumSystemLocalesEx?$AA@ 1007b5a8     libucrt:winapi_thunks.obj
 0002:000095fc       ??_C@_0BA@HNOPNCHB@GetActiveWindow?$AA@ 1007b5fc     libucrt:winapi_thunks.obj
 0002:0000961c       ??_C@_0BA@EPCJIIPD@GetDateFormatEx?$AA@ 1007b61c     libucrt:winapi_thunks.obj
 0002:0000963c       ??_C@_0BJ@DIBIJBHA@GetEnabledXStateFeatures?$AA@ 1007b63c     libucrt:winapi_thunks.obj
 0002:00009668       ??_C@_0BD@HHGDFDBJ@GetLastActivePopup?$AA@ 1007b668     libucrt:winapi_thunks.obj
 0002:0000968c       ??_C@_0BA@ONOKGCMP@GetLocaleInfoEx?$AA@ 1007b68c     libucrt:winapi_thunks.obj
 0002:000096ac       ??_C@_0BI@DFKBFLJE@GetProcessWindowStation?$AA@ 1007b6ac     libucrt:winapi_thunks.obj
 0002:000096cc       ??_C@_0BP@FPNJPEJC@GetSystemTimePreciseAsFileTime?$AA@ 1007b6cc     libucrt:winapi_thunks.obj
 0002:00009700       ??_C@_0BA@CIJJKCJJ@GetTimeFormatEx?$AA@ 1007b700     libucrt:winapi_thunks.obj
 0002:00009720       ??_C@_0BJ@PBCCBIPI@GetUserDefaultLocaleName?$AA@ 1007b720     libucrt:winapi_thunks.obj
 0002:0000974c       ??_C@_0BK@DEKFELLI@GetUserObjectInformationW?$AA@ 1007b74c     libucrt:winapi_thunks.obj
 0002:00009778       ??_C@_0BG@IKLDMBLM@GetXStateFeaturesMask?$AA@ 1007b778     libucrt:winapi_thunks.obj
 0002:000097ac       ??_C@_0BC@CELBKLLA@IsValidLocaleName?$AA@ 1007b7ac     libucrt:winapi_thunks.obj
 0002:000097d0       ??_C@_0O@KKBNKAPF@LCMapStringEx?$AA@ 1007b7d0     libucrt:winapi_thunks.obj
 0002:000097ec       ??_C@_0BB@CDHDDLLP@LCIDToLocaleName?$AA@ 1007b7ec     libucrt:winapi_thunks.obj
 0002:0000980c       ??_C@_0BB@HBDEELFH@LocaleNameToLCID?$AA@ 1007b80c     libucrt:winapi_thunks.obj
 0002:0000982c       ??_C@_0BE@KINNKFDA@LocateXStateFeature?$AA@ 1007b82c     libucrt:winapi_thunks.obj
 0002:00009850       ??_C@_0M@CHKKJDAI@MessageBoxA?$AA@ 1007b850     libucrt:winapi_thunks.obj
 0002:0000986c       ??_C@_0M@DLDCCGNP@MessageBoxW?$AA@ 1007b86c     libucrt:winapi_thunks.obj
 0002:00009880       ??_C@_0N@PPOMPGGK@RoInitialize?$AA@ 1007b880     libucrt:winapi_thunks.obj
 0002:00009894       ??_C@_0P@LLFHBIJD@RoUninitialize?$AA@ 1007b894     libucrt:winapi_thunks.obj
 0002:000098ac       ??_C@_0CF@OJOFEIGO@AppPolicyGetProcessTerminationMe@ 1007b8ac     libucrt:winapi_thunks.obj
 0002:000098dc       ??_C@_0CF@NNDFDCOC@AppPolicyGetThreadInitialization@ 1007b8dc     libucrt:winapi_thunks.obj
 0002:0000990c       ??_C@_0CE@OICFMIKE@AppPolicyGetShowDeveloperDiagnos@ 1007b90c     libucrt:winapi_thunks.obj
 0002:0000993c       ??_C@_0BL@ODDJNEDA@AppPolicyGetWindowingModel?$AA@ 1007b93c     libucrt:winapi_thunks.obj
 0002:00009968       ??_C@_0BI@BKLFFAPO@SetThreadStackGuarantee?$AA@ 1007b968     libucrt:winapi_thunks.obj
 0002:00009990       ??_C@_0BC@JEAENNKH@SystemFunction036?$AA@ 1007b990     libucrt:winapi_thunks.obj
 0002:000099a8       ??_C@_03OEIAHPBN@INF?$AA@  1007b9a8     libucrt:cvt.obj
 0002:000099ac       ??_C@_03OJHLLCGB@inf?$AA@  1007b9ac     libucrt:cvt.obj
 0002:000099b0       ??_C@_03LKNCIKJB@NAN?$AA@  1007b9b0     libucrt:cvt.obj
 0002:000099b4       ??_C@_03LHCJEHON@nan?$AA@  1007b9b4     libucrt:cvt.obj
 0002:000099b8       ??_C@_09OFJJIMPC@NAN?$CISNAN?$CJ?$AA@ 1007b9b8     libucrt:cvt.obj
 0002:000099c4       ??_C@_09IPFBKMDL@nan?$CIsnan?$CJ?$AA@ 1007b9c4     libucrt:cvt.obj
 0002:000099d0       ??_C@_08IKHNHAJ@NAN?$CIIND?$CJ?$AA@ 1007b9d0     libucrt:cvt.obj
 0002:000099dc       ??_C@_08OFCDMILK@nan?$CIind?$CJ?$AA@ 1007b9dc     libucrt:cvt.obj
 0002:000099e8       ??_C@_05KLBDPFGC@e?$CL000?$AA@ 1007b9e8     libucrt:cvt.obj
 0002:00009a88       ___lc_category             1007ba88     libucrt:wsetlocale.obj
 0002:00009ae0       ??_C@_1O@GIFLHMA@?$AAL?$AAC?$AA_?$AAA?$AAL?$AAL?$AA?$AA@ 1007bae0     libucrt:wsetlocale.obj
 0002:00009af0       ??_C@_1BG@PPOMIBNJ@?$AAL?$AAC?$AA_?$AAC?$AAO?$AAL?$AAL?$AAA?$AAT?$AAE?$AA?$AA@ 1007baf0     libucrt:wsetlocale.obj
 0002:00009b0c       ??_C@_1BC@FFJGAPJM@?$AAL?$AAC?$AA_?$AAC?$AAT?$AAY?$AAP?$AAE?$AA?$AA@ 1007bb0c     libucrt:wsetlocale.obj
 0002:00009b24       ??_C@_1BI@PCKFNJFB@?$AAL?$AAC?$AA_?$AAM?$AAO?$AAN?$AAE?$AAT?$AAA?$AAR?$AAY?$AA?$AA@ 1007bb24     libucrt:wsetlocale.obj
 0002:00009b40       ??_C@_1BG@ENIEDKID@?$AAL?$AAC?$AA_?$AAN?$AAU?$AAM?$AAE?$AAR?$AAI?$AAC?$AA?$AA@ 1007bb40     libucrt:wsetlocale.obj
 0002:00009b5c       ??_C@_1BA@HAAOMIIG@?$AAL?$AAC?$AA_?$AAT?$AAI?$AAM?$AAE?$AA?$AA@ 1007bb5c     libucrt:wsetlocale.obj
 0002:00009b70       ??_C@_15NBPDDFIP@?$AA?$DN?$AA?$DL?$AA?$AA@ 1007bb70     libucrt:wsetlocale.obj
 0002:00009b78       ??_C@_13PJJBFPED@?$AA?$DL?$AA?$AA@ 1007bb78     libucrt:wsetlocale.obj
 0002:00009b7c       ??_C@_13NMPKAAJP@?$AA?$DN?$AA?$AA@ 1007bb7c     libucrt:wsetlocale.obj
 0002:00009b80       ??_C@_13FHBKNHDA@?$AAC?$AA?$AA@ 1007bb80     libucrt:wsetlocale.obj
 0002:00009b84       ??_C@_19MPDNHKDG@?$AAu?$AAt?$AAf?$AA8?$AA?$AA@ 1007bb84     libucrt:wsetlocale.obj
 0002:00009b90       ??_C@_1M@FPEIIFAM@?$AAu?$AAt?$AAf?$AA?9?$AA8?$AA?$AA@ 1007bb90     libucrt:wsetlocale.obj
 0002:00009ba0       ??_C@_17MBJJLFDM@?$AA_?$AA?4?$AA?0?$AA?$AA@ 1007bba0     libucrt:wsetlocale.obj
 0002:00009bac       ??_C@_13ENNFDPBH@?$AA_?$AA?$AA@ 1007bbac     libucrt:wsetlocale.obj
 0002:00009bb0       ??_C@_13JOFGPIOO@?$AA?4?$AA?$AA@ 1007bbb0     libucrt:wsetlocale.obj
 0002:00009bb8       ___lc_time_c               1007bbb8     libucrt:nlsdata.obj
 0002:00009d64       ??_C@_03KOEHGMDN@Sun?$AA@  1007bd64     libucrt:nlsdata.obj
 0002:00009d68       ??_C@_03PDAGKDH@Mon?$AA@   1007bd68     libucrt:nlsdata.obj
 0002:00009d6c       ??_C@_03NAGEINEP@Tue?$AA@  1007bd6c     libucrt:nlsdata.obj
 0002:00009d70       ??_C@_03MHOMLAJA@Wed?$AA@  1007bd70     libucrt:nlsdata.obj
 0002:00009d74       ??_C@_03IOFIKPDN@Thu?$AA@  1007bd74     libucrt:nlsdata.obj
 0002:00009d78       ??_C@_03IDIOELNC@Fri?$AA@  1007bd78     libucrt:nlsdata.obj
 0002:00009d7c       ??_C@_03FEFJNEK@Sat?$AA@   1007bd7c     libucrt:nlsdata.obj
 0002:00009d80       ??_C@_06OOPIFAJ@Sunday?$AA@ 1007bd80     libucrt:nlsdata.obj
 0002:00009d88       ??_C@_06JLEDEDGH@Monday?$AA@ 1007bd88     libucrt:nlsdata.obj
 0002:00009d90       ??_C@_07BAAGCFCM@Tuesday?$AA@ 1007bd90     libucrt:nlsdata.obj
 0002:00009d9c       ??_C@_09DLIGFAKA@Wednesday?$AA@ 1007bd9c     libucrt:nlsdata.obj
 0002:00009da8       ??_C@_08HACCIKIA@Thursday?$AA@ 1007bda8     libucrt:nlsdata.obj
 0002:00009db4       ??_C@_06JECMNKMI@Friday?$AA@ 1007bdb4     libucrt:nlsdata.obj
 0002:00009dbc       ??_C@_08INBOOONO@Saturday?$AA@ 1007bdbc     libucrt:nlsdata.obj
 0002:00009dc8       ??_C@_03JIHJHPIE@Jan?$AA@  1007bdc8     libucrt:nlsdata.obj
 0002:00009dcc       ??_C@_03HJBDCHOM@Feb?$AA@  1007bdcc     libucrt:nlsdata.obj
 0002:00009dd0       ??_C@_03ODNJBKGA@Mar?$AA@  1007bdd0     libucrt:nlsdata.obj
 0002:00009dd4       ??_C@_03LEOLGMJP@Apr?$AA@  1007bdd4     libucrt:nlsdata.obj
 0002:00009dd8       ??_C@_03CNMDKL@May?$AA@    1007bdd8     libucrt:nlsdata.obj
 0002:00009ddc       ??_C@_03IDFGHECI@Jun?$AA@  1007bddc     libucrt:nlsdata.obj
 0002:00009de0       ??_C@_03LBGABGKK@Jul?$AA@  1007bde0     libucrt:nlsdata.obj
 0002:00009de4       ??_C@_03IFJFEIGA@Aug?$AA@  1007bde4     libucrt:nlsdata.obj
 0002:00009de8       ??_C@_03GGCAPAJC@Sep?$AA@  1007bde8     libucrt:nlsdata.obj
 0002:00009dec       ??_C@_03BMAOKBAD@Oct?$AA@  1007bdec     libucrt:nlsdata.obj
 0002:00009df0       ??_C@_03JPJOFNIA@Nov?$AA@  1007bdf0     libucrt:nlsdata.obj
 0002:00009df4       ??_C@_03MKABNOCG@Dec?$AA@  1007bdf4     libucrt:nlsdata.obj
 0002:00009df8       ??_C@_07CGJPFGJA@January?$AA@ 1007bdf8     libucrt:nlsdata.obj
 0002:00009e04       ??_C@_08GNJGEPFN@February?$AA@ 1007be04     libucrt:nlsdata.obj
 0002:00009e10       ??_C@_05HPCKOFNC@March?$AA@ 1007be10     libucrt:nlsdata.obj
 0002:00009e18       ??_C@_05DMJDNLEJ@April?$AA@ 1007be18     libucrt:nlsdata.obj
 0002:00009e20       ??_C@_04CNLMGBGM@June?$AA@ 1007be20     libucrt:nlsdata.obj
 0002:00009e28       ??_C@_04MIEPOIFP@July?$AA@ 1007be28     libucrt:nlsdata.obj
 0002:00009e30       ??_C@_06LBBHFDDG@August?$AA@ 1007be30     libucrt:nlsdata.obj
 0002:00009e38       ??_C@_09BHHEALKD@September?$AA@ 1007be38     libucrt:nlsdata.obj
 0002:00009e44       ??_C@_07JJNFCEND@October?$AA@ 1007be44     libucrt:nlsdata.obj
 0002:00009e50       ??_C@_08HCHEGEOA@November?$AA@ 1007be50     libucrt:nlsdata.obj
 0002:00009e5c       ??_C@_08EDHMEBNP@December?$AA@ 1007be5c     libucrt:nlsdata.obj
 0002:00009e68       ??_C@_02DEDBPAFC@AM?$AA@   1007be68     libucrt:nlsdata.obj
 0002:00009e6c       ??_C@_02CJNFDJBF@PM?$AA@   1007be6c     libucrt:nlsdata.obj
 0002:00009e70       ??_C@_08BPBNCDIB@MM?1dd?1yy?$AA@ 1007be70     libucrt:nlsdata.obj
 0002:00009e7c       ??_C@_0BE@CKGJFCPC@dddd?0?5MMMM?5dd?0?5yyyy?$AA@ 1007be7c     libucrt:nlsdata.obj
 0002:00009e94       ??_C@_08JCCMCCIL@HH?3mm?3ss?$AA@ 1007be94     libucrt:nlsdata.obj
 0002:00009ea0       ??_C@_17MBGCMIPB@?$AAS?$AAu?$AAn?$AA?$AA@ 1007bea0     libucrt:nlsdata.obj
 0002:00009eac       ??_C@_17KBOMKBF@?$AAM?$AAo?$AAn?$AA?$AA@ 1007beac     libucrt:nlsdata.obj
 0002:00009eb8       ??_C@_17BMKGEGOJ@?$AAT?$AAu?$AAe?$AA?$AA@ 1007beb8     libucrt:nlsdata.obj
 0002:00009ec4       ??_C@_17CJEDCEPE@?$AAW?$AAe?$AAd?$AA?$AA@ 1007bec4     libucrt:nlsdata.obj
 0002:00009ed0       ??_C@_17PDPHAADD@?$AAT?$AAh?$AAu?$AA?$AA@ 1007bed0     libucrt:nlsdata.obj
 0002:00009edc       ??_C@_17HFOLPPLP@?$AAF?$AAr?$AAi?$AA?$AA@ 1007bedc     libucrt:nlsdata.obj
 0002:00009ee8       ??_C@_17GGIBDPIH@?$AAS?$AAa?$AAt?$AA?$AA@ 1007bee8     libucrt:nlsdata.obj
 0002:00009ef4       ??_C@_1O@IHNHDHPB@?$AAS?$AAu?$AAn?$AAd?$AAa?$AAy?$AA?$AA@ 1007bef4     libucrt:nlsdata.obj
 0002:00009f04       ??_C@_1O@MMNBFLIA@?$AAM?$AAo?$AAn?$AAd?$AAa?$AAy?$AA?$AA@ 1007bf04     libucrt:nlsdata.obj
 0002:00009f14       ??_C@_1BA@ENFBFFEK@?$AAT?$AAu?$AAe?$AAs?$AAd?$AAa?$AAy?$AA?$AA@ 1007bf14     libucrt:nlsdata.obj
 0002:00009f28       ??_C@_1BE@EBOGMDOH@?$AAW?$AAe?$AAd?$AAn?$AAe?$AAs?$AAd?$AAa?$AAy?$AA?$AA@ 1007bf28     libucrt:nlsdata.obj
 0002:00009f40       ??_C@_1BC@HHMNLIHE@?$AAT?$AAh?$AAu?$AAr?$AAs?$AAd?$AAa?$AAy?$AA?$AA@ 1007bf40     libucrt:nlsdata.obj
 0002:00009f58       ??_C@_1O@PDICJHAG@?$AAF?$AAr?$AAi?$AAd?$AAa?$AAy?$AA?$AA@ 1007bf58     libucrt:nlsdata.obj
 0002:00009f68       ??_C@_1BC@ENMNNPAJ@?$AAS?$AAa?$AAt?$AAu?$AAr?$AAd?$AAa?$AAy?$AA?$AA@ 1007bf68     libucrt:nlsdata.obj
 0002:00009f80       ??_C@_17DKNBKCHM@?$AAJ?$AAa?$AAn?$AA?$AA@ 1007bf80     libucrt:nlsdata.obj
 0002:00009f8c       ??_C@_17LMDJEKJN@?$AAF?$AAe?$AAb?$AA?$AA@ 1007bf8c     libucrt:nlsdata.obj
 0002:00009f98       ??_C@_17CKNLEDEC@?$AAM?$AAa?$AAr?$AA?$AA@ 1007bf98     libucrt:nlsdata.obj
 0002:00009fa4       ??_C@_17LFPOIHDD@?$AAA?$AAp?$AAr?$AA?$AA@ 1007bfa4     libucrt:nlsdata.obj
 0002:00009fb0       ??_C@_17PNNKMEED@?$AAM?$AAa?$AAy?$AA?$AA@ 1007bfb0     libucrt:nlsdata.obj
 0002:00009fbc       ??_C@_17KCJGOCPB@?$AAJ?$AAu?$AAn?$AA?$AA@ 1007bfbc     libucrt:nlsdata.obj
 0002:00009fc8       ??_C@_17IJPCKHK@?$AAJ?$AAu?$AAl?$AA?$AA@ 1007bfc8     libucrt:nlsdata.obj
 0002:00009fd4       ??_C@_17ICPELBCN@?$AAA?$AAu?$AAg?$AA?$AA@ 1007bfd4     libucrt:nlsdata.obj
 0002:00009fe0       ??_C@_17HCHCOKMG@?$AAS?$AAe?$AAp?$AA?$AA@ 1007bfe0     libucrt:nlsdata.obj
 0002:00009fec       ??_C@_17FNLKOI@?$AAO?$AAc?$AAt?$AA?$AA@ 1007bfec     libucrt:nlsdata.obj
 0002:00009ff8       ??_C@_17BBDMLCIG@?$AAN?$AAo?$AAv?$AA?$AA@ 1007bff8     libucrt:nlsdata.obj
 0002:0000a004       ??_C@_17EGKACKIF@?$AAD?$AAe?$AAc?$AA?$AA@ 1007c004     libucrt:nlsdata.obj
 0002:0000a010       ??_C@_1BA@EFMEIEBA@?$AAJ?$AAa?$AAn?$AAu?$AAa?$AAr?$AAy?$AA?$AA@ 1007c010     libucrt:nlsdata.obj
 0002:0000a024       ??_C@_1BC@JGDDFFAM@?$AAF?$AAe?$AAb?$AAr?$AAu?$AAa?$AAr?$AAy?$AA?$AA@ 1007c024     libucrt:nlsdata.obj
 0002:0000a03c       ??_C@_1M@IKEENEDF@?$AAM?$AAa?$AAr?$AAc?$AAh?$AA?$AA@ 1007c03c     libucrt:nlsdata.obj
 0002:0000a04c       ??_C@_1M@GJNLMHFD@?$AAA?$AAp?$AAr?$AAi?$AAl?$AA?$AA@ 1007c04c     libucrt:nlsdata.obj
 0002:0000a05c       ??_C@_19EPFLPGAP@?$AAJ?$AAu?$AAn?$AAe?$AA?$AA@ 1007c05c     libucrt:nlsdata.obj
 0002:0000a068       ??_C@_19BIFMLPCD@?$AAJ?$AAu?$AAl?$AAy?$AA?$AA@ 1007c068     libucrt:nlsdata.obj
 0002:0000a074       ??_C@_1O@PAHLKOAC@?$AAA?$AAu?$AAg?$AAu?$AAs?$AAt?$AA?$AA@ 1007c074     libucrt:nlsdata.obj
 0002:0000a084       ??_C@_1BE@DKAAMBJL@?$AAS?$AAe?$AAp?$AAt?$AAe?$AAm?$AAb?$AAe?$AAr?$AA?$AA@ 1007c084     libucrt:nlsdata.obj
 0002:0000a09c       ??_C@_1BA@EPANDLNG@?$AAO?$AAc?$AAt?$AAo?$AAb?$AAe?$AAr?$AA?$AA@ 1007c09c     libucrt:nlsdata.obj
 0002:0000a0b0       ??_C@_1BC@BGLIFPF@?$AAN?$AAo?$AAv?$AAe?$AAm?$AAb?$AAe?$AAr?$AA?$AA@ 1007c0b0     libucrt:nlsdata.obj
 0002:0000a0c8       ??_C@_1BC@FEMKIFH@?$AAD?$AAe?$AAc?$AAe?$AAm?$AAb?$AAe?$AAr?$AA?$AA@ 1007c0c8     libucrt:nlsdata.obj
 0002:0000a0e0       ??_C@_15ODEHAHHF@?$AAA?$AAM?$AA?$AA@ 1007c0e0     libucrt:nlsdata.obj
 0002:0000a0e8       ??_C@_15CLMNNGEL@?$AAP?$AAM?$AA?$AA@ 1007c0e8     libucrt:nlsdata.obj
 0002:0000a0f0       ??_C@_1BC@IEBCMHCM@?$AAM?$AAM?$AA?1?$AAd?$AAd?$AA?1?$AAy?$AAy?$AA?$AA@ 1007c0f0     libucrt:nlsdata.obj
 0002:0000a108       ??_C@_1CI@KNAKOEBC@?$AAd?$AAd?$AAd?$AAd?$AA?0?$AA?5?$AAM?$AAM?$AAM?$AAM?$AA?5?$AAd?$AAd?$AA?0?$AA?5?$AAy?$AAy?$AAy?$AAy?$AA?$AA@ 1007c108     libucrt:nlsdata.obj
 0002:0000a138       ??_C@_1BC@GDGBMEMK@?$AAH?$AAH?$AA?3?$AAm?$AAm?$AA?3?$AAs?$AAs?$AA?$AA@ 1007c138     libucrt:nlsdata.obj
 0002:0000a150       ??_C@_1M@BMHNFIME@?$AAe?$AAn?$AA?9?$AAU?$AAS?$AA?$AA@ 1007c150     libucrt:nlsdata.obj
 0002:0000a160       ?ccs@?1???$__acrt_stdio_parse_mode@D@@YA?AU__acrt_stdio_stream_mode@@QBD@Z@4QBDB 1007c160     libucrt:openfile.obj
 0002:0000a164       ?utf8_encoding@?1???$__acrt_stdio_parse_mode@D@@YA?AU__acrt_stdio_stream_mode@@QBD@Z@4QBDB 1007c164     libucrt:openfile.obj
 0002:0000a16c       ?utf16_encoding@?1???$__acrt_stdio_parse_mode@D@@YA?AU__acrt_stdio_stream_mode@@QBD@Z@4QBDB 1007c16c     libucrt:openfile.obj
 0002:0000a178       ?unicode_encoding@?1???$__acrt_stdio_parse_mode@D@@YA?AU__acrt_stdio_stream_mode@@QBD@Z@4QBDB 1007c178     libucrt:openfile.obj
 0002:0000a180       ?ccs@?1???$__acrt_stdio_parse_mode@_W@@YA?AU__acrt_stdio_stream_mode@@QB_W@Z@4QB_WB 1007c180     libucrt:openfile.obj
 0002:0000a188       ?utf8_encoding@?1???$__acrt_stdio_parse_mode@_W@@YA?AU__acrt_stdio_stream_mode@@QB_W@Z@4QB_WB 1007c188     libucrt:openfile.obj
 0002:0000a194       ?utf16_encoding@?1???$__acrt_stdio_parse_mode@_W@@YA?AU__acrt_stdio_stream_mode@@QB_W@Z@4QB_WB 1007c194     libucrt:openfile.obj
 0002:0000a1a8       ?unicode_encoding@?1???$__acrt_stdio_parse_mode@_W@@YA?AU__acrt_stdio_stream_mode@@QB_W@Z@4QB_WB 1007c1a8     libucrt:openfile.obj
 0002:0000a1b8       __d_inf                    1007c1b8     libucrt:util.obj
 0002:0000a1c8       __d_ind                    1007c1c8     libucrt:util.obj
 0002:0000a1d8       __d_max                    1007c1d8     libucrt:util.obj
 0002:0000a1e8       __d_min                    1007c1e8     libucrt:util.obj
 0002:0000a1f8       __d_mzero                  1007c1f8     libucrt:util.obj
 0002:0000a224       ??_C@_1DE@JNGNBFGO@?$AAR?$AAu?$AAn?$AAt?$AAi?$AAm?$AAe?$AA?5?$AAE?$AAr?$AAr?$AAo?$AAr?$AA?$CB?$AA?6?$AA?6?$AAP?$AAr?$AAo?$AAg?$AAr?$AAa?$AAm?$AA?3?$AA?5?$AA?$AA@ 1007c224     libucrt:report_runtime_error.obj
 0002:0000a278       ??_C@_1M@HPNHIDJI@?$AAj?$AAa?$AA?9?$AAJ?$AAP?$AA?$AA@ 1007c278     libucrt:mbctype.obj
 0002:0000a288       ??_C@_1M@BIBDDEMK@?$AAz?$AAh?$AA?9?$AAC?$AAN?$AA?$AA@ 1007c288     libucrt:mbctype.obj
 0002:0000a298       ??_C@_1M@JLOOOEGK@?$AAk?$AAo?$AA?9?$AAK?$AAR?$AA?$AA@ 1007c298     libucrt:mbctype.obj
 0002:0000a2a8       ??_C@_1M@CLNBBOPM@?$AAz?$AAh?$AA?9?$AAT?$AAW?$AA?$AA@ 1007c2a8     libucrt:mbctype.obj
 0002:0000a2b8       ___newctype                1007c2b8     libucrt:ctype.obj
 0002:0000a658       ___newclmap                1007c658     libucrt:ctype.obj
 0002:0000a828       ___newcumap                1007c828     libucrt:ctype.obj
 0002:0000a9f8       __wctype                   1007c9f8     libucrt:ctype.obj
 0002:0000b4f4       ??_C@_15EMKDOKLE@?$AAa?$AAr?$AA?$AA@ 1007d4f4     libucrt:lcidtoname_downlevel.obj
 0002:0000b4fc       ??_C@_15KNPADPLH@?$AAb?$AAg?$AA?$AA@ 1007d4fc     libucrt:lcidtoname_downlevel.obj
 0002:0000b504       ??_C@_15EDMHLDMO@?$AAc?$AAa?$AA?$AA@ 1007d504     libucrt:lcidtoname_downlevel.obj
 0002:0000b50c       ??_C@_1O@BPEAJADD@?$AAz?$AAh?$AA?9?$AAC?$AAH?$AAS?$AA?$AA@ 1007d50c     libucrt:lcidtoname_downlevel.obj
 0002:0000b51c       ??_C@_15LJNHCMNK@?$AAc?$AAs?$AA?$AA@ 1007d51c     libucrt:lcidtoname_downlevel.obj
 0002:0000b524       ??_C@_15FOMCIDHG@?$AAd?$AAa?$AA?$AA@ 1007d524     libucrt:lcidtoname_downlevel.obj
 0002:0000b52c       ??_C@_15NBKABECB@?$AAd?$AAe?$AA?$AA@ 1007d52c     libucrt:lcidtoname_downlevel.obj
 0002:0000b534       ??_C@_15GHPEIIAO@?$AAe?$AAl?$AA?$AA@ 1007d534     libucrt:lcidtoname_downlevel.obj
 0002:0000b53c       ??_C@_15MNPNEAIF@?$AAe?$AAn?$AA?$AA@ 1007d53c     libucrt:lcidtoname_downlevel.obj
 0002:0000b544       ??_C@_15GPIOMPMH@?$AAe?$AAs?$AA?$AA@ 1007d544     libucrt:lcidtoname_downlevel.obj
 0002:0000b54c       ??_C@_15NGLOAKJC@?$AAf?$AAi?$AA?$AA@ 1007d54c     libucrt:lcidtoname_downlevel.obj
 0002:0000b554       ??_C@_15FBKGNKAM@?$AAf?$AAr?$AA?$AA@ 1007d554     libucrt:lcidtoname_downlevel.obj
 0002:0000b55c       ??_C@_15KGGCNEFK@?$AAh?$AAe?$AA?$AA@ 1007d55c     libucrt:lcidtoname_downlevel.obj
 0002:0000b564       ??_C@_15PGHLIDMF@?$AAh?$AAu?$AA?$AA@ 1007d564     libucrt:lcidtoname_downlevel.obj
 0002:0000b56c       ??_C@_15BIEMAPLM@?$AAi?$AAs?$AA?$AA@ 1007d56c     libucrt:lcidtoname_downlevel.obj
 0002:0000b574       ??_C@_15IFJLDHAF@?$AAi?$AAt?$AA?$AA@ 1007d574     libucrt:lcidtoname_downlevel.obj
 0002:0000b57c       ??_C@_15GEMIOCAG@?$AAj?$AAa?$AA?$AA@ 1007d57c     libucrt:lcidtoname_downlevel.obj
 0002:0000b584       ??_C@_15EPELEGJA@?$AAk?$AAo?$AA?$AA@ 1007d584     libucrt:lcidtoname_downlevel.obj
 0002:0000b58c       ??_C@_15NDDHIMN@?$AAn?$AAl?$AA?$AA@ 1007d58c     libucrt:lcidtoname_downlevel.obj
 0002:0000b594       ??_C@_15BPIGNHCD@?$AAn?$AAo?$AA?$AA@ 1007d594     libucrt:lcidtoname_downlevel.obj
 0002:0000b59c       ??_C@_15DEOPBLCG@?$AAp?$AAl?$AA?$AA@ 1007d59c     libucrt:lcidtoname_downlevel.obj
 0002:0000b5a4       ??_C@_15KBECGEFG@?$AAp?$AAt?$AA?$AA@ 1007d5a4     libucrt:lcidtoname_downlevel.obj
 0002:0000b5ac       ??_C@_15GLJCBFMD@?$AAr?$AAo?$AA?$AA@ 1007d5ac     libucrt:lcidtoname_downlevel.obj
 0002:0000b5b4       ??_C@_15FEDGKCDI@?$AAr?$AAu?$AA?$AA@ 1007d5b4     libucrt:lcidtoname_downlevel.obj
 0002:0000b5bc       ??_C@_15GLKMLLHM@?$AAh?$AAr?$AA?$AA@ 1007d5bc     libucrt:lcidtoname_downlevel.obj
 0002:0000b5c4       ??_C@_15CPKMFBDB@?$AAs?$AAk?$AA?$AA@ 1007d5c4     libucrt:lcidtoname_downlevel.obj
 0002:0000b5cc       ??_C@_15BAAIOGMK@?$AAs?$AAq?$AA?$AA@ 1007d5cc     libucrt:lcidtoname_downlevel.obj
 0002:0000b5d4       ??_C@_15INNPNOHD@?$AAs?$AAv?$AA?$AA@ 1007d5d4     libucrt:lcidtoname_downlevel.obj
 0002:0000b5dc       ??_C@_15CABMMOGH@?$AAt?$AAh?$AA?$AA@ 1007d5dc     libucrt:lcidtoname_downlevel.obj
 0002:0000b5e4       ??_C@_15BPLIHJJM@?$AAt?$AAr?$AA?$AA@ 1007d5e4     libucrt:lcidtoname_downlevel.obj
 0002:0000b5ec       ??_C@_15NEOEKKDJ@?$AAu?$AAr?$AA?$AA@ 1007d5ec     libucrt:lcidtoname_downlevel.obj
 0002:0000b5f4       ??_C@_15NFICGAJK@?$AAi?$AAd?$AA?$AA@ 1007d5f4     libucrt:lcidtoname_downlevel.obj
 0002:0000b5fc       ??_C@_15PJPFLCCM@?$AAu?$AAk?$AA?$AA@ 1007d5fc     libucrt:lcidtoname_downlevel.obj
 0002:0000b604       ??_C@_15HPJPHDM@?$AAb?$AAe?$AA?$AA@ 1007d604     libucrt:lcidtoname_downlevel.obj
 0002:0000b60c       ??_C@_15LCHLGJII@?$AAs?$AAl?$AA?$AA@ 1007d60c     libucrt:lcidtoname_downlevel.obj
 0002:0000b614       ??_C@_15PCFJPHHO@?$AAe?$AAt?$AA?$AA@ 1007d614     libucrt:lcidtoname_downlevel.obj
 0002:0000b61c       ??_C@_15HPFPGODN@?$AAl?$AAv?$AA?$AA@ 1007d61c     libucrt:lcidtoname_downlevel.obj
 0002:0000b624       ??_C@_15NFFGKGLG@?$AAl?$AAt?$AA?$AA@ 1007d624     libucrt:lcidtoname_downlevel.obj
 0002:0000b62c       ??_C@_15BDAKCCHN@?$AAf?$AAa?$AA?$AA@ 1007d62c     libucrt:lcidtoname_downlevel.obj
 0002:0000b634       ??_C@_15NFGIAIAJ@?$AAv?$AAi?$AA?$AA@ 1007d634     libucrt:lcidtoname_downlevel.obj
 0002:0000b63c       ??_C@_15LMKNDMHN@?$AAh?$AAy?$AA?$AA@ 1007d63c     libucrt:lcidtoname_downlevel.obj
 0002:0000b644       ??_C@_15IJBHMCFL@?$AAa?$AAz?$AA?$AA@ 1007d644     libucrt:lcidtoname_downlevel.obj
 0002:0000b64c       ??_C@_15EKOFJABL@?$AAe?$AAu?$AA?$AA@ 1007d64c     libucrt:lcidtoname_downlevel.obj
 0002:0000b654       ??_C@_15BGHADCNK@?$AAm?$AAk?$AA?$AA@ 1007d654     libucrt:lcidtoname_downlevel.obj
 0002:0000b65c       ??_C@_15JDNICKHM@?$AAa?$AAf?$AA?$AA@ 1007d65c     libucrt:lcidtoname_downlevel.obj
 0002:0000b664       ??_C@_15KPJEDBKD@?$AAk?$AAa?$AA?$AA@ 1007d664     libucrt:lcidtoname_downlevel.obj
 0002:0000b66c       ??_C@_15PDNFFFEO@?$AAf?$AAo?$AA?$AA@ 1007d66c     libucrt:lcidtoname_downlevel.obj
 0002:0000b674       ??_C@_15OMLEGLOC@?$AAh?$AAi?$AA?$AA@ 1007d674     libucrt:lcidtoname_downlevel.obj
 0002:0000b67c       ??_C@_15IDNNENKK@?$AAm?$AAs?$AA?$AA@ 1007d67c     libucrt:lcidtoname_downlevel.obj
 0002:0000b684       ??_C@_15MACJNBMH@?$AAk?$AAk?$AA?$AA@ 1007d684     libucrt:lcidtoname_downlevel.obj
 0002:0000b68c       ??_C@_15DKDJEOND@?$AAk?$AAy?$AA?$AA@ 1007d68c     libucrt:lcidtoname_downlevel.obj
 0002:0000b694       ??_C@_15DFGDLJBG@?$AAs?$AAw?$AA?$AA@ 1007d694     libucrt:lcidtoname_downlevel.obj
 0002:0000b69c       ??_C@_15BBFAICNG@?$AAu?$AAz?$AA?$AA@ 1007d69c     libucrt:lcidtoname_downlevel.obj
 0002:0000b6a4       ??_C@_15DKNDCGEA@?$AAt?$AAt?$AA?$AA@ 1007d6a4     libucrt:lcidtoname_downlevel.obj
 0002:0000b6ac       ??_C@_15MGIFMDPL@?$AAp?$AAa?$AA?$AA@ 1007d6ac     libucrt:lcidtoname_downlevel.obj
 0002:0000b6b4       ??_C@_15HCNDBBA@?$AAg?$AAu?$AA?$AA@ 1007d6b4     libucrt:lcidtoname_downlevel.obj
 0002:0000b6bc       ??_C@_15FNBEIBON@?$AAt?$AAa?$AA?$AA@ 1007d6bc     libucrt:lcidtoname_downlevel.obj
 0002:0000b6c4       ??_C@_15NCHGBGLK@?$AAt?$AAe?$AA?$AA@ 1007d6c4     libucrt:lcidtoname_downlevel.obj
 0002:0000b6cc       ??_C@_15PHPHCBPF@?$AAk?$AAn?$AA?$AA@ 1007d6cc     libucrt:lcidtoname_downlevel.obj
 0002:0000b6d4       ??_C@_15DLGBCKMP@?$AAm?$AAr?$AA?$AA@ 1007d6d4     libucrt:lcidtoname_downlevel.obj
 0002:0000b6dc       ??_C@_15EABBLBFF@?$AAs?$AAa?$AA?$AA@ 1007d6dc     libucrt:lcidtoname_downlevel.obj
 0002:0000b6e4       ??_C@_15CBKOMCOI@?$AAm?$AAn?$AA?$AA@ 1007d6e4     libucrt:lcidtoname_downlevel.obj
 0002:0000b6ec       ??_C@_15CKDMCJAF@?$AAg?$AAl?$AA?$AA@ 1007d6ec     libucrt:lcidtoname_downlevel.obj
 0002:0000b6f4       ??_C@_17CNJFBPG@?$AAk?$AAo?$AAk?$AA?$AA@ 1007d6f4     libucrt:lcidtoname_downlevel.obj
 0002:0000b700       ??_C@_17FFBJICPL@?$AAs?$AAy?$AAr?$AA?$AA@ 1007d700     libucrt:lcidtoname_downlevel.obj
 0002:0000b70c       ??_C@_17KPNDCPAF@?$AAd?$AAi?$AAv?$AA?$AA@ 1007d70c     libucrt:lcidtoname_downlevel.obj
 0002:0000b718       ??_C@_11LOCGONAA@?$AA?$AA@ 1007d718     libucrt:lcidtoname_downlevel.obj
 0002:0000b71c       ??_C@_1M@OKAHONE@?$AAa?$AAr?$AA?9?$AAS?$AAA?$AA?$AA@ 1007d71c     libucrt:lcidtoname_downlevel.obj
 0002:0000b72c       ??_C@_1M@FFFIGIGK@?$AAb?$AAg?$AA?9?$AAB?$AAG?$AA?$AA@ 1007d72c     libucrt:lcidtoname_downlevel.obj
 0002:0000b73c       ??_C@_1M@BJNKEDC@?$AAc?$AAa?$AA?9?$AAE?$AAS?$AA?$AA@ 1007d73c     libucrt:lcidtoname_downlevel.obj
 0002:0000b74c       ??_C@_1M@IJJHFJHA@?$AAc?$AAs?$AA?9?$AAC?$AAZ?$AA?$AA@ 1007d74c     libucrt:lcidtoname_downlevel.obj
 0002:0000b75c       ??_C@_1M@CLPEOBGI@?$AAd?$AAa?$AA?9?$AAD?$AAK?$AA?$AA@ 1007d75c     libucrt:lcidtoname_downlevel.obj
 0002:0000b76c       ??_C@_1M@MCMADGCB@?$AAd?$AAe?$AA?9?$AAD?$AAE?$AA?$AA@ 1007d76c     libucrt:lcidtoname_downlevel.obj
 0002:0000b77c       ??_C@_1M@OOCKEMAM@?$AAe?$AAl?$AA?9?$AAG?$AAR?$AA?$AA@ 1007d77c     libucrt:lcidtoname_downlevel.obj
 0002:0000b78c       ??_C@_1M@DDNJFGID@?$AAf?$AAi?$AA?9?$AAF?$AAI?$AA?$AA@ 1007d78c     libucrt:lcidtoname_downlevel.obj
 0002:0000b79c       ??_C@_1M@GLIPPMAC@?$AAf?$AAr?$AA?9?$AAF?$AAR?$AA?$AA@ 1007d79c     libucrt:lcidtoname_downlevel.obj
 0002:0000b7ac       ??_C@_1M@GFMCHPE@?$AAh?$AAe?$AA?9?$AAI?$AAL?$AA?$AA@ 1007d7ac     libucrt:lcidtoname_downlevel.obj
 0002:0000b7bc       ??_C@_1M@MHLPGNKM@?$AAh?$AAu?$AA?9?$AAH?$AAU?$AA?$AA@ 1007d7bc     libucrt:lcidtoname_downlevel.obj
 0002:0000b7cc       ??_C@_1M@LPDDNNPN@?$AAi?$AAs?$AA?9?$AAI?$AAS?$AA?$AA@ 1007d7cc     libucrt:lcidtoname_downlevel.obj
 0002:0000b7dc       ??_C@_1M@MADIPODN@?$AAi?$AAt?$AA?9?$AAI?$AAT?$AA?$AA@ 1007d7dc     libucrt:lcidtoname_downlevel.obj
 0002:0000b7ec       ??_C@_1M@IHBJJGG@?$AAn?$AAl?$AA?9?$AAN?$AAL?$AA?$AA@ 1007d7ec     libucrt:lcidtoname_downlevel.obj
 0002:0000b7fc       ??_C@_1M@EANAGDL@?$AAn?$AAb?$AA?9?$AAN?$AAO?$AA?$AA@ 1007d7fc     libucrt:lcidtoname_downlevel.obj
 0002:0000b80c       ??_C@_1M@NEIEMEGP@?$AAp?$AAl?$AA?9?$AAP?$AAL?$AA?$AA@ 1007d80c     libucrt:lcidtoname_downlevel.obj
 0002:0000b81c       ??_C@_1M@BOCFIGEP@?$AAp?$AAt?$AA?9?$AAB?$AAR?$AA?$AA@ 1007d81c     libucrt:lcidtoname_downlevel.obj
 0002:0000b82c       ??_C@_1M@IMPFOPBG@?$AAr?$AAo?$AA?9?$AAR?$AAO?$AA?$AA@ 1007d82c     libucrt:lcidtoname_downlevel.obj
 0002:0000b83c       ??_C@_1M@IDNNEJMM@?$AAr?$AAu?$AA?9?$AAR?$AAU?$AA?$AA@ 1007d83c     libucrt:lcidtoname_downlevel.obj
 0002:0000b84c       ??_C@_1M@LILEEOGM@?$AAh?$AAr?$AA?9?$AAH?$AAR?$AA?$AA@ 1007d84c     libucrt:lcidtoname_downlevel.obj
 0002:0000b85c       ??_C@_1M@FKIFEHPB@?$AAs?$AAk?$AA?9?$AAS?$AAK?$AA?$AA@ 1007d85c     libucrt:lcidtoname_downlevel.obj
 0002:0000b86c       ??_C@_1M@LJMAMNPJ@?$AAs?$AAq?$AA?9?$AAA?$AAL?$AA?$AA@ 1007d86c     libucrt:lcidtoname_downlevel.obj
 0002:0000b87c       ??_C@_1M@GIAKDKJK@?$AAs?$AAv?$AA?9?$AAS?$AAE?$AA?$AA@ 1007d87c     libucrt:lcidtoname_downlevel.obj
 0002:0000b88c       ??_C@_1M@MKJKIKCL@?$AAt?$AAh?$AA?9?$AAT?$AAH?$AA?$AA@ 1007d88c     libucrt:lcidtoname_downlevel.obj
 0002:0000b89c       ??_C@_1M@MFLCCMPB@?$AAt?$AAr?$AA?9?$AAT?$AAR?$AA?$AA@ 1007d89c     libucrt:lcidtoname_downlevel.obj
 0002:0000b8ac       ??_C@_1M@OIJHDKJN@?$AAu?$AAr?$AA?9?$AAP?$AAK?$AA?$AA@ 1007d8ac     libucrt:lcidtoname_downlevel.obj
 0002:0000b8bc       ??_C@_1M@LHIPCIEK@?$AAi?$AAd?$AA?9?$AAI?$AAD?$AA?$AA@ 1007d8bc     libucrt:lcidtoname_downlevel.obj
 0002:0000b8cc       ??_C@_1M@MFMOBGI@?$AAu?$AAk?$AA?9?$AAU?$AAA?$AA?$AA@ 1007d8cc     libucrt:lcidtoname_downlevel.obj
 0002:0000b8dc       ??_C@_1M@OBGLJIPL@?$AAb?$AAe?$AA?9?$AAB?$AAY?$AA?$AA@ 1007d8dc     libucrt:lcidtoname_downlevel.obj
 0002:0000b8ec       ??_C@_1M@BCFAJEAD@?$AAs?$AAl?$AA?9?$AAS?$AAI?$AA?$AA@ 1007d8ec     libucrt:lcidtoname_downlevel.obj
 0002:0000b8fc       ??_C@_1M@FKFFEDDN@?$AAe?$AAt?$AA?9?$AAE?$AAE?$AA?$AA@ 1007d8fc     libucrt:lcidtoname_downlevel.obj
 0002:0000b90c       ??_C@_1M@KGKKAACI@?$AAl?$AAv?$AA?9?$AAL?$AAV?$AA?$AA@ 1007d90c     libucrt:lcidtoname_downlevel.obj
 0002:0000b91c       ??_C@_1M@IFGBIJO@?$AAl?$AAt?$AA?9?$AAL?$AAT?$AA?$AA@ 1007d91c     libucrt:lcidtoname_downlevel.obj
 0002:0000b92c       ??_C@_1M@FGEAHEDM@?$AAf?$AAa?$AA?9?$AAI?$AAR?$AA?$AA@ 1007d92c     libucrt:lcidtoname_downlevel.obj
 0002:0000b93c       ??_C@_1M@KBMAIBFN@?$AAv?$AAi?$AA?9?$AAV?$AAN?$AA?$AA@ 1007d93c     libucrt:lcidtoname_downlevel.obj
 0002:0000b94c       ??_C@_1M@GPCBKDJK@?$AAh?$AAy?$AA?9?$AAA?$AAM?$AA?$AA@ 1007d94c     libucrt:lcidtoname_downlevel.obj
 0002:0000b95c       ??_C@_1BG@BECMDDJB@?$AAa?$AAz?$AA?9?$AAA?$AAZ?$AA?9?$AAL?$AAa?$AAt?$AAn?$AA?$AA@ 1007d95c     libucrt:lcidtoname_downlevel.obj
 0002:0000b978       ??_C@_1M@MAOFCAEA@?$AAe?$AAu?$AA?9?$AAE?$AAS?$AA?$AA@ 1007d978     libucrt:lcidtoname_downlevel.obj
 0002:0000b988       ??_C@_1M@IGHABKPI@?$AAm?$AAk?$AA?9?$AAM?$AAK?$AA?$AA@ 1007d988     libucrt:lcidtoname_downlevel.obj
 0002:0000b998       ??_C@_1M@IAIGNEJG@?$AAt?$AAn?$AA?9?$AAZ?$AAA?$AA?$AA@ 1007d998     libucrt:lcidtoname_downlevel.obj
 0002:0000b9a8       ??_C@_1M@IIJCOJFA@?$AAx?$AAh?$AA?9?$AAZ?$AAA?$AA?$AA@ 1007d9a8     libucrt:lcidtoname_downlevel.obj
 0002:0000b9b8       ??_C@_1M@LGPJHNJH@?$AAz?$AAu?$AA?9?$AAZ?$AAA?$AA?$AA@ 1007d9b8     libucrt:lcidtoname_downlevel.obj
 0002:0000b9c8       ??_C@_1M@HOKAOIO@?$AAa?$AAf?$AA?9?$AAZ?$AAA?$AA?$AA@ 1007d9c8     libucrt:lcidtoname_downlevel.obj
 0002:0000b9d8       ??_C@_1M@DPCLHLIE@?$AAk?$AAa?$AA?9?$AAG?$AAE?$AA?$AA@ 1007d9d8     libucrt:lcidtoname_downlevel.obj
 0002:0000b9e8       ??_C@_1M@BLKMHJBI@?$AAf?$AAo?$AA?9?$AAF?$AAO?$AA?$AA@ 1007d9e8     libucrt:lcidtoname_downlevel.obj
 0002:0000b9f8       ??_C@_1M@LGGJAPPB@?$AAh?$AAi?$AA?9?$AAI?$AAN?$AA?$AA@ 1007d9f8     libucrt:lcidtoname_downlevel.obj
 0002:0000ba08       ??_C@_1M@FIKPIHFE@?$AAm?$AAt?$AA?9?$AAM?$AAT?$AA?$AA@ 1007da08     libucrt:lcidtoname_downlevel.obj
 0002:0000ba18       ??_C@_1M@HEGGPBFA@?$AAs?$AAe?$AA?9?$AAN?$AAO?$AA?$AA@ 1007da18     libucrt:lcidtoname_downlevel.obj
 0002:0000ba28       ??_C@_1M@EIBJEEPA@?$AAm?$AAs?$AA?9?$AAM?$AAY?$AA?$AA@ 1007da28     libucrt:lcidtoname_downlevel.obj
 0002:0000ba38       ??_C@_1M@FHLBGMPP@?$AAk?$AAk?$AA?9?$AAK?$AAZ?$AA?$AA@ 1007da38     libucrt:lcidtoname_downlevel.obj
 0002:0000ba48       ??_C@_1M@NGJJLCGI@?$AAk?$AAy?$AA?9?$AAK?$AAG?$AA?$AA@ 1007da48     libucrt:lcidtoname_downlevel.obj
 0002:0000ba58       ??_C@_1M@GIENNBFC@?$AAs?$AAw?$AA?9?$AAK?$AAE?$AA?$AA@ 1007da58     libucrt:lcidtoname_downlevel.obj
 0002:0000ba68       ??_C@_1BG@NDGMJIMJ@?$AAu?$AAz?$AA?9?$AAU?$AAZ?$AA?9?$AAL?$AAa?$AAt?$AAn?$AA?$AA@ 1007da68     libucrt:lcidtoname_downlevel.obj
 0002:0000ba84       ??_C@_1M@IDCCIHBC@?$AAt?$AAt?$AA?9?$AAR?$AAU?$AA?$AA@ 1007da84     libucrt:lcidtoname_downlevel.obj
 0002:0000ba94       ??_C@_1M@LOICPMOJ@?$AAb?$AAn?$AA?9?$AAI?$AAN?$AA?$AA@ 1007da94     libucrt:lcidtoname_downlevel.obj
 0002:0000baa4       ??_C@_1M@KPKKNEAH@?$AAp?$AAa?$AA?9?$AAI?$AAN?$AA?$AA@ 1007daa4     libucrt:lcidtoname_downlevel.obj
 0002:0000bab4       ??_C@_1M@PJGPPBOG@?$AAg?$AAu?$AA?9?$AAI?$AAN?$AA?$AA@ 1007dab4     libucrt:lcidtoname_downlevel.obj
 0002:0000bac4       ??_C@_1M@KMKMOPHI@?$AAt?$AAa?$AA?9?$AAI?$AAN?$AA?$AA@ 1007dac4     libucrt:lcidtoname_downlevel.obj
 0002:0000bad4       ??_C@_1M@KFEHEPAC@?$AAt?$AAe?$AA?9?$AAI?$AAN?$AA?$AA@ 1007dad4     libucrt:lcidtoname_downlevel.obj
 0002:0000bae4       ??_C@_1M@CDCLMGHI@?$AAk?$AAn?$AA?9?$AAI?$AAN?$AA?$AA@ 1007dae4     libucrt:lcidtoname_downlevel.obj
 0002:0000baf4       ??_C@_1M@MIODLDKF@?$AAm?$AAl?$AA?9?$AAI?$AAN?$AA?$AA@ 1007daf4     libucrt:lcidtoname_downlevel.obj
 0002:0000bb04       ??_C@_1M@PBIEACPO@?$AAm?$AAr?$AA?9?$AAI?$AAN?$AA?$AA@ 1007db04     libucrt:lcidtoname_downlevel.obj
 0002:0000bb14       ??_C@_1M@NIDEAGPH@?$AAs?$AAa?$AA?9?$AAI?$AAN?$AA?$AA@ 1007db14     libucrt:lcidtoname_downlevel.obj
 0002:0000bb24       ??_C@_1M@FHIHCBIO@?$AAm?$AAn?$AA?9?$AAM?$AAN?$AA?$AA@ 1007db24     libucrt:lcidtoname_downlevel.obj
 0002:0000bb34       ??_C@_1M@JAIJPENP@?$AAc?$AAy?$AA?9?$AAG?$AAB?$AA?$AA@ 1007db34     libucrt:lcidtoname_downlevel.obj
 0002:0000bb44       ??_C@_1M@PHGFBEPN@?$AAg?$AAl?$AA?9?$AAE?$AAS?$AA?$AA@ 1007db44     libucrt:lcidtoname_downlevel.obj
 0002:0000bb54       ??_C@_1O@KPIPDNCP@?$AAk?$AAo?$AAk?$AA?9?$AAI?$AAN?$AA?$AA@ 1007db54     libucrt:lcidtoname_downlevel.obj
 0002:0000bb64       ??_C@_1O@KNHJLDJA@?$AAs?$AAy?$AAr?$AA?9?$AAS?$AAY?$AA?$AA@ 1007db64     libucrt:lcidtoname_downlevel.obj
 0002:0000bb74       ??_C@_1O@MKEKBLAH@?$AAd?$AAi?$AAv?$AA?9?$AAM?$AAV?$AA?$AA@ 1007db74     libucrt:lcidtoname_downlevel.obj
 0002:0000bb84       ??_C@_1O@OHDCKDDF@?$AAq?$AAu?$AAz?$AA?9?$AAB?$AAO?$AA?$AA@ 1007db84     libucrt:lcidtoname_downlevel.obj
 0002:0000bb94       ??_C@_1M@LEPJNLFD@?$AAn?$AAs?$AA?9?$AAZ?$AAA?$AA?$AA@ 1007db94     libucrt:lcidtoname_downlevel.obj
 0002:0000bba4       ??_C@_1M@OMLEIIJB@?$AAm?$AAi?$AA?9?$AAN?$AAZ?$AA?$AA@ 1007dba4     libucrt:lcidtoname_downlevel.obj
 0002:0000bbb4       ??_C@_1M@PMPEAILG@?$AAa?$AAr?$AA?9?$AAI?$AAQ?$AA?$AA@ 1007dbb4     libucrt:lcidtoname_downlevel.obj
 0002:0000bbc4       ??_C@_1M@CNKPNOEE@?$AAd?$AAe?$AA?9?$AAC?$AAH?$AA?$AA@ 1007dbc4     libucrt:lcidtoname_downlevel.obj
 0002:0000bbd4       ??_C@_1M@LKMGMLKO@?$AAe?$AAn?$AA?9?$AAG?$AAB?$AA?$AA@ 1007dbd4     libucrt:lcidtoname_downlevel.obj
 0002:0000bbe4       ??_C@_1M@PGKJFFGL@?$AAe?$AAs?$AA?9?$AAM?$AAX?$AA?$AA@ 1007dbe4     libucrt:lcidtoname_downlevel.obj
 0002:0000bbf4       ??_C@_1M@DNNANBDC@?$AAf?$AAr?$AA?9?$AAB?$AAE?$AA?$AA@ 1007dbf4     libucrt:lcidtoname_downlevel.obj
 0002:0000bc04       ??_C@_1M@HLGMDFHM@?$AAi?$AAt?$AA?9?$AAC?$AAH?$AA?$AA@ 1007dc04     libucrt:lcidtoname_downlevel.obj
 0002:0000bc14       ??_C@_1M@CLLBGJH@?$AAn?$AAl?$AA?9?$AAB?$AAE?$AA?$AA@ 1007dc14     libucrt:lcidtoname_downlevel.obj
 0002:0000bc24       ??_C@_1M@BODBOGLF@?$AAn?$AAn?$AA?9?$AAN?$AAO?$AA?$AA@ 1007dc24     libucrt:lcidtoname_downlevel.obj
 0002:0000bc34       ??_C@_1M@HFFAHKAD@?$AAp?$AAt?$AA?9?$AAP?$AAT?$AA?$AA@ 1007dc34     libucrt:lcidtoname_downlevel.obj
 0002:0000bc44       ??_C@_1BG@LNOAKHIE@?$AAs?$AAr?$AA?9?$AAS?$AAP?$AA?9?$AAL?$AAa?$AAt?$AAn?$AA?$AA@ 1007dc44     libucrt:lcidtoname_downlevel.obj
 0002:0000bc60       ??_C@_1M@HBMHBGAK@?$AAs?$AAv?$AA?9?$AAF?$AAI?$AA?$AA@ 1007dc60     libucrt:lcidtoname_downlevel.obj
 0002:0000bc70       ??_C@_1BG@DGCJGJBE@?$AAa?$AAz?$AA?9?$AAA?$AAZ?$AA?9?$AAC?$AAy?$AAr?$AAl?$AA?$AA@ 1007dc70     libucrt:lcidtoname_downlevel.obj
 0002:0000bc8c       ??_C@_1M@KEJDAAHB@?$AAs?$AAe?$AA?9?$AAS?$AAE?$AA?$AA@ 1007dc8c     libucrt:lcidtoname_downlevel.obj
 0002:0000bc9c       ??_C@_1M@HEIBJJAD@?$AAm?$AAs?$AA?9?$AAB?$AAN?$AA?$AA@ 1007dc9c     libucrt:lcidtoname_downlevel.obj
 0002:0000bcac       ??_C@_1BG@PBGJMCEM@?$AAu?$AAz?$AA?9?$AAU?$AAZ?$AA?9?$AAC?$AAy?$AAr?$AAl?$AA?$AA@ 1007dcac     libucrt:lcidtoname_downlevel.obj
 0002:0000bcc8       ??_C@_1O@LAOBCMDF@?$AAq?$AAu?$AAz?$AA?9?$AAE?$AAC?$AA?$AA@ 1007dcc8     libucrt:lcidtoname_downlevel.obj
 0002:0000bcd8       ??_C@_1M@POEEMAIO@?$AAa?$AAr?$AA?9?$AAE?$AAG?$AA?$AA@ 1007dcd8     libucrt:lcidtoname_downlevel.obj
 0002:0000bce8       ??_C@_1M@EFAKDEDL@?$AAz?$AAh?$AA?9?$AAH?$AAK?$AA?$AA@ 1007dce8     libucrt:lcidtoname_downlevel.obj
 0002:0000bcf8       ??_C@_1M@HKKIJHGI@?$AAd?$AAe?$AA?9?$AAA?$AAT?$AA?$AA@ 1007dcf8     libucrt:lcidtoname_downlevel.obj
 0002:0000bd08       ??_C@_1M@KBFBEHJF@?$AAe?$AAn?$AA?9?$AAA?$AAU?$AA?$AA@ 1007dd08     libucrt:lcidtoname_downlevel.obj
 0002:0000bd18       ??_C@_1M@MNPLFAAH@?$AAe?$AAs?$AA?9?$AAE?$AAS?$AA?$AA@ 1007dd18     libucrt:lcidtoname_downlevel.obj
 0002:0000bd28       ??_C@_1M@HJOOJFMA@?$AAf?$AAr?$AA?9?$AAC?$AAA?$AA?$AA@ 1007dd28     libucrt:lcidtoname_downlevel.obj
 0002:0000bd38       ??_C@_1BG@JPOFPNAB@?$AAs?$AAr?$AA?9?$AAS?$AAP?$AA?9?$AAC?$AAy?$AAr?$AAl?$AA?$AA@ 1007dd38     libucrt:lcidtoname_downlevel.obj
 0002:0000bd54       ??_C@_1M@LNFOCMOB@?$AAs?$AAe?$AA?9?$AAF?$AAI?$AA?$AA@ 1007dd54     libucrt:lcidtoname_downlevel.obj
 0002:0000bd64       ??_C@_1O@MGJBOAMB@?$AAq?$AAu?$AAz?$AA?9?$AAP?$AAE?$AA?$AA@ 1007dd64     libucrt:lcidtoname_downlevel.obj
 0002:0000bd74       ??_C@_1M@GJINLBOK@?$AAa?$AAr?$AA?9?$AAL?$AAY?$AA?$AA@ 1007dd74     libucrt:lcidtoname_downlevel.obj
 0002:0000bd84       ??_C@_1M@GGMNHJNL@?$AAz?$AAh?$AA?9?$AAS?$AAG?$AA?$AA@ 1007dd84     libucrt:lcidtoname_downlevel.obj
 0002:0000bd94       ??_C@_1M@HOIKODND@?$AAd?$AAe?$AA?9?$AAL?$AAU?$AA?$AA@ 1007dd94     libucrt:lcidtoname_downlevel.obj
 0002:0000bda4       ??_C@_1M@DDOCCGFG@?$AAe?$AAn?$AA?9?$AAC?$AAA?$AA?$AA@ 1007dda4     libucrt:lcidtoname_downlevel.obj
 0002:0000bdb4       ??_C@_1M@BNOEMJLF@?$AAe?$AAs?$AA?9?$AAG?$AAT?$AA?$AA@ 1007ddb4     libucrt:lcidtoname_downlevel.obj
 0002:0000bdc4       ??_C@_1M@EOGNKEK@?$AAf?$AAr?$AA?9?$AAC?$AAH?$AA?$AA@ 1007ddc4     libucrt:lcidtoname_downlevel.obj
 0002:0000bdd4       ??_C@_1M@FLIDJFHL@?$AAh?$AAr?$AA?9?$AAB?$AAA?$AA?$AA@ 1007ddd4     libucrt:lcidtoname_downlevel.obj
 0002:0000bde4       ??_C@_1O@FMCELNAJ@?$AAs?$AAm?$AAj?$AA?9?$AAN?$AAO?$AA?$AA@ 1007dde4     libucrt:lcidtoname_downlevel.obj
 0002:0000bdf4       ??_C@_1M@JHGLJMGJ@?$AAa?$AAr?$AA?9?$AAD?$AAZ?$AA?$AA@ 1007ddf4     libucrt:lcidtoname_downlevel.obj
 0002:0000be04       ??_C@_1M@JKKFDCNP@?$AAz?$AAh?$AA?9?$AAM?$AAO?$AA?$AA@ 1007de04     libucrt:lcidtoname_downlevel.obj
 0002:0000be14       ??_C@_1M@GEEFALPE@?$AAd?$AAe?$AA?9?$AAL?$AAI?$AA?$AA@ 1007de14     libucrt:lcidtoname_downlevel.obj
 0002:0000be24       ??_C@_1M@IGEOFBG@?$AAe?$AAn?$AA?9?$AAN?$AAZ?$AA?$AA@ 1007de24     libucrt:lcidtoname_downlevel.obj
 0002:0000be34       ??_C@_1M@KDBONEHP@?$AAe?$AAs?$AA?9?$AAC?$AAR?$AA?$AA@ 1007de34     libucrt:lcidtoname_downlevel.obj
 0002:0000be44       ??_C@_1M@FHMDOHNN@?$AAf?$AAr?$AA?9?$AAL?$AAU?$AA?$AA@ 1007de44     libucrt:lcidtoname_downlevel.obj
 0002:0000be54       ??_C@_1BG@NFKKMAFG@?$AAb?$AAs?$AA?9?$AAB?$AAA?$AA?9?$AAL?$AAa?$AAt?$AAn?$AA?$AA@ 1007de54     libucrt:lcidtoname_downlevel.obj
 0002:0000be70       ??_C@_1O@IMNBEMCI@?$AAs?$AAm?$AAj?$AA?9?$AAS?$AAE?$AA?$AA@ 1007de70     libucrt:lcidtoname_downlevel.obj
 0002:0000be80       ??_C@_1M@DHHMBNDP@?$AAa?$AAr?$AA?9?$AAM?$AAA?$AA?$AA@ 1007de80     libucrt:lcidtoname_downlevel.obj
 0002:0000be90       ??_C@_1M@BNBLJCGH@?$AAe?$AAn?$AA?9?$AAI?$AAE?$AA?$AA@ 1007de90     libucrt:lcidtoname_downlevel.obj
 0002:0000bea0       ??_C@_1M@GEPAFMDL@?$AAe?$AAs?$AA?9?$AAP?$AAA?$AA?$AA@ 1007dea0     libucrt:lcidtoname_downlevel.obj
 0002:0000beb0       ??_C@_1M@OJONDMDL@?$AAf?$AAr?$AA?9?$AAM?$AAC?$AA?$AA@ 1007deb0     libucrt:lcidtoname_downlevel.obj
 0002:0000bec0       ??_C@_1BG@OBCNFJB@?$AAs?$AAr?$AA?9?$AAB?$AAA?$AA?9?$AAL?$AAa?$AAt?$AAn?$AA?$AA@ 1007dec0     libucrt:lcidtoname_downlevel.obj
 0002:0000bedc       ??_C@_1O@KEMEEGPO@?$AAs?$AAm?$AAa?$AA?9?$AAN?$AAO?$AA?$AA@ 1007dedc     libucrt:lcidtoname_downlevel.obj
 0002:0000beec       ??_C@_1M@ELMGFODK@?$AAa?$AAr?$AA?9?$AAT?$AAN?$AA?$AA@ 1007deec     libucrt:lcidtoname_downlevel.obj
 0002:0000befc       ??_C@_1M@BHDLHFAF@?$AAe?$AAn?$AA?9?$AAZ?$AAA?$AA?$AA@ 1007defc     libucrt:lcidtoname_downlevel.obj
 0002:0000bf0c       ??_C@_1M@BMGIGLIF@?$AAe?$AAs?$AA?9?$AAD?$AAO?$AA?$AA@ 1007df0c     libucrt:lcidtoname_downlevel.obj
 0002:0000bf1c       ??_C@_1BG@CMBHIPBE@?$AAs?$AAr?$AA?9?$AAB?$AAA?$AA?9?$AAC?$AAy?$AAr?$AAl?$AA?$AA@ 1007df1c     libucrt:lcidtoname_downlevel.obj
 0002:0000bf38       ??_C@_1O@HEDBLHNP@?$AAs?$AAm?$AAa?$AA?9?$AAS?$AAE?$AA?$AA@ 1007df38     libucrt:lcidtoname_downlevel.obj
 0002:0000bf48       ??_C@_1M@DAGCADIM@?$AAa?$AAr?$AA?9?$AAO?$AAM?$AA?$AA@ 1007df48     libucrt:lcidtoname_downlevel.obj
 0002:0000bf58       ??_C@_1M@FODLMICG@?$AAe?$AAn?$AA?9?$AAJ?$AAM?$AA?$AA@ 1007df58     libucrt:lcidtoname_downlevel.obj
 0002:0000bf68       ??_C@_1M@DNMLCIHB@?$AAe?$AAs?$AA?9?$AAV?$AAE?$AA?$AA@ 1007df68     libucrt:lcidtoname_downlevel.obj
 0002:0000bf78       ??_C@_1O@EOKHMKJK@?$AAs?$AAm?$AAs?$AA?9?$AAF?$AAI?$AA?$AA@ 1007df78     libucrt:lcidtoname_downlevel.obj
 0002:0000bf88       ??_C@_1M@CAFJMKOF@?$AAa?$AAr?$AA?9?$AAY?$AAE?$AA?$AA@ 1007df88     libucrt:lcidtoname_downlevel.obj
 0002:0000bf98       ??_C@_1M@CBFHIJLI@?$AAe?$AAn?$AA?9?$AAC?$AAB?$AA?$AA@ 1007df98     libucrt:lcidtoname_downlevel.obj
 0002:0000bfa8       ??_C@_1M@BGNFLDN@?$AAe?$AAs?$AA?9?$AAC?$AAO?$AA?$AA@ 1007dfa8     libucrt:lcidtoname_downlevel.obj
 0002:0000bfb8       ??_C@_1O@JMPHMAMC@?$AAs?$AAm?$AAn?$AA?9?$AAF?$AAI?$AA?$AA@ 1007dfb8     libucrt:lcidtoname_downlevel.obj
 0002:0000bfc8       ??_C@_1M@JLANABKE@?$AAa?$AAr?$AA?9?$AAS?$AAY?$AA?$AA@ 1007dfc8     libucrt:lcidtoname_downlevel.obj
 0002:0000bfd8       ??_C@_1M@HPKGCFGN@?$AAe?$AAn?$AA?9?$AAB?$AAZ?$AA?$AA@ 1007dfd8     libucrt:lcidtoname_downlevel.obj
 0002:0000bfe8       ??_C@_1M@OLJCMLGM@?$AAe?$AAs?$AA?9?$AAP?$AAE?$AA?$AA@ 1007dfe8     libucrt:lcidtoname_downlevel.obj
 0002:0000bff8       ??_C@_1M@MKKGFKLE@?$AAa?$AAr?$AA?9?$AAJ?$AAO?$AA?$AA@ 1007dff8     libucrt:lcidtoname_downlevel.obj
 0002:0000c008       ??_C@_1M@EKPGLDNI@?$AAe?$AAn?$AA?9?$AAT?$AAT?$AA?$AA@ 1007e008     libucrt:lcidtoname_downlevel.obj
 0002:0000c018       ??_C@_1M@OONGHFHE@?$AAe?$AAs?$AA?9?$AAA?$AAR?$AA?$AA@ 1007e018     libucrt:lcidtoname_downlevel.obj
 0002:0000c028       ??_C@_1M@OOJFGBHE@?$AAa?$AAr?$AA?9?$AAL?$AAB?$AA?$AA@ 1007e028     libucrt:lcidtoname_downlevel.obj
 0002:0000c038       ??_C@_1M@GCEJHNEG@?$AAe?$AAn?$AA?9?$AAZ?$AAW?$AA?$AA@ 1007e038     libucrt:lcidtoname_downlevel.obj
 0002:0000c048       ??_C@_1M@JNOCAHJI@?$AAe?$AAs?$AA?9?$AAE?$AAC?$AA?$AA@ 1007e048     libucrt:lcidtoname_downlevel.obj
 0002:0000c058       ??_C@_1M@JEFHPGGB@?$AAa?$AAr?$AA?9?$AAK?$AAW?$AA?$AA@ 1007e058     libucrt:lcidtoname_downlevel.obj
 0002:0000c068       ??_C@_1M@MLKIBJOJ@?$AAe?$AAn?$AA?9?$AAP?$AAH?$AA?$AA@ 1007e068     libucrt:lcidtoname_downlevel.obj
 0002:0000c078       ??_C@_1M@BDNIPEND@?$AAe?$AAs?$AA?9?$AAC?$AAL?$AA?$AA@ 1007e078     libucrt:lcidtoname_downlevel.obj
 0002:0000c088       ??_C@_1M@MPNMEKBD@?$AAa?$AAr?$AA?9?$AAA?$AAE?$AA?$AA@ 1007e088     libucrt:lcidtoname_downlevel.obj
 0002:0000c098       ??_C@_1M@KBJALCPI@?$AAe?$AAs?$AA?9?$AAU?$AAY?$AA?$AA@ 1007e098     libucrt:lcidtoname_downlevel.obj
 0002:0000c0a8       ??_C@_1M@LLCCOAGA@?$AAa?$AAr?$AA?9?$AAB?$AAH?$AA?$AA@ 1007e0a8     libucrt:lcidtoname_downlevel.obj
 0002:0000c0b8       ??_C@_1M@PBFNCDEL@?$AAe?$AAs?$AA?9?$AAP?$AAY?$AA?$AA@ 1007e0b8     libucrt:lcidtoname_downlevel.obj
 0002:0000c0c8       ??_C@_1M@EDGINPNP@?$AAa?$AAr?$AA?9?$AAQ?$AAA?$AA?$AA@ 1007e0c8     libucrt:lcidtoname_downlevel.obj
 0002:0000c0d8       ??_C@_1M@MKDBIIJI@?$AAe?$AAs?$AA?9?$AAB?$AAO?$AA?$AA@ 1007e0d8     libucrt:lcidtoname_downlevel.obj
 0002:0000c0e8       ??_C@_1M@CPKKEBLD@?$AAe?$AAs?$AA?9?$AAS?$AAV?$AA?$AA@ 1007e0e8     libucrt:lcidtoname_downlevel.obj
 0002:0000c0f8       ??_C@_1M@NDBGMMJL@?$AAe?$AAs?$AA?9?$AAH?$AAN?$AA?$AA@ 1007e0f8     libucrt:lcidtoname_downlevel.obj
 0002:0000c108       ??_C@_1M@JIJIBHDP@?$AAe?$AAs?$AA?9?$AAN?$AAI?$AA?$AA@ 1007e108     libucrt:lcidtoname_downlevel.obj
 0002:0000c118       ??_C@_1M@CGFMKEEK@?$AAe?$AAs?$AA?9?$AAP?$AAR?$AA?$AA@ 1007e118     libucrt:lcidtoname_downlevel.obj
 0002:0000c128       ??_C@_1O@ICJHKIIK@?$AAz?$AAh?$AA?9?$AAC?$AAH?$AAT?$AA?$AA@ 1007e128     libucrt:lcidtoname_downlevel.obj
 0002:0000c138       ??_C@_15CLNEJCE@?$AAs?$AAr?$AA?$AA@ 1007e138     libucrt:lcidtoname_downlevel.obj
 0002:0000c9cc       ??_C@_1M@KAHEKEIG@?$AAa?$AAf?$AA?9?$AAz?$AAa?$AA?$AA@ 1007e9cc     libucrt:lcidtoname_downlevel.obj
 0002:0000c9dc       ??_C@_1M@GIECOABL@?$AAa?$AAr?$AA?9?$AAa?$AAe?$AA?$AA@ 1007e9dc     libucrt:lcidtoname_downlevel.obj
 0002:0000c9ec       ??_C@_1M@BMLMEKGI@?$AAa?$AAr?$AA?9?$AAb?$AAh?$AA?$AA@ 1007e9ec     libucrt:lcidtoname_downlevel.obj
 0002:0000c9fc       ??_C@_1M@DAPFDGGB@?$AAa?$AAr?$AA?9?$AAd?$AAz?$AA?$AA@ 1007e9fc     libucrt:lcidtoname_downlevel.obj
 0002:0000ca0c       ??_C@_1M@FJNKGKIG@?$AAa?$AAr?$AA?9?$AAe?$AAg?$AA?$AA@ 1007ea0c     libucrt:lcidtoname_downlevel.obj
 0002:0000ca1c       ??_C@_1M@FLGKKCLO@?$AAa?$AAr?$AA?9?$AAi?$AAq?$AA?$AA@ 1007ea1c     libucrt:lcidtoname_downlevel.obj
 0002:0000ca2c       ??_C@_1M@GNDIPALM@?$AAa?$AAr?$AA?9?$AAj?$AAo?$AA?$AA@ 1007ea2c     libucrt:lcidtoname_downlevel.obj
 0002:0000ca3c       ??_C@_1M@DDMJFMGJ@?$AAa?$AAr?$AA?9?$AAk?$AAw?$AA?$AA@ 1007ea3c     libucrt:lcidtoname_downlevel.obj
 0002:0000ca4c       ??_C@_1M@EJALMLHM@?$AAa?$AAr?$AA?9?$AAl?$AAb?$AA?$AA@ 1007ea4c     libucrt:lcidtoname_downlevel.obj
 0002:0000ca5c       ??_C@_1M@MOBDBLOC@?$AAa?$AAr?$AA?9?$AAl?$AAy?$AA?$AA@ 1007ea5c     libucrt:lcidtoname_downlevel.obj
 0002:0000ca6c       ??_C@_1M@JAOCLHDH@?$AAa?$AAr?$AA?9?$AAm?$AAa?$AA?$AA@ 1007ea6c     libucrt:lcidtoname_downlevel.obj
 0002:0000ca7c       ??_C@_1M@JHPMKJIE@?$AAa?$AAr?$AA?9?$AAo?$AAm?$AA?$AA@ 1007ea7c     libucrt:lcidtoname_downlevel.obj
 0002:0000ca8c       ??_C@_1M@OEPGHFNH@?$AAa?$AAr?$AA?9?$AAq?$AAa?$AA?$AA@ 1007ea8c     libucrt:lcidtoname_downlevel.obj
 0002:0000ca9c       ??_C@_1M@KJDONENM@?$AAa?$AAr?$AA?9?$AAs?$AAa?$AA?$AA@ 1007ea9c     libucrt:lcidtoname_downlevel.obj
 0002:0000caac       ??_C@_1M@DMJDKLKM@?$AAa?$AAr?$AA?9?$AAs?$AAy?$AA?$AA@ 1007eaac     libucrt:lcidtoname_downlevel.obj
 0002:0000cabc       ??_C@_1M@OMFIPEDC@?$AAa?$AAr?$AA?9?$AAt?$AAn?$AA?$AA@ 1007eabc     libucrt:lcidtoname_downlevel.obj
 0002:0000cacc       ??_C@_1M@IHMHGAON@?$AAa?$AAr?$AA?9?$AAy?$AAe?$AA?$AA@ 1007eacc     libucrt:lcidtoname_downlevel.obj
 0002:0000cadc       ??_C@_1BG@KDCPGJGB@?$AAa?$AAz?$AA?9?$AAa?$AAz?$AA?9?$AAc?$AAy?$AAr?$AAl?$AA?$AA@ 1007eadc     libucrt:lcidtoname_downlevel.obj
 0002:0000caf8       ??_C@_1BG@IBCKDDOE@?$AAa?$AAz?$AA?9?$AAa?$AAz?$AA?9?$AAl?$AAa?$AAt?$AAn?$AA?$AA@ 1007eaf8     libucrt:lcidtoname_downlevel.obj
 0002:0000cb14       ??_C@_1M@EGPFDCPD@?$AAb?$AAe?$AA?9?$AAb?$AAy?$AA?$AA@ 1007eb14     libucrt:lcidtoname_downlevel.obj
 0002:0000cb24       ??_C@_1M@PCMGMCGC@?$AAb?$AAg?$AA?9?$AAb?$AAg?$AA?$AA@ 1007eb24     libucrt:lcidtoname_downlevel.obj
 0002:0000cb34       ??_C@_1M@BJBMFGOB@?$AAb?$AAn?$AA?9?$AAi?$AAn?$AA?$AA@ 1007eb34     libucrt:lcidtoname_downlevel.obj
 0002:0000cb44       ??_C@_1BG@EAKMMACD@?$AAb?$AAs?$AA?9?$AAb?$AAa?$AA?9?$AAl?$AAa?$AAt?$AAn?$AA?$AA@ 1007eb44     libucrt:lcidtoname_downlevel.obj
 0002:0000cb60       ??_C@_1M@KGADAODK@?$AAc?$AAa?$AA?9?$AAe?$AAs?$AA?$AA@ 1007eb60     libucrt:lcidtoname_downlevel.obj
 0002:0000cb70       ??_C@_1M@COAJPDHI@?$AAc?$AAs?$AA?9?$AAc?$AAz?$AA?$AA@ 1007eb70     libucrt:lcidtoname_downlevel.obj
 0002:0000cb80       ??_C@_1M@DHBHFONH@?$AAc?$AAy?$AA?9?$AAg?$AAb?$AA?$AA@ 1007eb80     libucrt:lcidtoname_downlevel.obj
 0002:0000cb90       ??_C@_1M@IMGKELGA@?$AAd?$AAa?$AA?9?$AAd?$AAk?$AA?$AA@ 1007eb90     libucrt:lcidtoname_downlevel.obj
