 speed_controllerDec10_slrt

 Timestamp is 65765bd4 (Sun Dec 10 16:46:12 2023)

 Preferred load address is 10000000

 Start         Length     Name                   Class
 0001:00000000 0006fc7dH .text$mn                CODE
 0001:0006fc7d 00001085H .text$x                 CODE
 0002:00000000 00000104H .CRT$XCA                DATA
 0002:00000104 00000104H .CRT$XCZ                DATA
 0002:00000208 00000104H .CRT$XIA                DATA
 0002:0000030c 00000110H .CRT$XIC                DATA
 0002:0000041c 00000104H .CRT$XIZ                DATA
 0002:00000520 00000104H .CRT$XPA                DATA
 0002:00000624 0000010cH .CRT$XPX                DATA
 0002:00000730 00000104H .CRT$XPXA               DATA
 0002:00000834 00000104H .CRT$XPZ                DATA
 0002:00000938 00000104H .CRT$XTA                DATA
 0002:00000a3c 00000104H .CRT$XTZ                DATA
 0002:00000b40 0000fe5cH .rdata                  DATA
 0002:0001099c 00000444H .rdata$r                DATA
 0002:00010de0 00000128H .rdata$sxdata           DATA
 0002:00010f08 000001c4H .rdata$zzzdbg           DATA
 0002:000110cc 00000104H .rtc$IAA                DATA
 0002:000111d0 00000104H .rtc$IZZ                DATA
 0002:000112d4 00000104H .rtc$TAA                DATA
 0002:000113d8 00000108H .rtc$TZZ                DATA
 0002:000114e0 00000ce0H .xdata$x                DATA
 0002:000121c0 00000210H .edata                  DATA
 0003:00000000 0000157cH .data                   DATA
 0003:0000157c 00000264H .data$r                 DATA
 0003:000017e0 00015a7cH .bss                    DATA
 0004:00000000 000001b4H .idata$5                DATA
 0004:000001b4 00000014H .idata$2                DATA
 0004:000001c8 00000014H .idata$3                DATA
 0004:000001dc 000001b4H .idata$4                DATA
 0004:00000390 000007a2H .idata$6                DATA
 0005:00000000 00000104H .00cfg                  DATA

  Address         Publics by Value              Rva+Base       Lib:Object

 0000:00000000       ___guard_longjmp_count     00000000     <absolute>
 0000:00000000       ___dynamic_value_reloc_table 00000000     <absolute>
 0000:00000000       ___hybrid_code_map         00000000     <absolute>
 0000:00000000       ___hybrid_auxiliary_iat    00000000     <absolute>
 0000:00000000       ___guard_iat_table         00000000     <absolute>
 0000:00000000       ___guard_fids_count        00000000     <absolute>
 0000:00000000       ___enclave_config          00000000     <absolute>
 0000:00000000       ___hybrid_code_map_count   00000000     <absolute>
 0000:00000000       ___guard_fids_table        00000000     <absolute>
 0000:00000000       __except_list              00000000     <absolute>
 0000:00000000       ___guard_longjmp_table     00000000     <absolute>
 0000:00000000       ___guard_iat_count         00000000     <absolute>
 0000:00000008       ___safe_se_handler_count   00000008     <absolute>
 0000:00000100       ___guard_flags             00000100     <absolute>
 0000:00000000       ___ImageBase               10000000     <linker-defined>
 0001:00006390       _MdlInitialize             10007390 f   speed_controllerDec10.obj
 0001:000063a0       _MdlInitializeSampleTimes  100073a0 f   speed_controllerDec10.obj
 0001:000063b0       _MdlInitializeSizes        100073b0 f   speed_controllerDec10.obj
 0001:000063c0       _MdlOutputs                100073c0 f   speed_controllerDec10.obj
 0001:000063d0       _MdlStart                  100073d0 f   speed_controllerDec10.obj
 0001:000063e0       _MdlTerminate              100073e0 f   speed_controllerDec10.obj
 0001:00006440       _MdlUpdate                 10007440 f   speed_controllerDec10.obj
 0001:000065a0       ___local_stdio_printf_options 100075a0 f i speed_controllerDec10.obj
 0001:000065b0       __vfprintf_l               100075b0 f i speed_controllerDec10.obj
 0001:000065e0       _printf                    100075e0 f i speed_controllerDec10.obj
 0001:00006620       _speed_controllerDec10     10007620 f   speed_controllerDec10.obj
 0001:00009690       _rt_mxCreateCharMatrixFromStrings 1000a690 f   rt_matrx.obj
 0001:000097f0       _rt_mxCreateDoubleMatrix   1000a7f0 f   rt_matrx.obj
 0001:00009850       _rt_mxCreateNumericArray   1000a850 f   rt_matrx.obj
 0001:000098c0       _rt_mxCreateString         1000a8c0 f   rt_matrx.obj
 0001:00009950       _rt_mxDuplicateArray       1000a950 f   rt_matrx.obj
 0001:000099b0       _rt_mxGetDimensions        1000a9b0 f   rt_matrx.obj
 0001:000099f0       _rt_mxGetEps               1000a9f0 f   rt_matrx.obj
 0001:00009a00       _rt_mxGetString            1000aa00 f   rt_matrx.obj
 0001:00009a80       _rtPrintfNoOp              1000aa80 f   rt_printf.obj
 0001:00009a90       __vsnprintf_l              1000aa90 f i rt_logging.obj
 0001:00009ad0       __vsprintf_l               1000aad0 f i rt_logging.obj
 0001:00009b10       _fprintf                   1000ab10 f i rt_logging.obj
 0001:0000a010       _rt_CreateLogVar           1000b010 f   rt_logging.obj
 0001:0000a0a0       _rt_CreateLogVarWithConvert 1000b0a0 f   rt_logging.obj
 0001:0000a9d0       _rt_CreateStructLogVar     1000b9d0 f   rt_logging.obj
 0001:0000b750       _rt_GetMxIdFromDTypeId     1000c750 f   rt_logging.obj
 0001:0000b780       _rt_GetMxIdFromDTypeIdForRSim 1000c780 f   rt_logging.obj
 0001:0000e330       _rt_StartDataLogging       1000f330 f   rt_logging.obj
 0001:0000e7f0       _rt_StartDataLoggingWithStartTime 1000f7f0 f   rt_logging.obj
 0001:0000ec60       _rt_StopDataLogging        1000fc60 f   rt_logging.obj
 0001:0000ec80       _rt_StopDataLoggingImpl    1000fc80 f   rt_logging.obj
 0001:0000f0a0       _rt_UpdateLogVar           100100a0 f   rt_logging.obj
 0001:00010210       _rt_UpdateStructLogVar     10011210 f   rt_logging.obj
 0001:000102a0       _rt_UpdateTXXFYLogVars     100112a0 f   rt_logging.obj
 0001:00010700       _rt_UpdateTXYLogVars       10011700 f   rt_logging.obj
 0001:00010940       _rt_getTempMemory          10011940 f   rt_logging.obj
 0001:00010990       _sprintf                   10011990 f i rt_logging.obj
 0001:000109d0       _rtGetInf                  100119d0 f   rtGetInf.obj
 0001:00010a00       _rtGetInfF                 10011a00 f   rtGetInf.obj
 0001:00010a20       _rtGetMinusInf             10011a20 f   rtGetInf.obj
 0001:00010a50       _rtGetMinusInfF            10011a50 f   rtGetInf.obj
 0001:00010a70       _rtGetNaN                  10011a70 f   rtGetNaN.obj
 0001:00010aa0       _rtGetNaNF                 10011aa0 f   rtGetNaN.obj
 0001:00010ac0       _rtIsInf                   10011ac0 f   rt_nonfinite.obj
 0001:00010b00       _rtIsInfF                  10011b00 f   rt_nonfinite.obj
 0001:00010b40       _rtIsNaN                   10011b40 f   rt_nonfinite.obj
 0001:00010b50       _rtIsNaNF                  10011b50 f   rt_nonfinite.obj
 0001:00010b60       _rt_InitInfAndNaN          10011b60 f   rt_nonfinite.obj
 0001:00010bc0       _speed_controllerDec10_GetCAPIStaticMap 10011bc0 f   speed_controllerDec10_capi.obj
 0001:00010bd0       _speed_controllerDec10_InitializeDataMapInfo 10011bd0 f   speed_controllerDec10_capi.obj
 0001:00010ca0       _mdlXcp_GetMdlXcpInfo      10011ca0 f   speed_controllerDec10_xcp.obj
 0001:00010cb0       _SLRT_update_TET           10011cb0 f   speed_controllerDec10_xcp_TET.obj
 0001:00010d80       _rt_CleanUpForStateLogWithMMI 10011d80 f   rt_logging_mmi.obj
 0001:00010e90       _rt_FillStateSigInfoFromMMI 10011e90 f   rt_logging_mmi.obj
 0001:00011230       _rtwCAPI_CountSysRan       10012230 f   rtw_modelmap_utils.obj
 0001:000112d0       _rtwCAPI_EncodePath        100122d0 f   rtw_modelmap_utils.obj
 0001:000113e0       _rtwCAPI_FillSysRan        100123e0 f   rtw_modelmap_utils.obj
 0001:000114d0       _rtwCAPI_FreeFullPaths     100124d0 f   rtw_modelmap_utils.obj
 0001:00011560       _rtwCAPI_GetFullStateBlockPath 10012560 f   rtw_modelmap_utils.obj
 0001:000116f0       _rtwCAPI_GetNumContStateRecords 100126f0 f   rtw_modelmap_utils.obj
 0001:000117b0       _rtwCAPI_GetNumSigLogRecords 100127b0 f   rtw_modelmap_utils.obj
 0001:00011800       _rtwCAPI_GetNumSigLogRecordsForRTWLogging 10012800 f   rtw_modelmap_utils.obj
 0001:000118a0       _rtwCAPI_GetNumStateRecords 100128a0 f   rtw_modelmap_utils.obj
 0001:000118f0       _rtwCAPI_GetNumStateRecordsForRTWLogging 100128f0 f   rtw_modelmap_utils.obj
 0001:00011990       _rtwCAPI_GetSigAddrFromMap 10012990 f   rtw_modelmap_utils.obj
 0001:00011a50       _rtwCAPI_GetSigLogRecordInfo 10012a50 f   rtw_modelmap_utils.obj
 0001:00011e80       _rtwCAPI_GetStateRecordInfo 10012e80 f   rtw_modelmap_utils.obj
 0001:00012340       _rtwCAPI_GetStateWidth     10013340 f   rtw_modelmap_utils.obj
 0001:000123a0       _rtwCAPI_HasStates         100133a0 f   rtw_modelmap_utils.obj
 0001:00012400       _rtwCAPI_UpdateFullPaths   10013400 f   rtw_modelmap_utils.obj
 0001:000125e0       _timestamp_x86             100135e0 f   host_timer_x86.obj
 0001:000125f0       _taskTimeEnd               100135f0 f   xpc_code_profiling_utility_functions.obj
 0001:00012600       _taskTimeEnd_              10013600 f   xpc_code_profiling_utility_functions.obj
 0001:00012610       _taskTimeStart             10013610 f   xpc_code_profiling_utility_functions.obj
 0001:00012620       _taskTimeStart_            10013620 f   xpc_code_profiling_utility_functions.obj
 0001:00012630       _xilProfilingTimerFreeze   10013630 f   xpc_code_profiling_utility_functions.obj
 0001:00012640       _xilProfilingTimerUnFreeze 10013640 f   xpc_code_profiling_utility_functions.obj
 0001:00012650       _xilUploadProfilingData    10013650 f   xpc_code_profiling_utility_functions.obj
 0001:00012660       _DllMain@12                10013660 f   xpctarget.obj
 0001:00012670       _SLRTSetErrorStatus        10013670 f   xpctarget.obj
 0001:00012690       _changeStepSize            10013690 f   xpctarget.obj
 0001:000126e0       _getDLMVersion             100136e0 f   xpctarget.obj
 0001:000126f0       _getRefMdlPath             100136f0 f   xpctarget.obj
 0001:00012770       _getRefMdlSignalNumber     10013770 f   xpctarget.obj
 0001:00012820       _getrlmdlinfo              10013820 f   xpctarget.obj
 0001:00012980       _speed_controllerDec10_ChangeStepSize 10013980 f   xpctarget.obj
 0001:000129d0       _updateDiscreteEvents      100139d0 f   xpctarget.obj
 0001:000129e0       _getNumRef                 100139e0 f   appmappingData.obj
 0001:000129f0       _vprintf                   100139f0 f i legacy_stdio.obj
 0001:00013260       _sg_IO101_da_s             10014260 f   sg_IO101_da_s.obj
 0001:000137e0       _sg_IO101_setup_s          100147e0 f   sg_IO101_setup_s.obj
 0001:00013e10       _sg_IO106_ad_s             10014e10 f   sg_IO106_ad_s.obj
 0001:000143d0       _sg_IO106_setup_s          100153d0 f   sg_IO106_setup_s.obj
 0001:00014420       _sg_findPciDevice          10015420 f   sglibc_MSVC140_vc:sglibc.obj
 0001:00014620       _sg_module_get             10015620 f   sglibc_MSVC140_vc:sglibc.obj
 0001:000146e0       _sg_module_register        100156e0 f   sglibc_MSVC140_vc:sglibc.obj
 0001:000147a0       _sg_module_unregister      100157a0 f   sglibc_MSVC140_vc:sglibc.obj
 0001:00014830       _sg_wait_ns                10015830 f   sglibc_MSVC140_vc:sglibc.obj
 0001:00014890       _GetPCIDeviceFull          10015890 f   xpcruntime:xpcimports.obj
 0001:00014a00       _GetPCIDeviceFunction      10015a00 f   xpcruntime:xpcimports.obj
 0001:00014b70       _ShowPCIDevice             10015b70 f   xpcruntime:xpcimports.obj
 0001:000151a0       _slrtGetPciConfigAtFunction 100161a0 f   xpcruntime:xpcimports.obj
 0001:00015510       _xpcGetPciConfigAtSlot     10016510 f   xpcruntime:xpcimports.obj
 0001:00015530       _xpcInitProcs              10016530 f   xpcruntime:xpcimports.obj
 0001:00016a60       _xpceuploadevent           10017a60 f   xpcruntime:xpcimports.obj
 0001:00016a70       _restoreInterrupts         10017a70 f   xpcruntime:xpcPCFunctions.obj
 0001:00016a80       _rl32eGetTicksDouble       10017a80 f   xpcruntime:xpcPCFunctions.obj
 0001:00016b00       _saveAndDisableInterrupts  10017b00 f   xpcruntime:xpcPCFunctions.obj
 0001:00016b20       _xPCSubtractTime           10017b20 f   xpcruntime:xpcPCFunctions.obj
 0001:00016b50       _xpcSubtractTime           10017b50 f   xpcruntime:xpcPCFunctions.obj
 0001:00016c2a       @__security_check_cookie@4 10017c2a f   LIBCMT:_secchk_.obj
 0001:00016c40       __ftoui3                   10017c40 f   LIBCMT:_ftol3_.obj
 0001:00016c4f       __ftoul3                   10017c4f f   LIBCMT:_ftol3_.obj
 0001:00016c5e       __ftol3                    10017c5e f   LIBCMT:_ftol3_.obj
 0001:00016c6b       __ftol3_NaN                10017c6b f   LIBCMT:_ftol3_.obj
 0001:00016c83       __ftol3_work               10017c83 f   LIBCMT:_ftol3_.obj
 0001:00016d09       __ftol3_common             10017d09 f   LIBCMT:_ftol3_.obj
 0001:00016dcb       __ftol3_arg_error          10017dcb f   LIBCMT:_ftol3_.obj
 0001:00016ddd       __ftol3_except             10017ddd f   LIBCMT:_ftol3_.obj
 0001:00016e21       __dtoui3                   10017e21 f   LIBCMT:_ftol3_.obj
 0001:00016e30       __dtoul3                   10017e30 f   LIBCMT:_ftol3_.obj
 0001:00016e3f       __dtol3                    10017e3f f   LIBCMT:_ftol3_.obj
 0001:00016e4c       __dtol3_NaN                10017e4c f   LIBCMT:_ftol3_.obj
 0001:00016e69       __dtol3_work               10017e69 f   LIBCMT:_ftol3_.obj
 0001:00016f50       __ultod3                   10017f50 f   LIBCMT:_ftol3_.obj
 0001:00016f90       __ltod3                    10017f90 f   LIBCMT:_ftol3_.obj
 0001:00017094       ___raise_securityfailure   10018094 f   LIBCMT:gs_report.obj
 0001:000170c6       ___report_gsfailure        100180c6 f   LIBCMT:gs_report.obj
 0001:000171ff       ___report_rangecheckfailure 100181ff f   LIBCMT:gs_report.obj
 0001:0001720e       ___report_securityfailure  1001820e f   LIBCMT:gs_report.obj
 0001:00017312       ___report_securityfailureEx 10018312 f   LIBCMT:gs_report.obj
 0001:0001746d       ___isa_available_init      1001846d f   LIBCMT:_cpu_disp_.obj
 0001:00017a6e       __CRT_INIT@12              10018a6e f   LIBCMT:dll_dllmain.obj
 0001:00017a79       __DllMainCRTStartup@12     10018a79 f   LIBCMT:dll_dllmain.obj
 0001:00017b06       ___security_init_cookie    10018b06 f   LIBCMT:gs_support.obj
 0001:00017b63       ?__scrt_initialize_type_info@@YAXXZ 10018b63 f   LIBCMT:tncleanup.obj
 0001:00017b72       ?__scrt_uninitialize_type_info@@YAXXZ 10018b72 f   LIBCMT:tncleanup.obj
 0001:00017b81       ___local_stdio_scanf_options 10018b81 f i LIBCMT:default_local_stdio_options.obj
 0001:00017b87       ___scrt_initialize_default_local_stdio_options 10018b87 f   LIBCMT:default_local_stdio_options.obj
 0001:00017bab       ??$__crt_fast_decode_pointer@PAP6AXXZ@@YAPAP6AXXZQAP6AXXZ@Z 10018bab f i LIBCMT:utility.obj
 0001:00017bc4       ??$__crt_fast_encode_pointer@PAP6AXXZ@@YAPAP6AXXZQAP6AXXZ@Z 10018bc4 f i LIBCMT:utility.obj
 0001:00017be8       ?__crt_rotate_pointer_value@@YAIIH@Z 10018be8 f i LIBCMT:utility.obj
 0001:00017bf8       ?configure_argv@__scrt_narrow_argv_policy@@SAHXZ 10018bf8 f i LIBCMT:utility.obj
 0001:00017c5d       ?initialize_environment@__scrt_narrow_environment_policy@@SAHXZ 10018c5d f i LIBCMT:utility.obj
 0001:00017ca3       _NtCurrentTeb              10018ca3 f i LIBCMT:utility.obj
 0001:00017caa       ___scrt_acquire_startup_lock 10018caa f   LIBCMT:utility.obj
 0001:00017ce8       ___scrt_dllmain_after_initialize_c 10018ce8 f   LIBCMT:utility.obj
 0001:00017d1d       ___scrt_dllmain_before_initialize_c 10018d1d f   LIBCMT:utility.obj
 0001:00017d2e       ___scrt_dllmain_crt_thread_attach 10018d2e f   LIBCMT:utility.obj
 0001:00017d54       ___scrt_dllmain_crt_thread_detach 10018d54 f   LIBCMT:utility.obj
 0001:00017d64       ___scrt_dllmain_exception_filter 10018d64 f   LIBCMT:utility.obj
 0001:00017da5       ___scrt_dllmain_uninitialize_c 10018da5 f   LIBCMT:utility.obj
 0001:00017dd0       ___scrt_dllmain_uninitialize_critical 10018dd0 f   LIBCMT:utility.obj
 0001:00017de0       ___scrt_initialize_crt     10018de0 f   LIBCMT:utility.obj
 0001:00017e27       ___scrt_initialize_onexit_tables 10018e27 f   LIBCMT:utility.obj
 0001:00017efb       ___scrt_is_nonwritable_in_current_image 10018efb f   LIBCMT:utility.obj
 0001:00017fa7       ___scrt_release_startup_lock 10018fa7 f   LIBCMT:utility.obj
 0001:00017fcb       ___scrt_uninitialize_crt   10018fcb f   LIBCMT:utility.obj
 0001:00017ffd       __onexit                   10018ffd f   LIBCMT:utility.obj
 0001:00018046       _at_quick_exit             10019046 f   LIBCMT:utility.obj
 0001:00018083       _atexit                    10019083 f   LIBCMT:utility.obj
 0001:0001809d       ___scrt_get_dyn_tls_init_callback 1001909d f   LIBCMT:dyn_tls_init.obj
 0001:000180a3       ___scrt_fastfail           100190a3 f   LIBCMT:utility_desktop.obj
 0001:00018206       ___scrt_get_show_window_mode 10019206 f   LIBCMT:utility_desktop.obj
 0001:00018245       ___scrt_initialize_winrt   10019245 f   LIBCMT:utility_desktop.obj
 0001:00018248       ___scrt_is_managed_app     10019248 f   LIBCMT:utility_desktop.obj
 0001:0001829b       ___scrt_set_unhandled_exception_filter 1001929b f   LIBCMT:utility_desktop.obj
 0001:000182aa       ___scrt_unhandled_exception_filter@4 100192aa f   LIBCMT:utility_desktop.obj
 0001:000182fb       __crt_debugger_hook        100192fb f   LIBCMT:utility_desktop.obj
 0001:00018305       __RTC_Initialize           10019305 f   LIBCMT:_initsect_.obj
 0001:0001833c       __RTC_Terminate            1001933c f   LIBCMT:_initsect_.obj
 0001:00018380       __SEH_prolog4              10019380 f   LIBCMT:_sehprolg4_.obj
 0001:000183c6       __SEH_epilog4              100193c6 f   LIBCMT:_sehprolg4_.obj
 0001:000183f1       @_guard_check_icall_nop@4  100193f1 f i LIBCMT:guard_support.obj
 0001:000183f2       _ReadNoFence               100193f2 f i LIBCMT:guard_support.obj
 0001:000183fe       _ReadPointerNoFence        100193fe f i LIBCMT:guard_support.obj
 0001:0001840a       __guard_icall_checks_enforced 1001940a f i LIBCMT:guard_support.obj
 0001:00018420       __get_startup_argv_mode    10019420 f   LIBCMT:argv_mode.obj
 0001:00018424       ___scrt_is_ucrt_dll_in_use 10019424 f   LIBCMT:ucrt_detection.obj
 0001:00018433       _GetModuleHandleA@4        10019433 f   kernel32:KERNEL32.dll
 0001:00018439       _GetProcAddress@8          10019439 f   kernel32:KERNEL32.dll
 0001:0001843f       _UnhandledExceptionFilter@4 1001943f f   kernel32:KERNEL32.dll
 0001:00018445       _SetUnhandledExceptionFilter@4 10019445 f   kernel32:KERNEL32.dll
 0001:0001844b       _GetCurrentProcess@0       1001944b f   kernel32:KERNEL32.dll
 0001:00018451       _TerminateProcess@8        10019451 f   kernel32:KERNEL32.dll
 0001:00018457       _IsProcessorFeaturePresent@4 10019457 f   kernel32:KERNEL32.dll
 0001:0001845d       _QueryPerformanceCounter@4 1001945d f   kernel32:KERNEL32.dll
 0001:00018463       _GetCurrentProcessId@0     10019463 f   kernel32:KERNEL32.dll
 0001:00018469       _GetCurrentThreadId@0      10019469 f   kernel32:KERNEL32.dll
 0001:0001846f       _GetSystemTimeAsFileTime@4 1001946f f   kernel32:KERNEL32.dll
 0001:00018475       _InitializeSListHead@4     10019475 f   kernel32:KERNEL32.dll
 0001:0001847b       _IsDebuggerPresent@0       1001947b f   kernel32:KERNEL32.dll
 0001:00018481       _GetStartupInfoW@4         10019481 f   kernel32:KERNEL32.dll
 0001:00018487       _GetModuleHandleW@4        10019487 f   kernel32:KERNEL32.dll
 0001:00018490       _memcpy                    10019490 f   libvcruntime:memcpy.obj
 0001:00018b70       _memset                    10019b70 f   libvcruntime:memset.obj
 0001:00018d20       _strchr                    10019d20 f   libvcruntime:strchr.obj
 0001:00018d8e       ___from_strstr_to_strchr   10019d8e     libvcruntime:strchr.obj
 0001:00018ea0       _memmove                   10019ea0 f   libvcruntime:memmove.obj
 0001:000195c0       __except_handler4          1001a5c0 f   libvcruntime:_chandler4_.obj
 0001:0001977c       ??$?RD@__crt_internal_free_policy@@QBEXQBD@Z 1001a77c f i libvcruntime:std_type_info.obj
 0001:00019790       ??$?RX@__crt_internal_free_policy@@QBEXQBX@Z 1001a790 f i libvcruntime:std_type_info.obj
 0001:000197a4       ??$__crt_interlocked_compare_exchange_pointer@$$CBDPAD$$T@@YAPBDPDSBDQAD$$T@Z 1001a7a4 f i libvcruntime:std_type_info.obj
 0001:000197ba       ??$__crt_interlocked_read_pointer@$$CBD@@YAPBDPDSBD@Z 1001a7ba f i libvcruntime:std_type_info.obj
 0001:000197c6       ??0?$__crt_unique_heap_ptr@DU__crt_internal_free_policy@@@@QAE@QAD@Z 1001a7c6 f i libvcruntime:std_type_info.obj
 0001:000197d7       ??0?$__crt_unique_heap_ptr@XU__crt_internal_free_policy@@@@QAE@QAX@Z 1001a7d7 f i libvcruntime:std_type_info.obj
 0001:000197e8       ??1?$__crt_unique_heap_ptr@DU__crt_internal_free_policy@@@@QAE@XZ 1001a7e8 f i libvcruntime:std_type_info.obj
 0001:000197fc       ??1?$__crt_unique_heap_ptr@XU__crt_internal_free_policy@@@@QAE@XZ 1001a7fc f i libvcruntime:std_type_info.obj
 0001:0001981c       ??B?$__crt_unique_heap_ptr@DU__crt_internal_free_policy@@@@QBE_NXZ 1001a81c f i libvcruntime:std_type_info.obj
 0001:00019823       ??B?$__crt_unique_heap_ptr@XU__crt_internal_free_policy@@@@QBE_NXZ 1001a823 f i libvcruntime:std_type_info.obj
 0001:00019852       ?__crt_interlocked_read_32@@YAHPDH@Z 1001a852 f i libvcruntime:std_type_info.obj
 0001:0001985e       ?detach@?$__crt_unique_heap_ptr@XU__crt_internal_free_policy@@@@QAEPAXXZ 1001a85e f i libvcruntime:std_type_info.obj
 0001:00019864       ?get@?$__crt_unique_heap_ptr@DU__crt_internal_free_policy@@@@QBEPADXZ 1001a864 f i libvcruntime:std_type_info.obj
 0001:00019867       ?get@?$__crt_unique_heap_ptr@XU__crt_internal_free_policy@@@@QBEPAXXZ 1001a867 f i libvcruntime:std_type_info.obj
 0001:0001986a       ?is_valid@?$__crt_unique_heap_ptr@DU__crt_internal_free_policy@@@@QBE_NXZ 1001a86a f i libvcruntime:std_type_info.obj
 0001:00019871       ?is_valid@?$__crt_unique_heap_ptr@XU__crt_internal_free_policy@@@@QBE_NXZ 1001a871 f i libvcruntime:std_type_info.obj
 0001:00019878       ?release@?$__crt_unique_heap_ptr@DU__crt_internal_free_policy@@@@QAEXXZ 1001a878 f i libvcruntime:std_type_info.obj
 0001:0001988c       ?release@?$__crt_unique_heap_ptr@XU__crt_internal_free_policy@@@@QAEXXZ 1001a88c f i libvcruntime:std_type_info.obj
 0001:000198a0       ___std_type_info_compare   1001a8a0 f   libvcruntime:std_type_info.obj
 0001:000198eb       ___std_type_info_destroy_list 1001a8eb f   libvcruntime:std_type_info.obj
 0001:00019916       ___std_type_info_hash      1001a916 f   libvcruntime:std_type_info.obj
 0001:00019945       ___std_type_info_name      1001a945 f   libvcruntime:std_type_info.obj
 0001:00019a3b       ___vcrt_initialize         1001aa3b f   libvcruntime:initialization.obj
 0001:00019a6e       ___vcrt_thread_attach      1001aa6e f   libvcruntime:initialization.obj
 0001:00019a7b       ___vcrt_thread_detach      1001aa7b f   libvcruntime:initialization.obj
 0001:00019a88       ___vcrt_uninitialize       1001aa88 f   libvcruntime:initialization.obj
 0001:00019aae       ___vcrt_uninitialize_critical 1001aaae f   libvcruntime:initialization.obj
 0001:00019ac0       __local_unwind4            1001aac0 f   libvcruntime:_exsup4_.obj
 0001:00019b98       __seh_longjmp_unwind4@4    1001ab98 f   libvcruntime:_exsup4_.obj
 0001:00019bc0       @_EH4_CallFilterFunc@8     1001abc0 f   libvcruntime:_exsup4_.obj
 0001:00019bd8       @_EH4_TransferToHandler@8  1001abd8 f   libvcruntime:_exsup4_.obj
 0001:00019bf4       @_EH4_GlobalUnwind2@8      1001abf4 f   libvcruntime:_exsup4_.obj
 0001:00019c10       @_EH4_LocalUnwind@16       1001ac10 f   libvcruntime:_exsup4_.obj
 0001:00019c8d       ___except_validate_context_record 1001ac8d f   libvcruntime:jbcxrval.obj
 0001:00019cc9       ___except_validate_jump_buffer 1001acc9 f   libvcruntime:jbcxrval.obj
 0001:00019d01       ___except_validate_jump_buffer_common 1001ad01 f i libvcruntime:jbcxrval.obj
 0001:00019d48       ??0Block@_HeapManager@@QAE@XZ 1001ad48 f i libvcruntime:undname.obj
 0001:00019d4e       ??0DName@@QAE@AAPBDD@Z     1001ad4e f   libvcruntime:undname.obj
 0001:00019e2c       ??0DName@@QAE@ABV0@@Z      1001ae2c f i libvcruntime:undname.obj
 0001:00019e47       ??0DName@@QAE@D@Z          1001ae47 f   libvcruntime:undname.obj
 0001:00019e75       ??0DName@@QAE@PAV0@@Z      1001ae75 f   libvcruntime:undname.obj
 0001:00019ecf       ??0DName@@QAE@PBD@Z        1001aecf f   libvcruntime:undname.obj
 0001:00019f0e       ??0DName@@QAE@W4DNameStatus@@@Z 1001af0e f   libvcruntime:undname.obj
 0001:00019f4b       ??0DName@@QAE@XZ           1001af4b f i libvcruntime:undname.obj
 0001:00019f57       ??0DName@@QAE@_J@Z         1001af57 f   libvcruntime:undname.obj
 0001:0001a008       ??0DName@@QAE@_K@Z         1001b008 f   libvcruntime:undname.obj
 0001:0001a08a       ??0DNameNode@@IAE@XZ       1001b08a f i libvcruntime:undname.obj
 0001:0001a095       ??0Replicator@@QAE@XZ      1001b095 f i libvcruntime:undname.obj
 0001:0001a0a6       ??0UnDecorator@@QAE@PBDP6APADJ@ZK@Z 1001b0a6 f i libvcruntime:undname.obj
 0001:0001a105       ??0charNode@@QAE@D@Z       1001b105 f i libvcruntime:undname.obj
 0001:0001a11f       ??0pDNameNode@@QAE@PAVDName@@@Z 1001b11f f   libvcruntime:undname.obj
 0001:0001a151       ??0pairNode@@QAE@PBVDNameNode@@0@Z 1001b151 f i libvcruntime:undname.obj
 0001:0001a177       ??0pcharNode@@QAE@PBDH@Z   1001b177 f   libvcruntime:undname.obj
 0001:0001a1ed       ??2@YAPAXIAAV_HeapManager@@H@Z 1001b1ed f i libvcruntime:undname.obj
 0001:0001a207       ??4DName@@QAEAAV0@ABV0@@Z  1001b207 f   libvcruntime:undname.obj
 0001:0001a222       ??4DName@@QAEAAV0@D@Z      1001b222 f i libvcruntime:undname.obj
 0001:0001a250       ??4DName@@QAEAAV0@PAV0@@Z  1001b250 f   libvcruntime:undname.obj
 0001:0001a2a2       ??4DName@@QAEAAV0@PBD@Z    1001b2a2 f   libvcruntime:undname.obj
 0001:0001a2d7       ??4DName@@QAEAAV0@W4DNameStatus@@@Z 1001b2d7 f   libvcruntime:undname.obj
 0001:0001a300       ??AReplicator@@QBE?AVDName@@H@Z 1001b300 f   libvcruntime:undname.obj
 0001:0001a34b       ??H@YA?AVDName@@DABV0@@Z   1001b34b f i libvcruntime:undname.obj
 0001:0001a378       ??H@YA?AVDName@@PBDABV0@@Z 1001b378 f i libvcruntime:undname.obj
 0001:0001a3a5       ??H@YA?AVDName@@W4DNameStatus@@ABV0@@Z 1001b3a5 f i libvcruntime:undname.obj
 0001:0001a3d2       ??HDName@@QBE?AV0@ABV0@@Z  1001b3d2 f   libvcruntime:undname.obj
 0001:0001a3fc       ??HDName@@QBE?AV0@D@Z      1001b3fc f   libvcruntime:undname.obj
 0001:0001a426       ??HDName@@QBE?AV0@PAV0@@Z  1001b426 f   libvcruntime:undname.obj
 0001:0001a450       ??HDName@@QBE?AV0@PBD@Z    1001b450 f   libvcruntime:undname.obj
 0001:0001a47a       ??HDName@@QBE?AV0@W4DNameStatus@@@Z 1001b47a f   libvcruntime:undname.obj
 0001:0001a4a4       ??YDName@@QAEAAV0@ABV0@@Z  1001b4a4 f   libvcruntime:undname.obj
 0001:0001a4f5       ??YDName@@QAEAAV0@D@Z      1001b4f5 f   libvcruntime:undname.obj
 0001:0001a559       ??YDName@@QAEAAV0@PAV0@@Z  1001b559 f   libvcruntime:undname.obj
 0001:0001a5d7       ??YDName@@QAEAAV0@PBD@Z    1001b5d7 f   libvcruntime:undname.obj
 0001:0001a650       ??YDName@@QAEAAV0@W4DNameStatus@@@Z 1001b650 f   libvcruntime:undname.obj
 0001:0001a6ad       ??YReplicator@@QAEAAV0@ABVDName@@@Z 1001b6ad f   libvcruntime:undname.obj
 0001:0001a709       ??_5DName@@QAEAAV0@ABV0@@Z 1001b709 f   libvcruntime:undname.obj
 0001:0001a72c       ?Constructor@_HeapManager@@QAEXP6APAXI@ZP6AXPAX@Z@Z 1001b72c f i libvcruntime:undname.obj
 0001:0001a750       ?Destructor@_HeapManager@@QAEXXZ 1001b750 f i libvcruntime:undname.obj
 0001:0001a796       ?UScore@UnDecorator@@SAPBDW4Tokens@@@Z 1001b796 f   libvcruntime:undname.obj
 0001:0001a7ba       ?append@DName@@AAEXPBVDNameNode@@@Z 1001b7ba f   libvcruntime:undname.obj
 0001:0001a811       ?composeDeclaration@UnDecorator@@CA?AVDName@@ABV2@@Z 1001b811 f i libvcruntime:undname.obj
 0001:0001b8b1       ?doAccessSpecifiers@UnDecorator@@SAHXZ 1001c8b1 f i libvcruntime:undname.obj
 0001:0001b8c2       ?doAllocationLanguage@UnDecorator@@SAHXZ 1001c8c2 f i libvcruntime:undname.obj
 0001:0001b8d3       ?doAllocationModel@UnDecorator@@SAHXZ 1001c8d3 f i libvcruntime:undname.obj
 0001:0001b8e4       ?doEcsu@UnDecorator@@SAHXZ 1001c8e4 f i libvcruntime:undname.obj
 0001:0001b8f5       ?doEllipsis@UnDecorator@@SAHXZ 1001c8f5 f i libvcruntime:undname.obj
 0001:0001b906       ?doFunctionReturns@UnDecorator@@SAHXZ 1001c906 f i libvcruntime:undname.obj
 0001:0001b917       ?doMSKeywords@UnDecorator@@SAHXZ 1001c917 f i libvcruntime:undname.obj
 0001:0001b927       ?doMemberTypes@UnDecorator@@SAHXZ 1001c927 f i libvcruntime:undname.obj
 0001:0001b938       ?doNameOnly@UnDecorator@@SAHXZ 1001c938 f i libvcruntime:undname.obj
 0001:0001b945       ?doNoIdentCharCheck@UnDecorator@@SAHXZ 1001c945 f i libvcruntime:undname.obj
 0001:0001b952       ?doPchar@DName@@AAEXPBDH@Z 1001c952 f   libvcruntime:undname.obj
 0001:0001b9f9       ?doPtr64@UnDecorator@@SAHXZ 1001c9f9 f i libvcruntime:undname.obj
 0001:0001ba0a       ?doRestrictionSpec@UnDecorator@@SAHXZ 1001ca0a f i libvcruntime:undname.obj
 0001:0001ba1b       ?doThisTypes@UnDecorator@@SAHXZ 1001ca1b f i libvcruntime:undname.obj
 0001:0001ba31       ?doThrowTypes@UnDecorator@@SAHXZ 1001ca31 f i libvcruntime:undname.obj
 0001:0001ba42       ?doTypeOnly@UnDecorator@@SAHXZ 1001ca42 f i libvcruntime:undname.obj
 0001:0001ba4f       ?doUnderScore@UnDecorator@@SAHXZ 1001ca4f f i libvcruntime:undname.obj
 0001:0001ba5c       ?getArgumentList@UnDecorator@@CA?AVDName@@XZ 1001ca5c f   libvcruntime:undname.obj
 0001:0001bb92       ?getArgumentTypes@UnDecorator@@CA?AVDName@@XZ 1001cb92 f   libvcruntime:undname.obj
 0001:0001bc8c       ?getArrayType@UnDecorator@@CA?AVDName@@ABV2@@Z 1001cc8c f i libvcruntime:undname.obj
 0001:0001befe       ?getBasedType@UnDecorator@@CA?AVDName@@XZ 1001cefe f   libvcruntime:undname.obj
 0001:0001bfcb       ?getBasicDataType@UnDecorator@@CA?AVDName@@ABV2@@Z 1001cfcb f   libvcruntime:undname.obj
 0001:0001c488       ?getCHPEName@UnDecorator@@QAEPADPADH@Z 1001d488 f i libvcruntime:undname.obj
 0001:0001c5a1       ?getCallIndex@UnDecorator@@CA?AVDName@@XZ 1001d5a1 f i libvcruntime:undname.obj
 0001:0001c5ba       ?getCallingConvention@UnDecorator@@CA?AVDName@@XZ 1001d5ba f   libvcruntime:undname.obj
 0001:0001c6de       ?getDataIndirectType@UnDecorator@@CA?AVDName@@ABV2@PBD0H@Z 1001d6de f   libvcruntime:undname.obj
 0001:0001ceb0       ?getDataIndirectType@UnDecorator@@CA?AVDName@@XZ 1001deb0 f i libvcruntime:undname.obj
 0001:0001cef1       ?getDataType@UnDecorator@@CA?AVDName@@PAV2@@Z 1001def1 f   libvcruntime:undname.obj
 0001:0001cff2       ?getDecoratedName@UnDecorator@@CA?AVDName@@XZ 1001dff2 f   libvcruntime:undname.obj
 0001:0001d2e2       ?getDimension@UnDecorator@@CA?AVDName@@_N@Z 1001e2e2 f   libvcruntime:undname.obj
 0001:0001d433       ?getDispatchTarget@UnDecorator@@CA?AVDName@@XZ 1001e433 f   libvcruntime:undname.obj
 0001:0001d49a       ?getDisplacement@UnDecorator@@CA?AVDName@@XZ 1001e49a f i libvcruntime:undname.obj
 0001:0001d4b3       ?getECSUDataType@UnDecorator@@CA?AVDName@@XZ 1001e4b3 f   libvcruntime:undname.obj
 0001:0001d60d       ?getECSUName@UnDecorator@@CA?AVDName@@XZ 1001e60d f i libvcruntime:undname.obj
 0001:0001d622       ?getEnumType@UnDecorator@@CA?AVDName@@XZ 1001e622 f i libvcruntime:undname.obj
 0001:0001d744       ?getExtendedDataIndirectType@UnDecorator@@CA?AVDName@@AAPBDAA_NH@Z 1001e744 f   libvcruntime:undname.obj
 0001:0001d968       ?getExternalDataType@UnDecorator@@CA?AVDName@@ABV2@@Z 1001e968 f i libvcruntime:undname.obj
 0001:0001d9f6       ?getFunctionIndirectType@UnDecorator@@CA?AVDName@@ABV2@@Z 1001e9f6 f   libvcruntime:undname.obj
 0001:0001dee0       ?getGuardNumber@UnDecorator@@CA?AVDName@@XZ 1001eee0 f i libvcruntime:undname.obj
 0001:0001def9       ?getLastChar@DName@@QBEDXZ 1001eef9 f i libvcruntime:undname.obj
 0001:0001df21       ?getLastChar@DNameStatusNode@@UBEDXZ 1001ef21 f i libvcruntime:undname.obj
 0001:0001df30       ?getLastChar@charNode@@UBEDXZ 1001ef30 f i libvcruntime:undname.obj
 0001:0001df34       ?getLastChar@pDNameNode@@UBEDXZ 1001ef34 f i libvcruntime:undname.obj
 0001:0001df64       ?getLastChar@pairNode@@UBEDXZ 1001ef64 f i libvcruntime:undname.obj
 0001:0001dfa6       ?getLastChar@pcharNode@@UBEDXZ 1001efa6 f i libvcruntime:undname.obj
 0001:0001dfbc       ?getLexicalFrame@UnDecorator@@CA?AVDName@@XZ 1001efbc f i libvcruntime:undname.obj
 0001:0001e008       ?getMemory@_HeapManager@@QAEPAXIH@Z 1001f008 f   libvcruntime:undname.obj
 0001:0001e0b0       ?getNoexcept@UnDecorator@@CA?AVDName@@XZ 1001f0b0 f   libvcruntime:undname.obj
 0001:0001e106       ?getNumberOfDimensions@UnDecorator@@CAHXZ 1001f106 f   libvcruntime:undname.obj
 0001:0001e17f       ?getOperatorName@UnDecorator@@CA?AVDName@@_NPA_N@Z 1001f17f f i libvcruntime:undname.obj
 0001:0001e963       ?getPointerType@UnDecorator@@CA?AVDName@@ABV2@0@Z 1001f963 f i libvcruntime:undname.obj
 0001:0001e988       ?getPointerTypeArray@UnDecorator@@CA?AVDName@@ABV2@0@Z 1001f988 f i libvcruntime:undname.obj
 0001:0001e9ad       ?getPrimaryDataType@UnDecorator@@CA?AVDName@@ABV2@@Z 1001f9ad f   libvcruntime:undname.obj
 0001:0001ec07       ?getPtrRefDataType@UnDecorator@@CA?AVDName@@ABV2@H@Z 1001fc07 f   libvcruntime:undname.obj
 0001:0001ed86       ?getPtrRefType@UnDecorator@@CA?AVDName@@ABV2@0PBD@Z 1001fd86 f   libvcruntime:undname.obj
 0001:0001eec1       ?getReferenceType@UnDecorator@@CA?AVDName@@ABV2@0PBD@Z 1001fec1 f i libvcruntime:undname.obj
 0001:0001eee4       ?getRestrictionSpec@UnDecorator@@CA?AVDName@@XZ 1001fee4 f   libvcruntime:undname.obj
 0001:0001f02c       ?getReturnType@UnDecorator@@CA?AVDName@@PAV2@@Z 1002002c f   libvcruntime:undname.obj
 0001:0001f066       ?getScope@UnDecorator@@CA?AVDName@@XZ 10020066 f   libvcruntime:undname.obj
 0001:0001f504       ?getScopedName@UnDecorator@@CA?AVDName@@XZ 10020504 f   libvcruntime:undname.obj
 0001:0001f617       ?getSignedDimension@UnDecorator@@CA?AVDName@@XZ 10020617 f   libvcruntime:undname.obj
 0001:0001f67e       ?getStorageConvention@UnDecorator@@CA?AVDName@@XZ 1002067e f i libvcruntime:undname.obj
 0001:0001f693       ?getString@DName@@QBEPADPAD0@Z 10020693 f i libvcruntime:undname.obj
 0001:0001f6cb       ?getString@DName@@QBEPADPADH@Z 100206cb f i libvcruntime:undname.obj
 0001:0001f746       ?getString@DNameStatusNode@@UBEPADPAD0@Z 10020746 f i libvcruntime:undname.obj
 0001:0001f776       ?getString@charNode@@UBEPADPAD0@Z 10020776 f i libvcruntime:undname.obj
 0001:0001f790       ?getString@pDNameNode@@UBEPADPAD0@Z 10020790 f i libvcruntime:undname.obj
 0001:0001f7ac       ?getString@pairNode@@UBEPADPAD0@Z 100207ac f i libvcruntime:undname.obj
 0001:0001f803       ?getString@pcharNode@@UBEPADPAD0@Z 10020803 f i libvcruntime:undname.obj
 0001:0001f824       ?getStringEncoding@UnDecorator@@CA?AVDName@@PBDH@Z 10020824 f   libvcruntime:undname.obj
 0001:0001f8f3       ?getStringHelper@@YAPADPADPBD1H@Z 100208f3 f i libvcruntime:undname.obj
 0001:0001f937       ?getSymbolName@UnDecorator@@CA?AVDName@@XZ 10020937 f i libvcruntime:undname.obj
 0001:0001f991       ?getTemplateArgumentList@UnDecorator@@CA?AVDName@@XZ 10020991 f   libvcruntime:undname.obj
 0001:0001fcf5       ?getTemplateConstant@UnDecorator@@CA?AVDName@@XZ 10020cf5 f   libvcruntime:undname.obj
 0001:00020102       ?getTemplateName@UnDecorator@@CA?AVDName@@_N@Z 10021102 f   libvcruntime:undname.obj
 0001:000202d6       ?getThisType@UnDecorator@@CA?AVDName@@XZ 100212d6 f i libvcruntime:undname.obj
 0001:00020318       ?getThrowTypes@UnDecorator@@CA?AVDName@@XZ 10021318 f   libvcruntime:undname.obj
 0001:00020343       ?getTypeEncoding@UnDecorator@@CAHXZ 10021343 f i libvcruntime:undname.obj
 0001:0002070d       ?getUndecoratedName@UnDecorator@@QAEPADPADH@Z 1002170d f i libvcruntime:undname.obj
 0001:0002081c       ?getVCallThunkType@UnDecorator@@CA?AVDName@@XZ 1002181c f i libvcruntime:undname.obj
 0001:00020865       ?getVbTableType@UnDecorator@@CA?AVDName@@ABV2@@Z 10021865 f i libvcruntime:undname.obj
 0001:0002087f       ?getVdispMapType@UnDecorator@@CA?AVDName@@ABV2@@Z 1002187f f i libvcruntime:undname.obj
 0001:000208ea       ?getVfTableType@UnDecorator@@CA?AVDName@@ABV2@@Z 100218ea f i libvcruntime:undname.obj
 0001:00020ac7       ?getZName@UnDecorator@@CA?AVDName@@_N0@Z 10021ac7 f   libvcruntime:undname.obj
 0001:00020d57       ?haveTemplateParameters@UnDecorator@@SAHXZ 10021d57 f i libvcruntime:undname.obj
 0001:00020d64       ?isArray@DName@@QBEHXZ     10021d64 f i libvcruntime:undname.obj
 0001:00020d70       ?isComArray@DName@@QBEHXZ  10021d70 f i libvcruntime:undname.obj
 0001:00020d7c       ?isEmpty@DName@@QBEHXZ     10021d7c f i libvcruntime:undname.obj
 0001:00020d86       ?isFull@Replicator@@QBEHXZ 10021d86 f i libvcruntime:undname.obj
 0001:00020d91       ?isNoTE@DName@@QBEHXZ      10021d91 f i libvcruntime:undname.obj
 0001:00020d9d       ?isPinPtr@DName@@QBEHXZ    10021d9d f i libvcruntime:undname.obj
 0001:00020da9       ?isPtrRef@DName@@QBEHXZ    10021da9 f i libvcruntime:undname.obj
 0001:00020db5       ?isUDC@DName@@QBEHXZ       10021db5 f i libvcruntime:undname.obj
 0001:00020dca       ?isUDTThunk@DName@@QBEHXZ  10021dca f i libvcruntime:undname.obj
 0001:00020ddf       ?isVCallThunk@DName@@QBEHXZ 10021ddf f i libvcruntime:undname.obj
 0001:00020deb       ?isValid@DName@@QBEHXZ     10021deb f i libvcruntime:undname.obj
 0001:00020df7       ?length@DName@@QBEHXZ      10021df7 f i libvcruntime:undname.obj
 0001:00020e1d       ?length@DNameStatusNode@@UBEHXZ 10021e1d f i libvcruntime:undname.obj
 0001:00020e21       ?length@charNode@@UBEHXZ   10021e21 f i libvcruntime:undname.obj
 0001:00020e25       ?length@pDNameNode@@UBEHXZ 10021e25 f i libvcruntime:undname.obj
 0001:00020e54       ?length@pairNode@@UBEHXZ   10021e54 f i libvcruntime:undname.obj
 0001:00020eae       ?length@pcharNode@@UBEHXZ  10021eae f i libvcruntime:undname.obj
 0001:00020eb2       ?make@DNameStatusNode@@SAPBV1@W4DNameStatus@@@Z 10021eb2 f i libvcruntime:undname.obj
 0001:00020ed5       ?parseDecoratedName@UnDecorator@@CA?AVDName@@XZ 10021ed5 f   libvcruntime:undname.obj
 0001:00020ff8       ?setIsArray@DName@@QAEXXZ  10021ff8 f i libvcruntime:undname.obj
 0001:00021002       ?setIsComArray@DName@@QAEXXZ 10022002 f i libvcruntime:undname.obj
 0001:0002100c       ?setIsNoTE@DName@@QAEXXZ   1002200c f i libvcruntime:undname.obj
 0001:00021016       ?setIsPinPtr@DName@@QAEXXZ 10022016 f i libvcruntime:undname.obj
 0001:00021020       ?setIsUDC@DName@@QAEXXZ    10022020 f i libvcruntime:undname.obj
 0001:00021030       ?setIsVCallThunk@DName@@QAEXXZ 10022030 f i libvcruntime:undname.obj
 0001:0002103a       ?setPtrRef@DName@@QAEAAV1@XZ 1002203a f i libvcruntime:undname.obj
 0001:00021046       ?status@DName@@QBE?AW4DNameStatus@@XZ 10022046 f i libvcruntime:undname.obj
 0001:000210cb       ___unDName                 100220cb f   libvcruntime:undname.obj
 0001:000210f6       ___unDNameEx               100220f6 f   libvcruntime:undname.obj
 0001:000211b0       __vsprintf_s_l             100221b0 f i libvcruntime:undname.obj
 0001:000211e8       _sprintf_s                 100221e8 f i libvcruntime:undname.obj
 0001:0002120b       _unDNameGenerateCHPE       1002220b f   libvcruntime:undname.obj
 0001:0002127e       ??$?RU__vcrt_ptd@@@__crt_internal_free_policy@@QBEXQBU__vcrt_ptd@@@Z 1002227e f i libvcruntime:per_thread_data.obj
 0001:00021292       ??0?$__crt_unique_heap_ptr@U__vcrt_ptd@@U__crt_internal_free_policy@@@@QAE@QAU__vcrt_ptd@@@Z 10022292 f i libvcruntime:per_thread_data.obj
 0001:000212b5       ??1?$__crt_unique_heap_ptr@U__vcrt_ptd@@U__crt_internal_free_policy@@@@QAE@XZ 100222b5 f i libvcruntime:per_thread_data.obj
 0001:000212d4       ??B?$__crt_unique_heap_ptr@U__vcrt_ptd@@U__crt_internal_free_policy@@@@QBE_NXZ 100222d4 f i libvcruntime:per_thread_data.obj
 0001:000212db       ?detach@?$__crt_unique_heap_ptr@U__vcrt_ptd@@U__crt_internal_free_policy@@@@QAEPAU__vcrt_ptd@@XZ 100222db f i libvcruntime:per_thread_data.obj
 0001:000212e1       ?get@?$__crt_unique_heap_ptr@U__vcrt_ptd@@U__crt_internal_free_policy@@@@QBEPAU__vcrt_ptd@@XZ 100222e1 f i libvcruntime:per_thread_data.obj
 0001:000212e4       ?is_valid@?$__crt_unique_heap_ptr@U__vcrt_ptd@@U__crt_internal_free_policy@@@@QBE_NXZ 100222e4 f i libvcruntime:per_thread_data.obj
 0001:000212eb       ?release@?$__crt_unique_heap_ptr@U__vcrt_ptd@@U__crt_internal_free_policy@@@@QAEXXZ 100222eb f i libvcruntime:per_thread_data.obj
 0001:0002131f       ___vcrt_freefls@4          1002231f f   libvcruntime:per_thread_data.obj
 0001:00021342       ___vcrt_freeptd            10022342 f   libvcruntime:per_thread_data.obj
 0001:00021395       ___vcrt_getptd             10022395 f   libvcruntime:per_thread_data.obj
 0001:000213a6       ___vcrt_getptd_noexit      100223a6 f   libvcruntime:per_thread_data.obj
 0001:0002145c       ___vcrt_getptd_noinit      1002245c f   libvcruntime:per_thread_data.obj
 0001:000214a0       ___vcrt_initialize_ptd     100224a0 f   libvcruntime:per_thread_data.obj
 0001:000214f5       ___vcrt_uninitialize_ptd   100224f5 f   libvcruntime:per_thread_data.obj
 0001:00021516       ___vcrt_initialize_locks   10022516 f   libvcruntime:locks.obj
 0001:00021561       ___vcrt_lock               10022561 f   libvcruntime:locks.obj
 0001:0002157b       ___vcrt_uninitialize_locks 1002257b f   libvcruntime:locks.obj
 0001:000215b5       ___vcrt_unlock             100225b5 f   libvcruntime:locks.obj
 0001:000215cf       ??$?BX@__crt_fast_encoded_nullptr_t@@QBEPAXXZ 100225cf f i libvcruntime:winapi_downlevel.obj
 0001:000215d5       ??$__crt_fast_decode_pointer@PAX@@YAPAXQAX@Z 100225d5 f i libvcruntime:winapi_downlevel.obj
 0001:000215ee       ??$__crt_fast_encode_pointer@PAX@@YAPAXQAX@Z 100225ee f i libvcruntime:winapi_downlevel.obj
 0001:00021612       ??$__crt_interlocked_exchange_pointer@UHINSTANCE__@@PAU1@@@YAPAUHINSTANCE__@@PDSAU0@QAU0@@Z 10022612 f i libvcruntime:winapi_downlevel.obj
 0001:00021622       ??$__crt_interlocked_exchange_pointer@UHINSTANCE__@@PAX@@YAPAUHINSTANCE__@@PDSAU0@QAX@Z 10022622 f i libvcruntime:winapi_downlevel.obj
 0001:00021632       ??$__crt_interlocked_exchange_pointer@XPAX@@YAPAXPDSAXQAX@Z 10022632 f i libvcruntime:winapi_downlevel.obj
 0001:00021642       ??$__crt_interlocked_read_pointer@UHINSTANCE__@@@@YAPAUHINSTANCE__@@PDSAU0@@Z 10022642 f i libvcruntime:winapi_downlevel.obj
 0001:0002164e       ??$__crt_interlocked_read_pointer@X@@YAPAXPDSAX@Z 1002264e f i libvcruntime:winapi_downlevel.obj
 0001:0002165a       ?__crt_fast_encode_pointer@@YA?AU__crt_fast_encoded_nullptr_t@@$$T@Z 1002265a f i libvcruntime:winapi_downlevel.obj
 0001:00021991       ___vcrt_FlsAlloc           10022991 f   libvcruntime:winapi_downlevel.obj
 0001:000219da       ___vcrt_FlsFree            100229da f   libvcruntime:winapi_downlevel.obj
 0001:00021a23       ___vcrt_FlsGetValue        10022a23 f   libvcruntime:winapi_downlevel.obj
 0001:00021a6c       ___vcrt_FlsSetValue        10022a6c f   libvcruntime:winapi_downlevel.obj
 0001:00021ab9       ___vcrt_InitializeCriticalSectionEx 10022ab9 f   libvcruntime:winapi_downlevel.obj
 0001:00021b11       ___vcrt_initialize_winapi_thunks 10022b11 f   libvcruntime:winapi_downlevel.obj
 0001:00021b44       ___vcrt_uninitialize_winapi_thunks 10022b44 f   libvcruntime:winapi_downlevel.obj
 0001:00021b82       ??$?B$$A6AXXZ@__crt_fast_encoded_nullptr_t@@QBEP6AXXZXZ 10022b82 f i libvcruntime:purevirt_data.obj
 0001:00021b88       ??$__crt_fast_encode_pointer@P6AXXZ@@YAP6AXXZQ6AXXZ@Z 10022b88 f i libvcruntime:purevirt_data.obj
 0001:00021bac       ___vcrt_initialize_pure_virtual_call_handler 10022bac f   libvcruntime:purevirt_data.obj
 0001:00021bc0       __global_unwind2           10022bc0 f   libvcruntime:_exsup_.obj
 0001:00021c26       __local_unwind2            10022c26 f   libvcruntime:_exsup_.obj
 0001:00021caa       __abnormal_termination     10022caa f   libvcruntime:_exsup_.obj
 0001:00021cd0       __NLG_Notify1              10022cd0 f   libvcruntime:_exsup_.obj
 0001:00021cdc       __NLG_Notify               10022cdc f   libvcruntime:_exsup_.obj
 0001:00021cf3       __NLG_Dispatch             10022cf3     libvcruntime:_exsup_.obj
 0001:00021cf3       __NLG_Dispatch2            10022cf3     libvcruntime:_exsup_.obj
 0001:00021cfb       __NLG_Call                 10022cfb f   libvcruntime:_exsup_.obj
 0001:00021cfd       __NLG_Return2              10022cfd     libvcruntime:_exsup_.obj
 0001:00021d4d       ??$__crt_fast_decode_pointer@P6AXXZ@@YAP6AXXZQ6AXXZ@Z 10022d4d f i libvcruntime:purevirt.obj
 0001:00021d66       ??$__crt_interlocked_exchange_pointer@$$A6AXXZP6AXXZ@@YAP6AXXZPDS6AXXZQ6AXXZ@Z 10022d66 f i libvcruntime:purevirt.obj
 0001:00021d76       ??$__crt_interlocked_read_pointer@$$A6AXXZ@@YAP6AXXZPDS6AXXZ@Z 10022d76 f i libvcruntime:purevirt.obj
 0001:00021d82       __get_purecall_handler     10022d82 f   libvcruntime:purevirt.obj
 0001:00021d9c       __purecall                 10022d9c f   libvcruntime:purevirt.obj
 0001:00021dcf       __set_purecall_handler     10022dcf f   libvcruntime:purevirt.obj
 0001:00021dfd       ?_CallCatchBlock2@@YAPAXPAUEHRegistrationNode@@PBU_s_FuncInfo@@PAXHK@Z 10022dfd f   libvcruntime:trnsctrl.obj
 0001:00021e75       ?_CallSETranslator@@YAHPAUEHExceptionRecord@@PAUEHRegistrationNode@@PAX2PBU_s_FuncInfo@@H1@Z 10022e75 f   libvcruntime:trnsctrl.obj
 0001:00021f89       ?_GetRangeOfTrysToCheck@@YAPBU_s_TryBlockMapEntry@@PBU_s_FuncInfo@@HHPAI1@Z 10022f89 f   libvcruntime:trnsctrl.obj
 0001:0002201f       ?_JumpToContinuation@@YGXPAXPAUEHRegistrationNode@@@Z 1002301f f   libvcruntime:trnsctrl.obj
 0001:0002205d       ?_UnwindNestedFrames@@YGXPAUEHRegistrationNode@@PAUEHExceptionRecord@@@Z 1002305d f   libvcruntime:trnsctrl.obj
 0001:000220c7       __CatchGuardHandler        100230c7 f   libvcruntime:trnsctrl.obj
 0001:00022104       __CreateFrameInfo          10023104 f   libvcruntime:trnsctrl.obj
 0001:00022131       __FindAndUnlinkFrame       10023131 f   libvcruntime:trnsctrl.obj
 0001:00022187       __TranslatorGuardHandler   10023187 f   libvcruntime:trnsctrl.obj
 0001:0002224d       ___CxxFrameHandler         1002324d f   libvcruntime:trnsctrl.obj
 0001:00022290       ___CxxFrameHandler2        10023290 f   libvcruntime:trnsctrl.obj
 0001:000222d3       ___CxxFrameHandler3        100232d3 f   libvcruntime:trnsctrl.obj
 0001:00022316       ___CxxLongjmpUnwind@4      10023316 f   libvcruntime:trnsctrl.obj
 0001:00022350       __CallSettingFrame@12      10023350 f   libvcruntime:lowhelpr.obj
 0001:00022377       __NLG_Return               10023377     libvcruntime:lowhelpr.obj
 0001:000223af       ??0bad_exception@std@@QAE@ABV01@@Z 100233af f i libvcruntime:frame.obj
 0001:000223d0       ??0bad_exception@std@@QAE@XZ 100233d0 f i libvcruntime:frame.obj
 0001:000223ee       ??0exception@std@@QAE@ABV01@@Z 100233ee f i libvcruntime:frame.obj
 0001:00022425       ??0exception@std@@QAE@QBDH@Z 10023425 f i libvcruntime:frame.obj
 0001:00022449       ??1bad_exception@std@@UAE@XZ 10023449 f i libvcruntime:frame.obj
 0001:0002245e       ??1exception@std@@UAE@XZ   1002345e f i libvcruntime:frame.obj
 0001:00022473       ??8type_info@@QBE_NABV0@@Z 10023473 f i libvcruntime:frame.obj
 0001:00022499       ??_Gbad_exception@std@@UAEPAXI@Z 10023499 f i libvcruntime:frame.obj
 0001:00022499       ??_Ebad_exception@std@@UAEPAXI@Z 10023499 f i libvcruntime:frame.obj
 0001:000224d1       ??_Eexception@std@@UAEPAXI@Z 100234d1 f i libvcruntime:frame.obj
 0001:000224d1       ??_Gexception@std@@UAEPAXI@Z 100234d1 f i libvcruntime:frame.obj
 0001:00022f3b       ?_CallMemberFunction1@@YGXQAX00@Z 10023f3b f i libvcruntime:frame.obj
 0001:00022f4f       ?_CallMemberFunction2@@YGXQAX00H@Z 10023f4f f i libvcruntime:frame.obj
 0001:00022f66       ?_ValidateExecute@@YA_NP6GHXZ@Z 10023f66 f i libvcruntime:frame.obj
 0001:00022f75       ?_ValidateRead@@YA_NPBXI@Z 10023f75 f i libvcruntime:frame.obj
 0001:00022f84       ?_ValidateWrite@@YA_NPAXI@Z 10023f84 f i libvcruntime:frame.obj
 0001:00022f93       ?what@exception@std@@UBEPBDXZ 10023f93 f i libvcruntime:frame.obj
 0001:00022fa3       ___BuildCatchObject        10023fa3 f   libvcruntime:frame.obj
 0001:00023055       ___BuildCatchObjectHelper  10024055 f   libvcruntime:frame.obj
 0001:000231d6       ___FrameUnwindToState      100241d6 f   libvcruntime:frame.obj
 0001:000232d6       ___InternalCxxFrameHandler 100242d6 f   libvcruntime:frame.obj
 0001:00023412       ___TypeMatch               10024412 f   libvcruntime:frame.obj
 0001:000234c3       ___vcrt_EncodePointer      100244c3 f i libvcruntime:frame.obj
 0001:000234ed       __get_unexpected           100244ed f   libvcruntime:unexpected.obj
 0001:00023503       _set_unexpected            10024503 f   libvcruntime:unexpected.obj
 0001:00023528       _unexpected                10024528 f   libvcruntime:unexpected.obj
 0001:0002354c       ___DestructExceptionObject 1002454c f   libvcruntime:ehhelpers.obj
 0001:00023607       ?_CallMemberFunction0@@YGXQAX0@Z 10024607 f i libvcruntime:ehhelpers.obj
 0001:00023617       ?raw_name@type_info@@QBEPBDXZ 10024617 f i libvcruntime:ehhelpers.obj
 0001:0002361b       __IsExceptionObjectToBeDestroyed 1002461b f   libvcruntime:ehhelpers.obj
 0001:0002364a       __SetWinRTOutOfMemoryExceptionCallback 1002464a f   libvcruntime:ehhelpers.obj
 0001:0002365a       ___AdjustPointer           1002465a f   libvcruntime:ehhelpers.obj
 0001:00023688       ___FrameUnwindFilter       10024688 f   libvcruntime:ehhelpers.obj
 0001:000236de       ___GetPlatformExceptionInfo 100246de f   libvcruntime:ehhelpers.obj
 0001:0002373f       ___current_exception       1002473f f   libvcruntime:ehhelpers.obj
 0001:0002374a       ___current_exception_context 1002474a f   libvcruntime:ehhelpers.obj
 0001:00023755       ___processing_throw        10024755 f   libvcruntime:ehhelpers.obj
 0001:00023760       ___std_terminate           10024760 f   libvcruntime:ehhelpers.obj
 0001:00023765       __is_exception_typeof      10024765 f   libvcruntime:ehhelpers.obj
 0001:00023832       ??$?RD@__crt_public_free_policy@@QBEXQBD@Z 10024832 f i libvcruntime:std_exception.obj
 0001:00023846       ??0?$__crt_unique_heap_ptr@DU__crt_public_free_policy@@@@QAE@QAD@Z 10024846 f i libvcruntime:std_exception.obj
 0001:00023857       ??1?$__crt_unique_heap_ptr@DU__crt_public_free_policy@@@@QAE@XZ 10024857 f i libvcruntime:std_exception.obj
 0001:0002386b       ??B?$__crt_unique_heap_ptr@DU__crt_public_free_policy@@@@QBE_NXZ 1002486b f i libvcruntime:std_exception.obj
 0001:00023872       ?detach@?$__crt_unique_heap_ptr@DU__crt_public_free_policy@@@@QAEPADXZ 10024872 f i libvcruntime:std_exception.obj
 0001:00023878       ?get@?$__crt_unique_heap_ptr@DU__crt_public_free_policy@@@@QBEPADXZ 10024878 f i libvcruntime:std_exception.obj
 0001:0002387b       ?is_valid@?$__crt_unique_heap_ptr@DU__crt_public_free_policy@@@@QBE_NXZ 1002487b f i libvcruntime:std_exception.obj
 0001:00023882       ?release@?$__crt_unique_heap_ptr@DU__crt_public_free_policy@@@@QAEXXZ 10024882 f i libvcruntime:std_exception.obj
 0001:00023896       ___std_exception_copy      10024896 f   libvcruntime:std_exception.obj
 0001:00023911       ___std_exception_destroy   10024911 f   libvcruntime:std_exception.obj
 0001:00023937       __CxxThrowException@8      10024937 f   libvcruntime:throw.obj
 0001:000239c1       _malloc                    100249c1 f   libucrt:malloc.obj
 0001:000239ce       ??$?RPAU__crt_stdio_stream_data@@@__crt_internal_free_policy@@QBEXQBQAU__crt_stdio_stream_data@@@Z 100249ce f i libucrt:_file.obj
 0001:000239e4       ??0?$__crt_unique_heap_ptr@PAU__crt_stdio_stream_data@@U__crt_internal_free_policy@@@@QAE@QAPAU__crt_stdio_stream_data@@@Z 100249e4 f i libucrt:_file.obj
 0001:000239f8       ??0__crt_stdio_stream@@QAE@QAU_iobuf@@@Z 100249f8 f i libucrt:_file.obj
 0001:00023a0c       ??1?$__crt_unique_heap_ptr@PAU__crt_stdio_stream_data@@U__crt_internal_free_policy@@@@QAE@XZ 10024a0c f i libucrt:_file.obj
 0001:00023a22       ??C__crt_stdio_stream@@QBEPAU__crt_stdio_stream_data@@XZ 10024a22 f i libucrt:_file.obj
 0001:00023a25       ?detach@?$__crt_unique_heap_ptr@PAU__crt_stdio_stream_data@@U__crt_internal_free_policy@@@@QAEPAPAU__crt_stdio_stream_data@@XZ 10024a25 f i libucrt:_file.obj
 0001:00023a2b       ?release@?$__crt_unique_heap_ptr@PAU__crt_stdio_stream_data@@U__crt_internal_free_policy@@@@QAEXXZ 10024a2b f i libucrt:_file.obj
 0001:00023a41       ___acrt_initialize_stdio   10024a41 f   libucrt:_file.obj
 0001:00023b3b       ___acrt_iob_func           10024b3b f   libucrt:_file.obj
 0001:00023b4f       ___acrt_uninitialize_stdio 10024b4f f   libucrt:_file.obj
 0001:00023bae       __get_stream_buffer_pointers 10024bae f   libucrt:_file.obj
 0001:00023c05       __lock_file                10024c05 f   libucrt:_file.obj
 0001:00023c1e       __unlock_file              10024c1e f   libucrt:_file.obj
 0001:00023c37       ??$?0ABV?$stream_output_adapter@D@__crt_stdio_output@@AB_KABQBDABQAU__crt_locale_pointers@@ABQAD@?$format_validation_base@DV?$stream_output_adapter@D@__crt_stdio_output@@@__crt_stdio_output@@IAE@ABV?$stream_output_adapter@D@1@AB_KABQBDABQAU__crt_locale_pointers@@ABQAD@Z 10024c37 f i libucrt:output.obj
 0001:00023c62       ??$?0ABV?$stream_output_adapter@D@__crt_stdio_output@@AB_KABQBDABQAU__crt_locale_pointers@@ABQAD@?$positional_parameter_base@DV?$stream_output_adapter@D@__crt_stdio_output@@@__crt_stdio_output@@IAE@ABV?$stream_output_adapter@D@1@AB_KABQBDABQAU__crt_locale_pointers@@ABQAD@Z 10024c62 f i libucrt:output.obj
 0001:00023cbc       ??$?0ABV?$stream_output_adapter@D@__crt_stdio_output@@AB_KABQBDABQAU__crt_locale_pointers@@ABQAD@?$standard_base@DV?$stream_output_adapter@D@__crt_stdio_output@@@__crt_stdio_output@@IAE@ABV?$stream_output_adapter@D@1@AB_KABQBDABQAU__crt_locale_pointers@@ABQAD@Z 10024cbc f i libucrt:output.obj
 0001:00023cfe       ??$?0ABV?$stream_output_adapter@_W@__crt_stdio_output@@AB_KABQB_WABQAU__crt_locale_pointers@@ABQAD@?$format_validation_base@_WV?$stream_output_adapter@_W@__crt_stdio_output@@@__crt_stdio_output@@IAE@ABV?$stream_output_adapter@_W@1@AB_KABQB_WABQAU__crt_locale_pointers@@ABQAD@Z 10024cfe f i libucrt:output.obj
 0001:00023d29       ??$?0ABV?$stream_output_adapter@_W@__crt_stdio_output@@AB_KABQB_WABQAU__crt_locale_pointers@@ABQAD@?$positional_parameter_base@_WV?$stream_output_adapter@_W@__crt_stdio_output@@@__crt_stdio_output@@IAE@ABV?$stream_output_adapter@_W@1@AB_KABQB_WABQAU__crt_locale_pointers@@ABQAD@Z 10024d29 f i libucrt:output.obj
 0001:00023d83       ??$?0ABV?$stream_output_adapter@_W@__crt_stdio_output@@AB_KABQB_WABQAU__crt_locale_pointers@@ABQAD@?$standard_base@_WV?$stream_output_adapter@_W@__crt_stdio_output@@@__crt_stdio_output@@IAE@ABV?$stream_output_adapter@_W@1@AB_KABQB_WABQAU__crt_locale_pointers@@ABQAD@Z 10024d83 f i libucrt:output.obj
 0001:00023dc5       ??$?0ABV?$string_output_adapter@D@__crt_stdio_output@@AB_KABQBDABQAU__crt_locale_pointers@@ABQAD@?$format_validation_base@DV?$string_output_adapter@D@__crt_stdio_output@@@__crt_stdio_output@@IAE@ABV?$string_output_adapter@D@1@AB_KABQBDABQAU__crt_locale_pointers@@ABQAD@Z 10024dc5 f i libucrt:output.obj
 0001:00023df0       ??$?0ABV?$string_output_adapter@D@__crt_stdio_output@@AB_KABQBDABQAU__crt_locale_pointers@@ABQAD@?$positional_parameter_base@DV?$string_output_adapter@D@__crt_stdio_output@@@__crt_stdio_output@@IAE@ABV?$string_output_adapter@D@1@AB_KABQBDABQAU__crt_locale_pointers@@ABQAD@Z 10024df0 f i libucrt:output.obj
 0001:00023e4a       ??$?0ABV?$string_output_adapter@D@__crt_stdio_output@@AB_KABQBDABQAU__crt_locale_pointers@@ABQAD@?$standard_base@DV?$string_output_adapter@D@__crt_stdio_output@@@__crt_stdio_output@@IAE@ABV?$string_output_adapter@D@1@AB_KABQBDABQAU__crt_locale_pointers@@ABQAD@Z 10024e4a f i libucrt:output.obj
 0001:00023e8c       ??$?0ABV?$string_output_adapter@_W@__crt_stdio_output@@AB_KABQB_WABQAU__crt_locale_pointers@@ABQAD@?$format_validation_base@_WV?$string_output_adapter@_W@__crt_stdio_output@@@__crt_stdio_output@@IAE@ABV?$string_output_adapter@_W@1@AB_KABQB_WABQAU__crt_locale_pointers@@ABQAD@Z 10024e8c f i libucrt:output.obj
 0001:00023eb7       ??$?0ABV?$string_output_adapter@_W@__crt_stdio_output@@AB_KABQB_WABQAU__crt_locale_pointers@@ABQAD@?$positional_parameter_base@_WV?$string_output_adapter@_W@__crt_stdio_output@@@__crt_stdio_output@@IAE@ABV?$string_output_adapter@_W@1@AB_KABQB_WABQAU__crt_locale_pointers@@ABQAD@Z 10024eb7 f i libucrt:output.obj
 0001:00023f11       ??$?0ABV?$string_output_adapter@_W@__crt_stdio_output@@AB_KABQB_WABQAU__crt_locale_pointers@@ABQAD@?$standard_base@_WV?$string_output_adapter@_W@__crt_stdio_output@@@__crt_stdio_output@@IAE@ABV?$string_output_adapter@_W@1@AB_KABQB_WABQAU__crt_locale_pointers@@ABQAD@Z 10024f11 f i libucrt:output.obj
 0001:000242dd       ??$__crt_interlocked_read@J@@YAJPDJ@Z 100252dd f i libucrt:output.obj
 0001:00025546       ??$count@D@formatting_buffer@__crt_stdio_output@@QBEIXZ 10026546 f i libucrt:output.obj
 0001:00025564       ??$count@_W@formatting_buffer@__crt_stdio_output@@QBEIXZ 10026564 f i libucrt:output.obj
 0001:00025583       ??$data@D@formatting_buffer@__crt_stdio_output@@QAEPADXZ 10026583 f i libucrt:output.obj
 0001:00025593       ??$data@_W@formatting_buffer@__crt_stdio_output@@QAEPA_WXZ 10026593 f i libucrt:output.obj
 0001:000255a3       ??$ensure_buffer_is_big_enough@D@formatting_buffer@__crt_stdio_output@@QAE_NI@Z 100265a3 f i libucrt:output.obj
 0001:00025641       ??$ensure_buffer_is_big_enough@_W@formatting_buffer@__crt_stdio_output@@QAE_NI@Z 10026641 f i libucrt:output.obj
 0001:000256e1       ??$extract_argument_from_va_list@C_J@?$positional_parameter_base@DV?$stream_output_adapter@D@__crt_stdio_output@@@__crt_stdio_output@@IAE_NAA_J@Z 100266e1 f i libucrt:output.obj
 0001:00025778       ??$extract_argument_from_va_list@C_J@?$positional_parameter_base@DV?$string_output_adapter@D@__crt_stdio_output@@@__crt_stdio_output@@IAE_NAA_J@Z 10026778 f i libucrt:output.obj
 0001:0002580f       ??$extract_argument_from_va_list@C_J@?$positional_parameter_base@_WV?$stream_output_adapter@_W@__crt_stdio_output@@@__crt_stdio_output@@IAE_NAA_J@Z 1002680f f i libucrt:output.obj
 0001:000258a6       ??$extract_argument_from_va_list@C_J@?$positional_parameter_base@_WV?$string_output_adapter@_W@__crt_stdio_output@@@__crt_stdio_output@@IAE_NAA_J@Z 100268a6 f i libucrt:output.obj
 0001:0002593d       ??$extract_argument_from_va_list@C_J@?$standard_base@DV?$stream_output_adapter@D@__crt_stdio_output@@@__crt_stdio_output@@IAE_NAA_J@Z 1002693d f i libucrt:output.obj
 0001:00025963       ??$extract_argument_from_va_list@C_J@?$standard_base@DV?$string_output_adapter@D@__crt_stdio_output@@@__crt_stdio_output@@IAE_NAA_J@Z 10026963 f i libucrt:output.obj
 0001:00025989       ??$extract_argument_from_va_list@C_J@?$standard_base@_WV?$stream_output_adapter@_W@__crt_stdio_output@@@__crt_stdio_output@@IAE_NAA_J@Z 10026989 f i libucrt:output.obj
 0001:000259af       ??$extract_argument_from_va_list@C_J@?$standard_base@_WV?$string_output_adapter@_W@__crt_stdio_output@@@__crt_stdio_output@@IAE_NAA_J@Z 100269af f i libucrt:output.obj
 0001:000259d5       ??$extract_argument_from_va_list@E_J@?$positional_parameter_base@DV?$stream_output_adapter@D@__crt_stdio_output@@@__crt_stdio_output@@IAE_NAA_J@Z 100269d5 f i libucrt:output.obj
 0001:00025a6c       ??$extract_argument_from_va_list@E_J@?$positional_parameter_base@DV?$string_output_adapter@D@__crt_stdio_output@@@__crt_stdio_output@@IAE_NAA_J@Z 10026a6c f i libucrt:output.obj
 0001:00025b03       ??$extract_argument_from_va_list@E_J@?$positional_parameter_base@_WV?$stream_output_adapter@_W@__crt_stdio_output@@@__crt_stdio_output@@IAE_NAA_J@Z 10026b03 f i libucrt:output.obj
 0001:00025b9a       ??$extract_argument_from_va_list@E_J@?$positional_parameter_base@_WV?$string_output_adapter@_W@__crt_stdio_output@@@__crt_stdio_output@@IAE_NAA_J@Z 10026b9a f i libucrt:output.obj
 0001:00025c31       ??$extract_argument_from_va_list@E_J@?$standard_base@DV?$stream_output_adapter@D@__crt_stdio_output@@@__crt_stdio_output@@IAE_NAA_J@Z 10026c31 f i libucrt:output.obj
 0001:00025c57       ??$extract_argument_from_va_list@E_J@?$standard_base@DV?$string_output_adapter@D@__crt_stdio_output@@@__crt_stdio_output@@IAE_NAA_J@Z 10026c57 f i libucrt:output.obj
 0001:00025c7d       ??$extract_argument_from_va_list@E_J@?$standard_base@_WV?$stream_output_adapter@_W@__crt_stdio_output@@@__crt_stdio_output@@IAE_NAA_J@Z 10026c7d f i libucrt:output.obj
 0001:00025ca3       ??$extract_argument_from_va_list@E_J@?$standard_base@_WV?$string_output_adapter@_W@__crt_stdio_output@@@__crt_stdio_output@@IAE_NAA_J@Z 10026ca3 f i libucrt:output.obj
 0001:00025cc9       ??$extract_argument_from_va_list@F_J@?$positional_parameter_base@DV?$stream_output_adapter@D@__crt_stdio_output@@@__crt_stdio_output@@IAE_NAA_J@Z 10026cc9 f i libucrt:output.obj
 0001:00025d60       ??$extract_argument_from_va_list@F_J@?$positional_parameter_base@DV?$string_output_adapter@D@__crt_stdio_output@@@__crt_stdio_output@@IAE_NAA_J@Z 10026d60 f i libucrt:output.obj
 0001:00025df7       ??$extract_argument_from_va_list@F_J@?$positional_parameter_base@_WV?$stream_output_adapter@_W@__crt_stdio_output@@@__crt_stdio_output@@IAE_NAA_J@Z 10026df7 f i libucrt:output.obj
 0001:00025e8e       ??$extract_argument_from_va_list@F_J@?$positional_parameter_base@_WV?$string_output_adapter@_W@__crt_stdio_output@@@__crt_stdio_output@@IAE_NAA_J@Z 10026e8e f i libucrt:output.obj
 0001:00025f25       ??$extract_argument_from_va_list@F_J@?$standard_base@DV?$stream_output_adapter@D@__crt_stdio_output@@@__crt_stdio_output@@IAE_NAA_J@Z 10026f25 f i libucrt:output.obj
 0001:00025f4b       ??$extract_argument_from_va_list@F_J@?$standard_base@DV?$string_output_adapter@D@__crt_stdio_output@@@__crt_stdio_output@@IAE_NAA_J@Z 10026f4b f i libucrt:output.obj
 0001:00025f71       ??$extract_argument_from_va_list@F_J@?$standard_base@_WV?$stream_output_adapter@_W@__crt_stdio_output@@@__crt_stdio_output@@IAE_NAA_J@Z 10026f71 f i libucrt:output.obj
 0001:00025f97       ??$extract_argument_from_va_list@F_J@?$standard_base@_WV?$string_output_adapter@_W@__crt_stdio_output@@@__crt_stdio_output@@IAE_NAA_J@Z 10026f97 f i libucrt:output.obj
 0001:00025fbd       ??$extract_argument_from_va_list@GD@?$positional_parameter_base@DV?$stream_output_adapter@D@__crt_stdio_output@@@__crt_stdio_output@@IAE_NAAD@Z 10026fbd f i libucrt:output.obj
 0001:00026053       ??$extract_argument_from_va_list@GD@?$positional_parameter_base@DV?$string_output_adapter@D@__crt_stdio_output@@@__crt_stdio_output@@IAE_NAAD@Z 10027053 f i libucrt:output.obj
 0001:000260e9       ??$extract_argument_from_va_list@GD@?$standard_base@DV?$stream_output_adapter@D@__crt_stdio_output@@@__crt_stdio_output@@IAE_NAAD@Z 100270e9 f i libucrt:output.obj
 0001:00026109       ??$extract_argument_from_va_list@GD@?$standard_base@DV?$string_output_adapter@D@__crt_stdio_output@@@__crt_stdio_output@@IAE_NAAD@Z 10027109 f i libucrt:output.obj
 0001:00026129       ??$extract_argument_from_va_list@G_J@?$positional_parameter_base@DV?$stream_output_adapter@D@__crt_stdio_output@@@__crt_stdio_output@@IAE_NAA_J@Z 10027129 f i libucrt:output.obj
 0001:000261c0       ??$extract_argument_from_va_list@G_J@?$positional_parameter_base@DV?$string_output_adapter@D@__crt_stdio_output@@@__crt_stdio_output@@IAE_NAA_J@Z 100271c0 f i libucrt:output.obj
 0001:00026257       ??$extract_argument_from_va_list@G_J@?$positional_parameter_base@_WV?$stream_output_adapter@_W@__crt_stdio_output@@@__crt_stdio_output@@IAE_NAA_J@Z 10027257 f i libucrt:output.obj
 0001:000262ee       ??$extract_argument_from_va_list@G_J@?$positional_parameter_base@_WV?$string_output_adapter@_W@__crt_stdio_output@@@__crt_stdio_output@@IAE_NAA_J@Z 100272ee f i libucrt:output.obj
 0001:00026385       ??$extract_argument_from_va_list@G_J@?$standard_base@DV?$stream_output_adapter@D@__crt_stdio_output@@@__crt_stdio_output@@IAE_NAA_J@Z 10027385 f i libucrt:output.obj
 0001:000263ab       ??$extract_argument_from_va_list@G_J@?$standard_base@DV?$string_output_adapter@D@__crt_stdio_output@@@__crt_stdio_output@@IAE_NAA_J@Z 100273ab f i libucrt:output.obj
 0001:000263d1       ??$extract_argument_from_va_list@G_J@?$standard_base@_WV?$stream_output_adapter@_W@__crt_stdio_output@@@__crt_stdio_output@@IAE_NAA_J@Z 100273d1 f i libucrt:output.obj
 0001:000263f7       ??$extract_argument_from_va_list@G_J@?$standard_base@_WV?$string_output_adapter@_W@__crt_stdio_output@@@__crt_stdio_output@@IAE_NAA_J@Z 100273f7 f i libucrt:output.obj
 0001:0002641d       ??$extract_argument_from_va_list@H_J@?$positional_parameter_base@DV?$stream_output_adapter@D@__crt_stdio_output@@@__crt_stdio_output@@IAE_NAA_J@Z 1002741d f i libucrt:output.obj
 0001:000264b1       ??$extract_argument_from_va_list@H_J@?$positional_parameter_base@DV?$string_output_adapter@D@__crt_stdio_output@@@__crt_stdio_output@@IAE_NAA_J@Z 100274b1 f i libucrt:output.obj
 0001:00026545       ??$extract_argument_from_va_list@H_J@?$positional_parameter_base@_WV?$stream_output_adapter@_W@__crt_stdio_output@@@__crt_stdio_output@@IAE_NAA_J@Z 10027545 f i libucrt:output.obj
 0001:000265d9       ??$extract_argument_from_va_list@H_J@?$positional_parameter_base@_WV?$string_output_adapter@_W@__crt_stdio_output@@@__crt_stdio_output@@IAE_NAA_J@Z 100275d9 f i libucrt:output.obj
 0001:0002666d       ??$extract_argument_from_va_list@H_J@?$standard_base@DV?$stream_output_adapter@D@__crt_stdio_output@@@__crt_stdio_output@@IAE_NAA_J@Z 1002766d f i libucrt:output.obj
 0001:00026692       ??$extract_argument_from_va_list@H_J@?$standard_base@DV?$string_output_adapter@D@__crt_stdio_output@@@__crt_stdio_output@@IAE_NAA_J@Z 10027692 f i libucrt:output.obj
 0001:000266b7       ??$extract_argument_from_va_list@H_J@?$standard_base@_WV?$stream_output_adapter@_W@__crt_stdio_output@@@__crt_stdio_output@@IAE_NAA_J@Z 100276b7 f i libucrt:output.obj
 0001:000266dc       ??$extract_argument_from_va_list@H_J@?$standard_base@_WV?$string_output_adapter@_W@__crt_stdio_output@@@__crt_stdio_output@@IAE_NAA_J@Z 100276dc f i libucrt:output.obj
 0001:00026701       ??$extract_argument_from_va_list@I_J@?$positional_parameter_base@DV?$stream_output_adapter@D@__crt_stdio_output@@@__crt_stdio_output@@IAE_NAA_J@Z 10027701 f i libucrt:output.obj
 0001:000267a1       ??$extract_argument_from_va_list@I_J@?$positional_parameter_base@DV?$string_output_adapter@D@__crt_stdio_output@@@__crt_stdio_output@@IAE_NAA_J@Z 100277a1 f i libucrt:output.obj
 0001:00026841       ??$extract_argument_from_va_list@I_J@?$positional_parameter_base@_WV?$stream_output_adapter@_W@__crt_stdio_output@@@__crt_stdio_output@@IAE_NAA_J@Z 10027841 f i libucrt:output.obj
 0001:000268e1       ??$extract_argument_from_va_list@I_J@?$positional_parameter_base@_WV?$string_output_adapter@_W@__crt_stdio_output@@@__crt_stdio_output@@IAE_NAA_J@Z 100278e1 f i libucrt:output.obj
 0001:00026981       ??$extract_argument_from_va_list@I_J@?$standard_base@DV?$stream_output_adapter@D@__crt_stdio_output@@@__crt_stdio_output@@IAE_NAA_J@Z 10027981 f i libucrt:output.obj
 0001:000269a6       ??$extract_argument_from_va_list@I_J@?$standard_base@DV?$string_output_adapter@D@__crt_stdio_output@@@__crt_stdio_output@@IAE_NAA_J@Z 100279a6 f i libucrt:output.obj
 0001:000269cb       ??$extract_argument_from_va_list@I_J@?$standard_base@_WV?$stream_output_adapter@_W@__crt_stdio_output@@@__crt_stdio_output@@IAE_NAA_J@Z 100279cb f i libucrt:output.obj
 0001:000269f0       ??$extract_argument_from_va_list@I_J@?$standard_base@_WV?$string_output_adapter@_W@__crt_stdio_output@@@__crt_stdio_output@@IAE_NAA_J@Z 100279f0 f i libucrt:output.obj
 0001:00026a15       ??$extract_argument_from_va_list@PADPAD@?$positional_parameter_base@DV?$stream_output_adapter@D@__crt_stdio_output@@@__crt_stdio_output@@IAE_NAAPAD@Z 10027a15 f i libucrt:output.obj
 0001:00026aab       ??$extract_argument_from_va_list@PADPAD@?$positional_parameter_base@DV?$string_output_adapter@D@__crt_stdio_output@@@__crt_stdio_output@@IAE_NAAPAD@Z 10027aab f i libucrt:output.obj
 0001:00026b41       ??$extract_argument_from_va_list@PADPAD@?$positional_parameter_base@_WV?$stream_output_adapter@_W@__crt_stdio_output@@@__crt_stdio_output@@IAE_NAAPAD@Z 10027b41 f i libucrt:output.obj
 0001:00026bd7       ??$extract_argument_from_va_list@PADPAD@?$positional_parameter_base@_WV?$string_output_adapter@_W@__crt_stdio_output@@@__crt_stdio_output@@IAE_NAAPAD@Z 10027bd7 f i libucrt:output.obj
 0001:00026c6d       ??$extract_argument_from_va_list@PADPAD@?$standard_base@DV?$stream_output_adapter@D@__crt_stdio_output@@@__crt_stdio_output@@IAE_NAAPAD@Z 10027c6d f i libucrt:output.obj
 0001:00026c8d       ??$extract_argument_from_va_list@PADPAD@?$standard_base@DV?$string_output_adapter@D@__crt_stdio_output@@@__crt_stdio_output@@IAE_NAAPAD@Z 10027c8d f i libucrt:output.obj
 0001:00026cad       ??$extract_argument_from_va_list@PADPAD@?$standard_base@_WV?$stream_output_adapter@_W@__crt_stdio_output@@@__crt_stdio_output@@IAE_NAAPAD@Z 10027cad f i libucrt:output.obj
 0001:00026ccd       ??$extract_argument_from_va_list@PADPAD@?$standard_base@_WV?$string_output_adapter@_W@__crt_stdio_output@@@__crt_stdio_output@@IAE_NAAPAD@Z 10027ccd f i libucrt:output.obj
 0001:000270c5       ??$extract_argument_from_va_list@PAXPAX@?$positional_parameter_base@DV?$stream_output_adapter@D@__crt_stdio_output@@@__crt_stdio_output@@IAE_NAAPAX@Z 100280c5 f i libucrt:output.obj
 0001:0002715b       ??$extract_argument_from_va_list@PAXPAX@?$positional_parameter_base@DV?$string_output_adapter@D@__crt_stdio_output@@@__crt_stdio_output@@IAE_NAAPAX@Z 1002815b f i libucrt:output.obj
 0001:000271f1       ??$extract_argument_from_va_list@PAXPAX@?$positional_parameter_base@_WV?$stream_output_adapter@_W@__crt_stdio_output@@@__crt_stdio_output@@IAE_NAAPAX@Z 100281f1 f i libucrt:output.obj
 0001:00027287       ??$extract_argument_from_va_list@PAXPAX@?$positional_parameter_base@_WV?$string_output_adapter@_W@__crt_stdio_output@@@__crt_stdio_output@@IAE_NAAPAX@Z 10028287 f i libucrt:output.obj
 0001:0002731d       ??$extract_argument_from_va_list@PAXPAX@?$standard_base@DV?$stream_output_adapter@D@__crt_stdio_output@@@__crt_stdio_output@@IAE_NAAPAX@Z 1002831d f i libucrt:output.obj
 0001:0002733d       ??$extract_argument_from_va_list@PAXPAX@?$standard_base@DV?$string_output_adapter@D@__crt_stdio_output@@@__crt_stdio_output@@IAE_NAAPAX@Z 1002833d f i libucrt:output.obj
 0001:0002735d       ??$extract_argument_from_va_list@PAXPAX@?$standard_base@_WV?$stream_output_adapter@_W@__crt_stdio_output@@@__crt_stdio_output@@IAE_NAAPAX@Z 1002835d f i libucrt:output.obj
 0001:0002737d       ??$extract_argument_from_va_list@PAXPAX@?$standard_base@_WV?$string_output_adapter@_W@__crt_stdio_output@@@__crt_stdio_output@@IAE_NAAPAX@Z 1002837d f i libucrt:output.obj
 0001:0002739d       ??$extract_argument_from_va_list@U_CRT_DOUBLE@@U1@@?$positional_parameter_base@DV?$stream_output_adapter@D@__crt_stdio_output@@@__crt_stdio_output@@IAE_NAAU_CRT_DOUBLE@@@Z 1002839d f i libucrt:output.obj
 0001:00027444       ??$extract_argument_from_va_list@U_CRT_DOUBLE@@U1@@?$positional_parameter_base@DV?$string_output_adapter@D@__crt_stdio_output@@@__crt_stdio_output@@IAE_NAAU_CRT_DOUBLE@@@Z 10028444 f i libucrt:output.obj
 0001:000274eb       ??$extract_argument_from_va_list@U_CRT_DOUBLE@@U1@@?$positional_parameter_base@_WV?$stream_output_adapter@_W@__crt_stdio_output@@@__crt_stdio_output@@IAE_NAAU_CRT_DOUBLE@@@Z 100284eb f i libucrt:output.obj
 0001:00027592       ??$extract_argument_from_va_list@U_CRT_DOUBLE@@U1@@?$positional_parameter_base@_WV?$string_output_adapter@_W@__crt_stdio_output@@@__crt_stdio_output@@IAE_NAAU_CRT_DOUBLE@@@Z 10028592 f i libucrt:output.obj
 0001:00027639       ??$extract_argument_from_va_list@U_CRT_DOUBLE@@U1@@?$standard_base@DV?$stream_output_adapter@D@__crt_stdio_output@@@__crt_stdio_output@@IAE_NAAU_CRT_DOUBLE@@@Z 10028639 f i libucrt:output.obj
 0001:00027661       ??$extract_argument_from_va_list@U_CRT_DOUBLE@@U1@@?$standard_base@DV?$string_output_adapter@D@__crt_stdio_output@@@__crt_stdio_output@@IAE_NAAU_CRT_DOUBLE@@@Z 10028661 f i libucrt:output.obj
 0001:00027689       ??$extract_argument_from_va_list@U_CRT_DOUBLE@@U1@@?$standard_base@_WV?$stream_output_adapter@_W@__crt_stdio_output@@@__crt_stdio_output@@IAE_NAAU_CRT_DOUBLE@@@Z 10028689 f i libucrt:output.obj
 0001:000276b1       ??$extract_argument_from_va_list@U_CRT_DOUBLE@@U1@@?$standard_base@_WV?$string_output_adapter@_W@__crt_stdio_output@@@__crt_stdio_output@@IAE_NAAU_CRT_DOUBLE@@@Z 100286b1 f i libucrt:output.obj
 0001:000276d9       ??$extract_argument_from_va_list@_J_J@?$positional_parameter_base@DV?$stream_output_adapter@D@__crt_stdio_output@@@__crt_stdio_output@@IAE_NAA_J@Z 100286d9 f i libucrt:output.obj
 0001:00027780       ??$extract_argument_from_va_list@_J_J@?$positional_parameter_base@DV?$string_output_adapter@D@__crt_stdio_output@@@__crt_stdio_output@@IAE_NAA_J@Z 10028780 f i libucrt:output.obj
 0001:00027827       ??$extract_argument_from_va_list@_J_J@?$positional_parameter_base@_WV?$stream_output_adapter@_W@__crt_stdio_output@@@__crt_stdio_output@@IAE_NAA_J@Z 10028827 f i libucrt:output.obj
 0001:000278ce       ??$extract_argument_from_va_list@_J_J@?$positional_parameter_base@_WV?$string_output_adapter@_W@__crt_stdio_output@@@__crt_stdio_output@@IAE_NAA_J@Z 100288ce f i libucrt:output.obj
 0001:00027975       ??$extract_argument_from_va_list@_J_J@?$standard_base@DV?$stream_output_adapter@D@__crt_stdio_output@@@__crt_stdio_output@@IAE_NAA_J@Z 10028975 f i libucrt:output.obj
 0001:0002799d       ??$extract_argument_from_va_list@_J_J@?$standard_base@DV?$string_output_adapter@D@__crt_stdio_output@@@__crt_stdio_output@@IAE_NAA_J@Z 1002899d f i libucrt:output.obj
 0001:000279c5       ??$extract_argument_from_va_list@_J_J@?$standard_base@_WV?$stream_output_adapter@_W@__crt_stdio_output@@@__crt_stdio_output@@IAE_NAA_J@Z 100289c5 f i libucrt:output.obj
 0001:000279ed       ??$extract_argument_from_va_list@_J_J@?$standard_base@_WV?$string_output_adapter@_W@__crt_stdio_output@@@__crt_stdio_output@@IAE_NAA_J@Z 100289ed f i libucrt:output.obj
 0001:00027a15       ??$extract_argument_from_va_list@_K_J@?$positional_parameter_base@DV?$stream_output_adapter@D@__crt_stdio_output@@@__crt_stdio_output@@IAE_NAA_J@Z 10028a15 f i libucrt:output.obj
 0001:00027abc       ??$extract_argument_from_va_list@_K_J@?$positional_parameter_base@DV?$string_output_adapter@D@__crt_stdio_output@@@__crt_stdio_output@@IAE_NAA_J@Z 10028abc f i libucrt:output.obj
 0001:00027b63       ??$extract_argument_from_va_list@_K_J@?$positional_parameter_base@_WV?$stream_output_adapter@_W@__crt_stdio_output@@@__crt_stdio_output@@IAE_NAA_J@Z 10028b63 f i libucrt:output.obj
 0001:00027c0a       ??$extract_argument_from_va_list@_K_J@?$positional_parameter_base@_WV?$string_output_adapter@_W@__crt_stdio_output@@@__crt_stdio_output@@IAE_NAA_J@Z 10028c0a f i libucrt:output.obj
 0001:00027cb1       ??$extract_argument_from_va_list@_K_J@?$standard_base@DV?$stream_output_adapter@D@__crt_stdio_output@@@__crt_stdio_output@@IAE_NAA_J@Z 10028cb1 f i libucrt:output.obj
 0001:00027cd9       ??$extract_argument_from_va_list@_K_J@?$standard_base@DV?$string_output_adapter@D@__crt_stdio_output@@@__crt_stdio_output@@IAE_NAA_J@Z 10028cd9 f i libucrt:output.obj
 0001:00027d01       ??$extract_argument_from_va_list@_K_J@?$standard_base@_WV?$stream_output_adapter@_W@__crt_stdio_output@@@__crt_stdio_output@@IAE_NAA_J@Z 10028d01 f i libucrt:output.obj
 0001:00027d29       ??$extract_argument_from_va_list@_K_J@?$standard_base@_WV?$string_output_adapter@_W@__crt_stdio_output@@@__crt_stdio_output@@IAE_NAA_J@Z 10028d29 f i libucrt:output.obj
 0001:00027d51       ??$extract_argument_from_va_list@_W_W@?$positional_parameter_base@DV?$stream_output_adapter@D@__crt_stdio_output@@@__crt_stdio_output@@IAE_NAA_W@Z 10028d51 f i libucrt:output.obj
 0001:00027dec       ??$extract_argument_from_va_list@_W_W@?$positional_parameter_base@DV?$string_output_adapter@D@__crt_stdio_output@@@__crt_stdio_output@@IAE_NAA_W@Z 10028dec f i libucrt:output.obj
 0001:00027e87       ??$extract_argument_from_va_list@_W_W@?$positional_parameter_base@_WV?$stream_output_adapter@_W@__crt_stdio_output@@@__crt_stdio_output@@IAE_NAA_W@Z 10028e87 f i libucrt:output.obj
 0001:00027f22       ??$extract_argument_from_va_list@_W_W@?$positional_parameter_base@_WV?$string_output_adapter@_W@__crt_stdio_output@@@__crt_stdio_output@@IAE_NAA_W@Z 10028f22 f i libucrt:output.obj
 0001:00027fbd       ??$extract_argument_from_va_list@_W_W@?$standard_base@DV?$stream_output_adapter@D@__crt_stdio_output@@@__crt_stdio_output@@IAE_NAA_W@Z 10028fbd f i libucrt:output.obj
 0001:00027fe0       ??$extract_argument_from_va_list@_W_W@?$standard_base@DV?$string_output_adapter@D@__crt_stdio_output@@@__crt_stdio_output@@IAE_NAA_W@Z 10028fe0 f i libucrt:output.obj
 0001:00028003       ??$extract_argument_from_va_list@_W_W@?$standard_base@_WV?$stream_output_adapter@_W@__crt_stdio_output@@@__crt_stdio_output@@IAE_NAA_W@Z 10029003 f i libucrt:output.obj
 0001:00028026       ??$extract_argument_from_va_list@_W_W@?$standard_base@_WV?$string_output_adapter@_W@__crt_stdio_output@@@__crt_stdio_output@@IAE_NAA_W@Z 10029026 f i libucrt:output.obj
 0001:00028049       ??$get_parameter_type@D@?$positional_parameter_base@DV?$stream_output_adapter@D@__crt_stdio_output@@@__crt_stdio_output@@CA?AW4parameter_type@01@PAD@Z 10029049 f i libucrt:output.obj
 0001:0002804d       ??$get_parameter_type@D@?$positional_parameter_base@DV?$string_output_adapter@D@__crt_stdio_output@@@__crt_stdio_output@@CA?AW4parameter_type@01@PAD@Z 1002904d f i libucrt:output.obj
 0001:00028051       ??$get_parameter_type@D@?$positional_parameter_base@_WV?$stream_output_adapter@_W@__crt_stdio_output@@@__crt_stdio_output@@CA?AW4parameter_type@01@PAD@Z 10029051 f i libucrt:output.obj
 0001:00028055       ??$get_parameter_type@D@?$positional_parameter_base@_WV?$string_output_adapter@_W@__crt_stdio_output@@@__crt_stdio_output@@CA?AW4parameter_type@01@PAD@Z 10029055 f i libucrt:output.obj
 0001:00028069       ??$get_parameter_type@X@?$positional_parameter_base@DV?$stream_output_adapter@D@__crt_stdio_output@@@__crt_stdio_output@@CA?AW4parameter_type@01@PAX@Z 10029069 f i libucrt:output.obj
 0001:0002806d       ??$get_parameter_type@X@?$positional_parameter_base@DV?$string_output_adapter@D@__crt_stdio_output@@@__crt_stdio_output@@CA?AW4parameter_type@01@PAX@Z 1002906d f i libucrt:output.obj
 0001:00028071       ??$get_parameter_type@X@?$positional_parameter_base@_WV?$stream_output_adapter@_W@__crt_stdio_output@@@__crt_stdio_output@@CA?AW4parameter_type@01@PAX@Z 10029071 f i libucrt:output.obj
 0001:00028075       ??$get_parameter_type@X@?$positional_parameter_base@_WV?$string_output_adapter@_W@__crt_stdio_output@@@__crt_stdio_output@@CA?AW4parameter_type@01@PAX@Z 10029075 f i libucrt:output.obj
 0001:00028079       ??$is_character_specifier@D@?$positional_parameter_base@DV?$stream_output_adapter@D@__crt_stdio_output@@@__crt_stdio_output@@CA_ND@Z 10029079 f i libucrt:output.obj
 0001:00028097       ??$is_character_specifier@D@?$positional_parameter_base@DV?$string_output_adapter@D@__crt_stdio_output@@@__crt_stdio_output@@CA_ND@Z 10029097 f i libucrt:output.obj
 0001:000280b5       ??$is_character_specifier@_W@?$positional_parameter_base@_WV?$stream_output_adapter@_W@__crt_stdio_output@@@__crt_stdio_output@@CA_N_W@Z 100290b5 f i libucrt:output.obj
 0001:000280d6       ??$is_character_specifier@_W@?$positional_parameter_base@_WV?$string_output_adapter@_W@__crt_stdio_output@@@__crt_stdio_output@@CA_N_W@Z 100290d6 f i libucrt:output.obj
 0001:000280f7       ??$is_integral_specifier@D@?$positional_parameter_base@DV?$stream_output_adapter@D@__crt_stdio_output@@@__crt_stdio_output@@CA_ND@Z 100290f7 f i libucrt:output.obj
 0001:0002812e       ??$is_integral_specifier@D@?$positional_parameter_base@DV?$string_output_adapter@D@__crt_stdio_output@@@__crt_stdio_output@@CA_ND@Z 1002912e f i libucrt:output.obj
 0001:00028165       ??$is_integral_specifier@_W@?$positional_parameter_base@_WV?$stream_output_adapter@_W@__crt_stdio_output@@@__crt_stdio_output@@CA_N_W@Z 10029165 f i libucrt:output.obj
 0001:000281ae       ??$is_integral_specifier@_W@?$positional_parameter_base@_WV?$string_output_adapter@_W@__crt_stdio_output@@@__crt_stdio_output@@CA_N_W@Z 100291ae f i libucrt:output.obj
 0001:000281f7       ??$is_pointer_specifier@D@?$positional_parameter_base@DV?$stream_output_adapter@D@__crt_stdio_output@@@__crt_stdio_output@@CA_ND@Z 100291f7 f i libucrt:output.obj
 0001:00028208       ??$is_pointer_specifier@D@?$positional_parameter_base@DV?$string_output_adapter@D@__crt_stdio_output@@@__crt_stdio_output@@CA_ND@Z 10029208 f i libucrt:output.obj
 0001:00028219       ??$is_pointer_specifier@_W@?$positional_parameter_base@_WV?$stream_output_adapter@_W@__crt_stdio_output@@@__crt_stdio_output@@CA_N_W@Z 10029219 f i libucrt:output.obj
 0001:0002822b       ??$is_pointer_specifier@_W@?$positional_parameter_base@_WV?$string_output_adapter@_W@__crt_stdio_output@@@__crt_stdio_output@@CA_N_W@Z 1002922b f i libucrt:output.obj
 0001:0002823d       ??$is_string_specifier@D@?$positional_parameter_base@DV?$stream_output_adapter@D@__crt_stdio_output@@@__crt_stdio_output@@CA_ND@Z 1002923d f i libucrt:output.obj
 0001:0002825b       ??$is_string_specifier@D@?$positional_parameter_base@DV?$string_output_adapter@D@__crt_stdio_output@@@__crt_stdio_output@@CA_ND@Z 1002925b f i libucrt:output.obj
 0001:00028279       ??$is_string_specifier@_W@?$positional_parameter_base@_WV?$stream_output_adapter@_W@__crt_stdio_output@@@__crt_stdio_output@@CA_N_W@Z 10029279 f i libucrt:output.obj
 0001:0002829a       ??$is_string_specifier@_W@?$positional_parameter_base@_WV?$string_output_adapter@_W@__crt_stdio_output@@@__crt_stdio_output@@CA_N_W@Z 1002929a f i libucrt:output.obj
 0001:000282bb       ??$is_wide_character_specifier@D@__crt_stdio_output@@YA_N_KDW4length_modifier@0@@Z 100292bb f i libucrt:output.obj
 0001:000282f8       ??$is_wide_character_specifier@_W@__crt_stdio_output@@YA_N_K_WW4length_modifier@0@@Z 100292f8 f i libucrt:output.obj
 0001:00028359       ??$peek_va_arg@C@__crt_stdio_output@@YACPAD@Z 10029359 f i libucrt:output.obj
 0001:00028368       ??$peek_va_arg@E@__crt_stdio_output@@YAEPAD@Z 10029368 f i libucrt:output.obj
 0001:00028377       ??$peek_va_arg@F@__crt_stdio_output@@YAFPAD@Z 10029377 f i libucrt:output.obj
 0001:00028387       ??$peek_va_arg@G@__crt_stdio_output@@YAGPAD@Z 10029387 f i libucrt:output.obj
 0001:00028397       ??$peek_va_arg@H@__crt_stdio_output@@YAHPAD@Z 10029397 f i libucrt:output.obj
 0001:000283a6       ??$peek_va_arg@I@__crt_stdio_output@@YAIPAD@Z 100293a6 f i libucrt:output.obj
 0001:000283b5       ??$peek_va_arg@PAD@__crt_stdio_output@@YAPADPAD@Z 100293b5 f i libucrt:output.obj
 0001:00028400       ??$peek_va_arg@PAX@__crt_stdio_output@@YAPAXPAD@Z 10029400 f i libucrt:output.obj
 0001:0002840f       ??$peek_va_arg@U_CRT_DOUBLE@@@__crt_stdio_output@@YA?AU_CRT_DOUBLE@@PAD@Z 1002940f f i libucrt:output.obj
 0001:00028421       ??$peek_va_arg@_J@__crt_stdio_output@@YA_JPAD@Z 10029421 f i libucrt:output.obj
 0001:00028433       ??$peek_va_arg@_K@__crt_stdio_output@@YA_KPAD@Z 10029433 f i libucrt:output.obj
 0001:00028445       ??$peek_va_arg@_W@__crt_stdio_output@@YA_WPAD@Z 10029445 f i libucrt:output.obj
 0001:00028455       ??$puttc_nolock@ABDPAU_iobuf@@@?$__crt_char_traits@D@@SAHABD$$QAPAU_iobuf@@@Z 10029455 f i libucrt:output.obj
 0001:00028475       ??$puttc_nolock@AB_WPAU_iobuf@@@?$__crt_char_traits@_W@@SAGAB_W$$QAPAU_iobuf@@@Z 10029475 f i libucrt:output.obj
 0001:00028495       ??$read_va_arg@C@__crt_stdio_output@@YACAAPAD@Z 10029495 f i libucrt:output.obj
 0001:000284ab       ??$read_va_arg@E@__crt_stdio_output@@YAEAAPAD@Z 100294ab f i libucrt:output.obj
 0001:000284c1       ??$read_va_arg@F@__crt_stdio_output@@YAFAAPAD@Z 100294c1 f i libucrt:output.obj
 0001:000284d8       ??$read_va_arg@G@__crt_stdio_output@@YAGAAPAD@Z 100294d8 f i libucrt:output.obj
 0001:000284ef       ??$read_va_arg@H@__crt_stdio_output@@YAHAAPAD@Z 100294ef f i libucrt:output.obj
 0001:00028505       ??$read_va_arg@I@__crt_stdio_output@@YAIAAPAD@Z 10029505 f i libucrt:output.obj
 0001:0002851b       ??$read_va_arg@PAD@__crt_stdio_output@@YAPADAAPAD@Z 1002951b f i libucrt:output.obj
 0001:00028639       ??$read_va_arg@PAX@__crt_stdio_output@@YAPAXAAPAD@Z 10029639 f i libucrt:output.obj
 0001:0002864f       ??$read_va_arg@U_CRT_DOUBLE@@@__crt_stdio_output@@YA?AU_CRT_DOUBLE@@AAPAD@Z 1002964f f i libucrt:output.obj
 0001:0002866a       ??$read_va_arg@_J@__crt_stdio_output@@YA_JAAPAD@Z 1002966a f i libucrt:output.obj
 0001:00028684       ??$read_va_arg@_K@__crt_stdio_output@@YA_KAAPAD@Z 10029684 f i libucrt:output.obj
 0001:0002869e       ??$read_va_arg@_W@__crt_stdio_output@@YA_WAAPAD@Z 1002969e f i libucrt:output.obj
 0001:000286b5       ??$scratch_count@D@formatting_buffer@__crt_stdio_output@@QBEIXZ 100296b5 f i libucrt:output.obj
 0001:000286ba       ??$scratch_data@D@formatting_buffer@__crt_stdio_output@@QAEPADXZ 100296ba f i libucrt:output.obj
 0001:000286df       ??$tcstol@AAPBDPAPADH@?$__crt_char_traits@D@@SAJAAPBD$$QAPAPAD$$QAH@Z 100296df f i libucrt:output.obj
 0001:00028704       ??$tcstol@AAPB_WPAPA_WH@?$__crt_char_traits@_W@@SAJAAPB_W$$QAPAPA_W$$QAH@Z 10029704 f i libucrt:output.obj
 0001:00028729       ??$tcstol@PBDPAPADH@?$__crt_char_traits@D@@SAJ$$QAPBD$$QAPAPAD$$QAH@Z 10029729 f i libucrt:output.obj
 0001:0002874e       ??$tcstol@PB_WPAPA_WH@?$__crt_char_traits@_W@@SAJ$$QAPB_W$$QAPAPA_W$$QAH@Z 1002974e f i libucrt:output.obj
 0001:00028773       ??$type_case_integer_parse_into_buffer@I@?$output_processor@DV?$stream_output_adapter@D@__crt_stdio_output@@V?$format_validation_base@DV?$stream_output_adapter@D@__crt_stdio_output@@@2@@__crt_stdio_output@@AAEXII_N@Z 10029773 f i libucrt:output.obj
 0001:00028802       ??$type_case_integer_parse_into_buffer@I@?$output_processor@DV?$stream_output_adapter@D@__crt_stdio_output@@V?$positional_parameter_base@DV?$stream_output_adapter@D@__crt_stdio_output@@@2@@__crt_stdio_output@@AAEXII_N@Z 10029802 f i libucrt:output.obj
 0001:00028891       ??$type_case_integer_parse_into_buffer@I@?$output_processor@DV?$stream_output_adapter@D@__crt_stdio_output@@V?$standard_base@DV?$stream_output_adapter@D@__crt_stdio_output@@@2@@__crt_stdio_output@@AAEXII_N@Z 10029891 f i libucrt:output.obj
 0001:00028920       ??$type_case_integer_parse_into_buffer@I@?$output_processor@DV?$string_output_adapter@D@__crt_stdio_output@@V?$format_validation_base@DV?$string_output_adapter@D@__crt_stdio_output@@@2@@__crt_stdio_output@@AAEXII_N@Z 10029920 f i libucrt:output.obj
 0001:000289af       ??$type_case_integer_parse_into_buffer@I@?$output_processor@DV?$string_output_adapter@D@__crt_stdio_output@@V?$positional_parameter_base@DV?$string_output_adapter@D@__crt_stdio_output@@@2@@__crt_stdio_output@@AAEXII_N@Z 100299af f i libucrt:output.obj
 0001:00028a3e       ??$type_case_integer_parse_into_buffer@I@?$output_processor@DV?$string_output_adapter@D@__crt_stdio_output@@V?$standard_base@DV?$string_output_adapter@D@__crt_stdio_output@@@2@@__crt_stdio_output@@AAEXII_N@Z 10029a3e f i libucrt:output.obj
 0001:00028acd       ??$type_case_integer_parse_into_buffer@I@?$output_processor@_WV?$stream_output_adapter@_W@__crt_stdio_output@@V?$format_validation_base@_WV?$stream_output_adapter@_W@__crt_stdio_output@@@2@@__crt_stdio_output@@AAEXII_N@Z 10029acd f i libucrt:output.obj
 0001:00028b6d       ??$type_case_integer_parse_into_buffer@I@?$output_processor@_WV?$stream_output_adapter@_W@__crt_stdio_output@@V?$positional_parameter_base@_WV?$stream_output_adapter@_W@__crt_stdio_output@@@2@@__crt_stdio_output@@AAEXII_N@Z 10029b6d f i libucrt:output.obj
 0001:00028c0d       ??$type_case_integer_parse_into_buffer@I@?$output_processor@_WV?$stream_output_adapter@_W@__crt_stdio_output@@V?$standard_base@_WV?$stream_output_adapter@_W@__crt_stdio_output@@@2@@__crt_stdio_output@@AAEXII_N@Z 10029c0d f i libucrt:output.obj
 0001:00028cad       ??$type_case_integer_parse_into_buffer@I@?$output_processor@_WV?$string_output_adapter@_W@__crt_stdio_output@@V?$format_validation_base@_WV?$string_output_adapter@_W@__crt_stdio_output@@@2@@__crt_stdio_output@@AAEXII_N@Z 10029cad f i libucrt:output.obj
 0001:00028d4d       ??$type_case_integer_parse_into_buffer@I@?$output_processor@_WV?$string_output_adapter@_W@__crt_stdio_output@@V?$positional_parameter_base@_WV?$string_output_adapter@_W@__crt_stdio_output@@@2@@__crt_stdio_output@@AAEXII_N@Z 10029d4d f i libucrt:output.obj
 0001:00028ded       ??$type_case_integer_parse_into_buffer@I@?$output_processor@_WV?$string_output_adapter@_W@__crt_stdio_output@@V?$standard_base@_WV?$string_output_adapter@_W@__crt_stdio_output@@@2@@__crt_stdio_output@@AAEXII_N@Z 10029ded f i libucrt:output.obj
 0001:00028e8d       ??$type_case_integer_parse_into_buffer@_K@?$output_processor@DV?$stream_output_adapter@D@__crt_stdio_output@@V?$format_validation_base@DV?$stream_output_adapter@D@__crt_stdio_output@@@2@@__crt_stdio_output@@AAEX_KI_N@Z 10029e8d f i libucrt:output.obj
 0001:00028f3f       ??$type_case_integer_parse_into_buffer@_K@?$output_processor@DV?$stream_output_adapter@D@__crt_stdio_output@@V?$positional_parameter_base@DV?$stream_output_adapter@D@__crt_stdio_output@@@2@@__crt_stdio_output@@AAEX_KI_N@Z 10029f3f f i libucrt:output.obj
 0001:00028ff1       ??$type_case_integer_parse_into_buffer@_K@?$output_processor@DV?$stream_output_adapter@D@__crt_stdio_output@@V?$standard_base@DV?$stream_output_adapter@D@__crt_stdio_output@@@2@@__crt_stdio_output@@AAEX_KI_N@Z 10029ff1 f i libucrt:output.obj
 0001:000290a3       ??$type_case_integer_parse_into_buffer@_K@?$output_processor@DV?$string_output_adapter@D@__crt_stdio_output@@V?$format_validation_base@DV?$string_output_adapter@D@__crt_stdio_output@@@2@@__crt_stdio_output@@AAEX_KI_N@Z 1002a0a3 f i libucrt:output.obj
 0001:00029155       ??$type_case_integer_parse_into_buffer@_K@?$output_processor@DV?$string_output_adapter@D@__crt_stdio_output@@V?$positional_parameter_base@DV?$string_output_adapter@D@__crt_stdio_output@@@2@@__crt_stdio_output@@AAEX_KI_N@Z 1002a155 f i libucrt:output.obj
 0001:00029207       ??$type_case_integer_parse_into_buffer@_K@?$output_processor@DV?$string_output_adapter@D@__crt_stdio_output@@V?$standard_base@DV?$string_output_adapter@D@__crt_stdio_output@@@2@@__crt_stdio_output@@AAEX_KI_N@Z 1002a207 f i libucrt:output.obj
 0001:000292b9       ??$type_case_integer_parse_into_buffer@_K@?$output_processor@_WV?$stream_output_adapter@_W@__crt_stdio_output@@V?$format_validation_base@_WV?$stream_output_adapter@_W@__crt_stdio_output@@@2@@__crt_stdio_output@@AAEX_KI_N@Z 1002a2b9 f i libucrt:output.obj
 0001:0002937c       ??$type_case_integer_parse_into_buffer@_K@?$output_processor@_WV?$stream_output_adapter@_W@__crt_stdio_output@@V?$positional_parameter_base@_WV?$stream_output_adapter@_W@__crt_stdio_output@@@2@@__crt_stdio_output@@AAEX_KI_N@Z 1002a37c f i libucrt:output.obj
 0001:0002943f       ??$type_case_integer_parse_into_buffer@_K@?$output_processor@_WV?$stream_output_adapter@_W@__crt_stdio_output@@V?$standard_base@_WV?$stream_output_adapter@_W@__crt_stdio_output@@@2@@__crt_stdio_output@@AAEX_KI_N@Z 1002a43f f i libucrt:output.obj
 0001:00029502       ??$type_case_integer_parse_into_buffer@_K@?$output_processor@_WV?$string_output_adapter@_W@__crt_stdio_output@@V?$format_validation_base@_WV?$string_output_adapter@_W@__crt_stdio_output@@@2@@__crt_stdio_output@@AAEX_KI_N@Z 1002a502 f i libucrt:output.obj
 0001:000295c5       ??$type_case_integer_parse_into_buffer@_K@?$output_processor@_WV?$string_output_adapter@_W@__crt_stdio_output@@V?$positional_parameter_base@_WV?$string_output_adapter@_W@__crt_stdio_output@@@2@@__crt_stdio_output@@AAEX_KI_N@Z 1002a5c5 f i libucrt:output.obj
 0001:00029688       ??$type_case_integer_parse_into_buffer@_K@?$output_processor@_WV?$string_output_adapter@_W@__crt_stdio_output@@V?$standard_base@_WV?$string_output_adapter@_W@__crt_stdio_output@@@2@@__crt_stdio_output@@AAEX_KI_N@Z 1002a688 f i libucrt:output.obj
 0001:0002974b       ??$write_multiple_characters@V?$stream_output_adapter@D@__crt_stdio_output@@D@__crt_stdio_output@@YAXABV?$stream_output_adapter@D@0@DHQAH@Z 1002a74b f i libucrt:output.obj
 0001:00029794       ??$write_multiple_characters@V?$stream_output_adapter@_W@__crt_stdio_output@@D@__crt_stdio_output@@YAXABV?$stream_output_adapter@_W@0@DHQAH@Z 1002a794 f i libucrt:output.obj
 0001:000297e4       ??$write_multiple_characters@V?$string_output_adapter@D@__crt_stdio_output@@D@__crt_stdio_output@@YAXABV?$string_output_adapter@D@0@DHQAH@Z 1002a7e4 f i libucrt:output.obj
 0001:0002981b       ??$write_multiple_characters@V?$string_output_adapter@_W@__crt_stdio_output@@D@__crt_stdio_output@@YAXABV?$string_output_adapter@_W@0@DHQAH@Z 1002a81b f i libucrt:output.obj
 0001:00029a8c       ??0?$common_data@D@__crt_stdio_output@@IAE@XZ 1002aa8c f i libucrt:output.obj
 0001:00029ae4       ??0?$common_data@_W@__crt_stdio_output@@IAE@XZ 1002aae4 f i libucrt:output.obj
 0001:00029b43       ??0?$output_adapter_data@DV?$stream_output_adapter@D@__crt_stdio_output@@@__crt_stdio_output@@IAE@ABV?$stream_output_adapter@D@1@_KQBDQAU__crt_locale_pointers@@QAD@Z 1002ab43 f i libucrt:output.obj
 0001:00029b8e       ??0?$output_adapter_data@DV?$string_output_adapter@D@__crt_stdio_output@@@__crt_stdio_output@@IAE@ABV?$string_output_adapter@D@1@_KQBDQAU__crt_locale_pointers@@QAD@Z 1002ab8e f i libucrt:output.obj
 0001:00029bd9       ??0?$output_adapter_data@_WV?$stream_output_adapter@_W@__crt_stdio_output@@@__crt_stdio_output@@IAE@ABV?$stream_output_adapter@_W@1@_KQB_WQAU__crt_locale_pointers@@QAD@Z 1002abd9 f i libucrt:output.obj
 0001:00029c24       ??0?$output_adapter_data@_WV?$string_output_adapter@_W@__crt_stdio_output@@@__crt_stdio_output@@IAE@ABV?$string_output_adapter@_W@1@_KQB_WQAU__crt_locale_pointers@@QAD@Z 1002ac24 f i libucrt:output.obj
 0001:00029c6f       ??0?$output_processor@DV?$stream_output_adapter@D@__crt_stdio_output@@V?$format_validation_base@DV?$stream_output_adapter@D@__crt_stdio_output@@@2@@__crt_stdio_output@@QAE@ABV?$stream_output_adapter@D@1@_KQBDQAU__crt_locale_pointers@@QAD@Z 1002ac6f f i libucrt:output.obj
 0001:00029ca7       ??0?$output_processor@DV?$stream_output_adapter@D@__crt_stdio_output@@V?$positional_parameter_base@DV?$stream_output_adapter@D@__crt_stdio_output@@@2@@__crt_stdio_output@@QAE@ABV?$stream_output_adapter@D@1@_KQBDQAU__crt_locale_pointers@@QAD@Z 1002aca7 f i libucrt:output.obj
 0001:00029cd7       ??0?$output_processor@DV?$stream_output_adapter@D@__crt_stdio_output@@V?$standard_base@DV?$stream_output_adapter@D@__crt_stdio_output@@@2@@__crt_stdio_output@@QAE@ABV?$stream_output_adapter@D@1@_KQBDQAU__crt_locale_pointers@@QAD@Z 1002acd7 f i libucrt:output.obj
 0001:00029d0f       ??0?$output_processor@DV?$string_output_adapter@D@__crt_stdio_output@@V?$format_validation_base@DV?$string_output_adapter@D@__crt_stdio_output@@@2@@__crt_stdio_output@@QAE@ABV?$string_output_adapter@D@1@_KQBDQAU__crt_locale_pointers@@QAD@Z 1002ad0f f i libucrt:output.obj
 0001:00029d47       ??0?$output_processor@DV?$string_output_adapter@D@__crt_stdio_output@@V?$positional_parameter_base@DV?$string_output_adapter@D@__crt_stdio_output@@@2@@__crt_stdio_output@@QAE@ABV?$string_output_adapter@D@1@_KQBDQAU__crt_locale_pointers@@QAD@Z 1002ad47 f i libucrt:output.obj
 0001:00029d77       ??0?$output_processor@DV?$string_output_adapter@D@__crt_stdio_output@@V?$standard_base@DV?$string_output_adapter@D@__crt_stdio_output@@@2@@__crt_stdio_output@@QAE@ABV?$string_output_adapter@D@1@_KQBDQAU__crt_locale_pointers@@QAD@Z 1002ad77 f i libucrt:output.obj
 0001:00029daf       ??0?$output_processor@_WV?$stream_output_adapter@_W@__crt_stdio_output@@V?$format_validation_base@_WV?$stream_output_adapter@_W@__crt_stdio_output@@@2@@__crt_stdio_output@@QAE@ABV?$stream_output_adapter@_W@1@_KQB_WQAU__crt_locale_pointers@@QAD@Z 1002adaf f i libucrt:output.obj
 0001:00029de7       ??0?$output_processor@_WV?$stream_output_adapter@_W@__crt_stdio_output@@V?$positional_parameter_base@_WV?$stream_output_adapter@_W@__crt_stdio_output@@@2@@__crt_stdio_output@@QAE@ABV?$stream_output_adapter@_W@1@_KQB_WQAU__crt_locale_pointers@@QAD@Z 1002ade7 f i libucrt:output.obj
 0001:00029e17       ??0?$output_processor@_WV?$stream_output_adapter@_W@__crt_stdio_output@@V?$standard_base@_WV?$stream_output_adapter@_W@__crt_stdio_output@@@2@@__crt_stdio_output@@QAE@ABV?$stream_output_adapter@_W@1@_KQB_WQAU__crt_locale_pointers@@QAD@Z 1002ae17 f i libucrt:output.obj
 0001:00029e4f       ??0?$output_processor@_WV?$string_output_adapter@_W@__crt_stdio_output@@V?$format_validation_base@_WV?$string_output_adapter@_W@__crt_stdio_output@@@2@@__crt_stdio_output@@QAE@ABV?$string_output_adapter@_W@1@_KQB_WQAU__crt_locale_pointers@@QAD@Z 1002ae4f f i libucrt:output.obj
 0001:00029e87       ??0?$output_processor@_WV?$string_output_adapter@_W@__crt_stdio_output@@V?$positional_parameter_base@_WV?$string_output_adapter@_W@__crt_stdio_output@@@2@@__crt_stdio_output@@QAE@ABV?$string_output_adapter@_W@1@_KQB_WQAU__crt_locale_pointers@@QAD@Z 1002ae87 f i libucrt:output.obj
 0001:00029eb7       ??0?$output_processor@_WV?$string_output_adapter@_W@__crt_stdio_output@@V?$standard_base@_WV?$string_output_adapter@_W@__crt_stdio_output@@@2@@__crt_stdio_output@@QAE@ABV?$string_output_adapter@_W@1@_KQB_WQAU__crt_locale_pointers@@QAD@Z 1002aeb7 f i libucrt:output.obj
 0001:00029eef       ??0?$stream_output_adapter@D@__crt_stdio_output@@QAE@QAU_iobuf@@@Z 1002aeef f i libucrt:output.obj
 0001:00029f03       ??0?$stream_output_adapter@_W@__crt_stdio_output@@QAE@QAU_iobuf@@@Z 1002af03 f i libucrt:output.obj
 0001:00029f17       ??0?$string_output_adapter@D@__crt_stdio_output@@QAE@QAU?$string_output_adapter_context@D@1@@Z 1002af17 f i libucrt:output.obj
 0001:00029f2b       ??0?$string_output_adapter@_W@__crt_stdio_output@@QAE@QAU?$string_output_adapter_context@_W@1@@Z 1002af2b f i libucrt:output.obj
 0001:00029f3f       ??0_LocaleUpdate@@QAE@QAU__crt_locale_pointers@@@Z 1002af3f f i libucrt:output.obj
 0001:00029fe2       ??0__acrt_stdio_temporary_buffering_guard@@QAE@QAU_iobuf@@@Z 1002afe2 f i libucrt:output.obj
 0001:0002a007       ??0__crt_deferred_errno_cache@@QAE@XZ 1002b007 f i libucrt:output.obj
 0001:0002a00d       ??0__crt_errno_guard@@QAE@QAH@Z 1002b00d f i libucrt:output.obj
 0001:0002a02b       ??0formatting_buffer@__crt_stdio_output@@QAE@XZ 1002b02b f i libucrt:output.obj
 0001:0002a040       ??1?$common_data@D@__crt_stdio_output@@QAE@XZ 1002b040 f i libucrt:output.obj
 0001:0002a04a       ??1?$common_data@_W@__crt_stdio_output@@QAE@XZ 1002b04a f i libucrt:output.obj
 0001:0002a054       ??1?$format_validation_base@DV?$stream_output_adapter@D@__crt_stdio_output@@@__crt_stdio_output@@QAE@XZ 1002b054 f i libucrt:output.obj
 0001:0002a05e       ??1?$format_validation_base@DV?$string_output_adapter@D@__crt_stdio_output@@@__crt_stdio_output@@QAE@XZ 1002b05e f i libucrt:output.obj
 0001:0002a068       ??1?$format_validation_base@_WV?$stream_output_adapter@_W@__crt_stdio_output@@@__crt_stdio_output@@QAE@XZ 1002b068 f i libucrt:output.obj
 0001:0002a072       ??1?$format_validation_base@_WV?$string_output_adapter@_W@__crt_stdio_output@@@__crt_stdio_output@@QAE@XZ 1002b072 f i libucrt:output.obj
 0001:0002a07c       ??1?$output_adapter_data@DV?$stream_output_adapter@D@__crt_stdio_output@@@__crt_stdio_output@@QAE@XZ 1002b07c f i libucrt:output.obj
 0001:0002a086       ??1?$output_adapter_data@DV?$string_output_adapter@D@__crt_stdio_output@@@__crt_stdio_output@@QAE@XZ 1002b086 f i libucrt:output.obj
 0001:0002a090       ??1?$output_adapter_data@_WV?$stream_output_adapter@_W@__crt_stdio_output@@@__crt_stdio_output@@QAE@XZ 1002b090 f i libucrt:output.obj
 0001:0002a09a       ??1?$output_adapter_data@_WV?$string_output_adapter@_W@__crt_stdio_output@@@__crt_stdio_output@@QAE@XZ 1002b09a f i libucrt:output.obj
 0001:0002a0a4       ??1?$output_processor@DV?$stream_output_adapter@D@__crt_stdio_output@@V?$format_validation_base@DV?$stream_output_adapter@D@__crt_stdio_output@@@2@@__crt_stdio_output@@QAE@XZ 1002b0a4 f i libucrt:output.obj
 0001:0002a0ae       ??1?$output_processor@DV?$stream_output_adapter@D@__crt_stdio_output@@V?$positional_parameter_base@DV?$stream_output_adapter@D@__crt_stdio_output@@@2@@__crt_stdio_output@@QAE@XZ 1002b0ae f i libucrt:output.obj
 0001:0002a0b8       ??1?$output_processor@DV?$stream_output_adapter@D@__crt_stdio_output@@V?$standard_base@DV?$stream_output_adapter@D@__crt_stdio_output@@@2@@__crt_stdio_output@@QAE@XZ 1002b0b8 f i libucrt:output.obj
 0001:0002a0c2       ??1?$output_processor@DV?$string_output_adapter@D@__crt_stdio_output@@V?$format_validation_base@DV?$string_output_adapter@D@__crt_stdio_output@@@2@@__crt_stdio_output@@QAE@XZ 1002b0c2 f i libucrt:output.obj
 0001:0002a0cc       ??1?$output_processor@DV?$string_output_adapter@D@__crt_stdio_output@@V?$positional_parameter_base@DV?$string_output_adapter@D@__crt_stdio_output@@@2@@__crt_stdio_output@@QAE@XZ 1002b0cc f i libucrt:output.obj
 0001:0002a0d6       ??1?$output_processor@DV?$string_output_adapter@D@__crt_stdio_output@@V?$standard_base@DV?$string_output_adapter@D@__crt_stdio_output@@@2@@__crt_stdio_output@@QAE@XZ 1002b0d6 f i libucrt:output.obj
 0001:0002a0e0       ??1?$output_processor@_WV?$stream_output_adapter@_W@__crt_stdio_output@@V?$format_validation_base@_WV?$stream_output_adapter@_W@__crt_stdio_output@@@2@@__crt_stdio_output@@QAE@XZ 1002b0e0 f i libucrt:output.obj
 0001:0002a0ea       ??1?$output_processor@_WV?$stream_output_adapter@_W@__crt_stdio_output@@V?$positional_parameter_base@_WV?$stream_output_adapter@_W@__crt_stdio_output@@@2@@__crt_stdio_output@@QAE@XZ 1002b0ea f i libucrt:output.obj
 0001:0002a0f4       ??1?$output_processor@_WV?$stream_output_adapter@_W@__crt_stdio_output@@V?$standard_base@_WV?$stream_output_adapter@_W@__crt_stdio_output@@@2@@__crt_stdio_output@@QAE@XZ 1002b0f4 f i libucrt:output.obj
 0001:0002a0fe       ??1?$output_processor@_WV?$string_output_adapter@_W@__crt_stdio_output@@V?$format_validation_base@_WV?$string_output_adapter@_W@__crt_stdio_output@@@2@@__crt_stdio_output@@QAE@XZ 1002b0fe f i libucrt:output.obj
 0001:0002a108       ??1?$output_processor@_WV?$string_output_adapter@_W@__crt_stdio_output@@V?$positional_parameter_base@_WV?$string_output_adapter@_W@__crt_stdio_output@@@2@@__crt_stdio_output@@QAE@XZ 1002b108 f i libucrt:output.obj
 0001:0002a112       ??1?$output_processor@_WV?$string_output_adapter@_W@__crt_stdio_output@@V?$standard_base@_WV?$string_output_adapter@_W@__crt_stdio_output@@@2@@__crt_stdio_output@@QAE@XZ 1002b112 f i libucrt:output.obj
 0001:0002a11c       ??1?$positional_parameter_base@DV?$stream_output_adapter@D@__crt_stdio_output@@@__crt_stdio_output@@QAE@XZ 1002b11c f i libucrt:output.obj
 0001:0002a126       ??1?$positional_parameter_base@DV?$string_output_adapter@D@__crt_stdio_output@@@__crt_stdio_output@@QAE@XZ 1002b126 f i libucrt:output.obj
 0001:0002a130       ??1?$positional_parameter_base@_WV?$stream_output_adapter@_W@__crt_stdio_output@@@__crt_stdio_output@@QAE@XZ 1002b130 f i libucrt:output.obj
 0001:0002a13a       ??1?$positional_parameter_base@_WV?$string_output_adapter@_W@__crt_stdio_output@@@__crt_stdio_output@@QAE@XZ 1002b13a f i libucrt:output.obj
 0001:0002a144       ??1?$standard_base@DV?$stream_output_adapter@D@__crt_stdio_output@@@__crt_stdio_output@@QAE@XZ 1002b144 f i libucrt:output.obj
 0001:0002a14e       ??1?$standard_base@DV?$string_output_adapter@D@__crt_stdio_output@@@__crt_stdio_output@@QAE@XZ 1002b14e f i libucrt:output.obj
 0001:0002a158       ??1?$standard_base@_WV?$stream_output_adapter@_W@__crt_stdio_output@@@__crt_stdio_output@@QAE@XZ 1002b158 f i libucrt:output.obj
 0001:0002a162       ??1?$standard_base@_WV?$string_output_adapter@_W@__crt_stdio_output@@@__crt_stdio_output@@QAE@XZ 1002b162 f i libucrt:output.obj
 0001:0002a16c       ??1_LocaleUpdate@@QAE@XZ   1002b16c f i libucrt:output.obj
 0001:0002a180       ??1__acrt_stdio_temporary_buffering_guard@@QAE@XZ 1002b180 f i libucrt:output.obj
 0001:0002a192       ??1__crt_errno_guard@@QAE@XZ 1002b192 f i libucrt:output.obj
 0001:0002a1a7       ??1formatting_buffer@__crt_stdio_output@@QAE@XZ 1002b1a7 f i libucrt:output.obj
 0001:0002a1c7       ??4?$__crt_unique_heap_ptr@DU__crt_internal_free_policy@@@@QAEAAV0@$$QAV0@@Z 1002b1c7 f i libucrt:output.obj
 0001:0002a8a2       ?GetLocaleT@_LocaleUpdate@@QAEPAU__crt_locale_pointers@@XZ 1002b8a2 f i libucrt:output.obj
 0001:0002a8a6       ?adjust_hexit@?$output_processor@DV?$stream_output_adapter@D@__crt_stdio_output@@V?$format_validation_base@DV?$stream_output_adapter@D@__crt_stdio_output@@@2@@__crt_stdio_output@@CADH_N@Z 1002b8a6 f i libucrt:output.obj
 0001:0002a8bf       ?adjust_hexit@?$output_processor@DV?$stream_output_adapter@D@__crt_stdio_output@@V?$positional_parameter_base@DV?$stream_output_adapter@D@__crt_stdio_output@@@2@@__crt_stdio_output@@CADH_N@Z 1002b8bf f i libucrt:output.obj
 0001:0002a8d8       ?adjust_hexit@?$output_processor@DV?$stream_output_adapter@D@__crt_stdio_output@@V?$standard_base@DV?$stream_output_adapter@D@__crt_stdio_output@@@2@@__crt_stdio_output@@CADH_N@Z 1002b8d8 f i libucrt:output.obj
 0001:0002a8f1       ?adjust_hexit@?$output_processor@DV?$string_output_adapter@D@__crt_stdio_output@@V?$format_validation_base@DV?$string_output_adapter@D@__crt_stdio_output@@@2@@__crt_stdio_output@@CADH_N@Z 1002b8f1 f i libucrt:output.obj
 0001:0002a90a       ?adjust_hexit@?$output_processor@DV?$string_output_adapter@D@__crt_stdio_output@@V?$positional_parameter_base@DV?$string_output_adapter@D@__crt_stdio_output@@@2@@__crt_stdio_output@@CADH_N@Z 1002b90a f i libucrt:output.obj
 0001:0002a923       ?adjust_hexit@?$output_processor@DV?$string_output_adapter@D@__crt_stdio_output@@V?$standard_base@DV?$string_output_adapter@D@__crt_stdio_output@@@2@@__crt_stdio_output@@CADH_N@Z 1002b923 f i libucrt:output.obj
 0001:0002a93c       ?adjust_hexit@?$output_processor@_WV?$stream_output_adapter@_W@__crt_stdio_output@@V?$format_validation_base@_WV?$stream_output_adapter@_W@__crt_stdio_output@@@2@@__crt_stdio_output@@CADH_N@Z 1002b93c f i libucrt:output.obj
 0001:0002a955       ?adjust_hexit@?$output_processor@_WV?$stream_output_adapter@_W@__crt_stdio_output@@V?$positional_parameter_base@_WV?$stream_output_adapter@_W@__crt_stdio_output@@@2@@__crt_stdio_output@@CADH_N@Z 1002b955 f i libucrt:output.obj
 0001:0002a96e       ?adjust_hexit@?$output_processor@_WV?$stream_output_adapter@_W@__crt_stdio_output@@V?$standard_base@_WV?$stream_output_adapter@_W@__crt_stdio_output@@@2@@__crt_stdio_output@@CADH_N@Z 1002b96e f i libucrt:output.obj
 0001:0002a987       ?adjust_hexit@?$output_processor@_WV?$string_output_adapter@_W@__crt_stdio_output@@V?$format_validation_base@_WV?$string_output_adapter@_W@__crt_stdio_output@@@2@@__crt_stdio_output@@CADH_N@Z 1002b987 f i libucrt:output.obj
 0001:0002a9a0       ?adjust_hexit@?$output_processor@_WV?$string_output_adapter@_W@__crt_stdio_output@@V?$positional_parameter_base@_WV?$string_output_adapter@_W@__crt_stdio_output@@@2@@__crt_stdio_output@@CADH_N@Z 1002b9a0 f i libucrt:output.obj
 0001:0002a9b9       ?adjust_hexit@?$output_processor@_WV?$string_output_adapter@_W@__crt_stdio_output@@V?$standard_base@_WV?$string_output_adapter@_W@__crt_stdio_output@@@2@@__crt_stdio_output@@CADH_N@Z 1002b9b9 f i libucrt:output.obj
 0001:0002a9d2       ?advance_to_next_pass@?$positional_parameter_base@DV?$stream_output_adapter@D@__crt_stdio_output@@@__crt_stdio_output@@IAE_NXZ 1002b9d2 f i libucrt:output.obj
 0001:0002aa31       ?advance_to_next_pass@?$positional_parameter_base@DV?$string_output_adapter@D@__crt_stdio_output@@@__crt_stdio_output@@IAE_NXZ 1002ba31 f i libucrt:output.obj
 0001:0002aa90       ?advance_to_next_pass@?$positional_parameter_base@_WV?$stream_output_adapter@_W@__crt_stdio_output@@@__crt_stdio_output@@IAE_NXZ 1002ba90 f i libucrt:output.obj
 0001:0002aaef       ?advance_to_next_pass@?$positional_parameter_base@_WV?$string_output_adapter@_W@__crt_stdio_output@@@__crt_stdio_output@@IAE_NXZ 1002baef f i libucrt:output.obj
 0001:0002ab4e       ?advance_to_next_pass@?$standard_base@DV?$stream_output_adapter@D@__crt_stdio_output@@@__crt_stdio_output@@IAE_NXZ 1002bb4e f i libucrt:output.obj
 0001:0002ab63       ?advance_to_next_pass@?$standard_base@DV?$string_output_adapter@D@__crt_stdio_output@@@__crt_stdio_output@@IAE_NXZ 1002bb63 f i libucrt:output.obj
 0001:0002ab78       ?advance_to_next_pass@?$standard_base@_WV?$stream_output_adapter@_W@__crt_stdio_output@@@__crt_stdio_output@@IAE_NXZ 1002bb78 f i libucrt:output.obj
 0001:0002ab8d       ?advance_to_next_pass@?$standard_base@_WV?$string_output_adapter@_W@__crt_stdio_output@@@__crt_stdio_output@@IAE_NXZ 1002bb8d f i libucrt:output.obj
 0001:0002aba2       ?crop_zeroes@__crt_stdio_output@@YAXPADQAU__crt_locale_pointers@@@Z 1002bba2 f i libucrt:output.obj
 0001:0002ac1a       ?find_next_state@?$output_processor@DV?$stream_output_adapter@D@__crt_stdio_output@@V?$format_validation_base@DV?$stream_output_adapter@D@__crt_stdio_output@@@2@@__crt_stdio_output@@ABE?AW4state@2@DW432@@Z 1002bc1a f i libucrt:output.obj
 0001:0002ac6c       ?find_next_state@?$output_processor@DV?$stream_output_adapter@D@__crt_stdio_output@@V?$positional_parameter_base@DV?$stream_output_adapter@D@__crt_stdio_output@@@2@@__crt_stdio_output@@ABE?AW4state@2@DW432@@Z 1002bc6c f i libucrt:output.obj
 0001:0002acbe       ?find_next_state@?$output_processor@DV?$stream_output_adapter@D@__crt_stdio_output@@V?$standard_base@DV?$stream_output_adapter@D@__crt_stdio_output@@@2@@__crt_stdio_output@@ABE?AW4state@2@DW432@@Z 1002bcbe f i libucrt:output.obj
 0001:0002ad0c       ?find_next_state@?$output_processor@DV?$string_output_adapter@D@__crt_stdio_output@@V?$format_validation_base@DV?$string_output_adapter@D@__crt_stdio_output@@@2@@__crt_stdio_output@@ABE?AW4state@2@DW432@@Z 1002bd0c f i libucrt:output.obj
 0001:0002ad5e       ?find_next_state@?$output_processor@DV?$string_output_adapter@D@__crt_stdio_output@@V?$positional_parameter_base@DV?$string_output_adapter@D@__crt_stdio_output@@@2@@__crt_stdio_output@@ABE?AW4state@2@DW432@@Z 1002bd5e f i libucrt:output.obj
 0001:0002adb0       ?find_next_state@?$output_processor@DV?$string_output_adapter@D@__crt_stdio_output@@V?$standard_base@DV?$string_output_adapter@D@__crt_stdio_output@@@2@@__crt_stdio_output@@ABE?AW4state@2@DW432@@Z 1002bdb0 f i libucrt:output.obj
 0001:0002adfe       ?find_next_state@?$output_processor@_WV?$stream_output_adapter@_W@__crt_stdio_output@@V?$format_validation_base@_WV?$stream_output_adapter@_W@__crt_stdio_output@@@2@@__crt_stdio_output@@ABE?AW4state@2@_WW432@@Z 1002bdfe f i libucrt:output.obj
 0001:0002ae53       ?find_next_state@?$output_processor@_WV?$stream_output_adapter@_W@__crt_stdio_output@@V?$positional_parameter_base@_WV?$stream_output_adapter@_W@__crt_stdio_output@@@2@@__crt_stdio_output@@ABE?AW4state@2@_WW432@@Z 1002be53 f i libucrt:output.obj
 0001:0002aea8       ?find_next_state@?$output_processor@_WV?$stream_output_adapter@_W@__crt_stdio_output@@V?$standard_base@_WV?$stream_output_adapter@_W@__crt_stdio_output@@@2@@__crt_stdio_output@@ABE?AW4state@2@_WW432@@Z 1002bea8 f i libucrt:output.obj
 0001:0002aef9       ?find_next_state@?$output_processor@_WV?$string_output_adapter@_W@__crt_stdio_output@@V?$format_validation_base@_WV?$string_output_adapter@_W@__crt_stdio_output@@@2@@__crt_stdio_output@@ABE?AW4state@2@_WW432@@Z 1002bef9 f i libucrt:output.obj
 0001:0002af4e       ?find_next_state@?$output_processor@_WV?$string_output_adapter@_W@__crt_stdio_output@@V?$positional_parameter_base@_WV?$string_output_adapter@_W@__crt_stdio_output@@@2@@__crt_stdio_output@@ABE?AW4state@2@_WW432@@Z 1002bf4e f i libucrt:output.obj
 0001:0002afa3       ?find_next_state@?$output_processor@_WV?$string_output_adapter@_W@__crt_stdio_output@@V?$standard_base@_WV?$string_output_adapter@_W@__crt_stdio_output@@@2@@__crt_stdio_output@@ABE?AW4state@2@_WW432@@Z 1002bfa3 f i libucrt:output.obj
 0001:0002aff4       ?force_decimal_point@__crt_stdio_output@@YAXPADQAU__crt_locale_pointers@@@Z 1002bff4 f i libucrt:output.obj
 0001:0002b067       ?get@__crt_deferred_errno_cache@@QAEAAHXZ 1002c067 f i libucrt:output.obj
 0001:0002b080       ?get_flags@__crt_stdio_stream@@QBEJXZ 1002c080 f i libucrt:output.obj
 0001:0002b086       ?get_parameter_type@?$positional_parameter_base@DV?$stream_output_adapter@D@__crt_stdio_output@@@__crt_stdio_output@@CA?AW4parameter_type@12@F@Z 1002c086 f i libucrt:output.obj
 0001:0002b08a       ?get_parameter_type@?$positional_parameter_base@DV?$stream_output_adapter@D@__crt_stdio_output@@@__crt_stdio_output@@CA?AW4parameter_type@12@G@Z 1002c08a f i libucrt:output.obj
 0001:0002b08e       ?get_parameter_type@?$positional_parameter_base@DV?$stream_output_adapter@D@__crt_stdio_output@@@__crt_stdio_output@@CA?AW4parameter_type@12@H@Z 1002c08e f i libucrt:output.obj
 0001:0002b092       ?get_parameter_type@?$positional_parameter_base@DV?$stream_output_adapter@D@__crt_stdio_output@@@__crt_stdio_output@@CA?AW4parameter_type@12@I@Z 1002c092 f i libucrt:output.obj
 0001:0002b096       ?get_parameter_type@?$positional_parameter_base@DV?$stream_output_adapter@D@__crt_stdio_output@@@__crt_stdio_output@@CA?AW4parameter_type@12@U_CRT_DOUBLE@@@Z 1002c096 f i libucrt:output.obj
 0001:0002b09a       ?get_parameter_type@?$positional_parameter_base@DV?$stream_output_adapter@D@__crt_stdio_output@@@__crt_stdio_output@@CA?AW4parameter_type@12@_J@Z 1002c09a f i libucrt:output.obj
 0001:0002b09e       ?get_parameter_type@?$positional_parameter_base@DV?$stream_output_adapter@D@__crt_stdio_output@@@__crt_stdio_output@@CA?AW4parameter_type@12@_K@Z 1002c09e f i libucrt:output.obj
 0001:0002b0a2       ?get_parameter_type@?$positional_parameter_base@DV?$stream_output_adapter@D@__crt_stdio_output@@@__crt_stdio_output@@CA?AW4parameter_type@12@_W@Z 1002c0a2 f i libucrt:output.obj
 0001:0002b0a6       ?get_parameter_type@?$positional_parameter_base@DV?$string_output_adapter@D@__crt_stdio_output@@@__crt_stdio_output@@CA?AW4parameter_type@12@F@Z 1002c0a6 f i libucrt:output.obj
 0001:0002b0aa       ?get_parameter_type@?$positional_parameter_base@DV?$string_output_adapter@D@__crt_stdio_output@@@__crt_stdio_output@@CA?AW4parameter_type@12@G@Z 1002c0aa f i libucrt:output.obj
 0001:0002b0ae       ?get_parameter_type@?$positional_parameter_base@DV?$string_output_adapter@D@__crt_stdio_output@@@__crt_stdio_output@@CA?AW4parameter_type@12@H@Z 1002c0ae f i libucrt:output.obj
 0001:0002b0b2       ?get_parameter_type@?$positional_parameter_base@DV?$string_output_adapter@D@__crt_stdio_output@@@__crt_stdio_output@@CA?AW4parameter_type@12@I@Z 1002c0b2 f i libucrt:output.obj
 0001:0002b0b6       ?get_parameter_type@?$positional_parameter_base@DV?$string_output_adapter@D@__crt_stdio_output@@@__crt_stdio_output@@CA?AW4parameter_type@12@U_CRT_DOUBLE@@@Z 1002c0b6 f i libucrt:output.obj
 0001:0002b0ba       ?get_parameter_type@?$positional_parameter_base@DV?$string_output_adapter@D@__crt_stdio_output@@@__crt_stdio_output@@CA?AW4parameter_type@12@_J@Z 1002c0ba f i libucrt:output.obj
 0001:0002b0be       ?get_parameter_type@?$positional_parameter_base@DV?$string_output_adapter@D@__crt_stdio_output@@@__crt_stdio_output@@CA?AW4parameter_type@12@_K@Z 1002c0be f i libucrt:output.obj
 0001:0002b0c2       ?get_parameter_type@?$positional_parameter_base@DV?$string_output_adapter@D@__crt_stdio_output@@@__crt_stdio_output@@CA?AW4parameter_type@12@_W@Z 1002c0c2 f i libucrt:output.obj
 0001:0002b0c6       ?get_parameter_type@?$positional_parameter_base@_WV?$stream_output_adapter@_W@__crt_stdio_output@@@__crt_stdio_output@@CA?AW4parameter_type@12@F@Z 1002c0c6 f i libucrt:output.obj
 0001:0002b0ca       ?get_parameter_type@?$positional_parameter_base@_WV?$stream_output_adapter@_W@__crt_stdio_output@@@__crt_stdio_output@@CA?AW4parameter_type@12@G@Z 1002c0ca f i libucrt:output.obj
 0001:0002b0ce       ?get_parameter_type@?$positional_parameter_base@_WV?$stream_output_adapter@_W@__crt_stdio_output@@@__crt_stdio_output@@CA?AW4parameter_type@12@H@Z 1002c0ce f i libucrt:output.obj
 0001:0002b0d2       ?get_parameter_type@?$positional_parameter_base@_WV?$stream_output_adapter@_W@__crt_stdio_output@@@__crt_stdio_output@@CA?AW4parameter_type@12@I@Z 1002c0d2 f i libucrt:output.obj
 0001:0002b0d6       ?get_parameter_type@?$positional_parameter_base@_WV?$stream_output_adapter@_W@__crt_stdio_output@@@__crt_stdio_output@@CA?AW4parameter_type@12@U_CRT_DOUBLE@@@Z 1002c0d6 f i libucrt:output.obj
 0001:0002b0da       ?get_parameter_type@?$positional_parameter_base@_WV?$stream_output_adapter@_W@__crt_stdio_output@@@__crt_stdio_output@@CA?AW4parameter_type@12@_J@Z 1002c0da f i libucrt:output.obj
 0001:0002b0de       ?get_parameter_type@?$positional_parameter_base@_WV?$stream_output_adapter@_W@__crt_stdio_output@@@__crt_stdio_output@@CA?AW4parameter_type@12@_K@Z 1002c0de f i libucrt:output.obj
 0001:0002b0e2       ?get_parameter_type@?$positional_parameter_base@_WV?$stream_output_adapter@_W@__crt_stdio_output@@@__crt_stdio_output@@CA?AW4parameter_type@12@_W@Z 1002c0e2 f i libucrt:output.obj
 0001:0002b0e6       ?get_parameter_type@?$positional_parameter_base@_WV?$string_output_adapter@_W@__crt_stdio_output@@@__crt_stdio_output@@CA?AW4parameter_type@12@F@Z 1002c0e6 f i libucrt:output.obj
 0001:0002b0ea       ?get_parameter_type@?$positional_parameter_base@_WV?$string_output_adapter@_W@__crt_stdio_output@@@__crt_stdio_output@@CA?AW4parameter_type@12@G@Z 1002c0ea f i libucrt:output.obj
 0001:0002b0ee       ?get_parameter_type@?$positional_parameter_base@_WV?$string_output_adapter@_W@__crt_stdio_output@@@__crt_stdio_output@@CA?AW4parameter_type@12@H@Z 1002c0ee f i libucrt:output.obj
 0001:0002b0f2       ?get_parameter_type@?$positional_parameter_base@_WV?$string_output_adapter@_W@__crt_stdio_output@@@__crt_stdio_output@@CA?AW4parameter_type@12@I@Z 1002c0f2 f i libucrt:output.obj
 0001:0002b0f6       ?get_parameter_type@?$positional_parameter_base@_WV?$string_output_adapter@_W@__crt_stdio_output@@@__crt_stdio_output@@CA?AW4parameter_type@12@U_CRT_DOUBLE@@@Z 1002c0f6 f i libucrt:output.obj
 0001:0002b0fa       ?get_parameter_type@?$positional_parameter_base@_WV?$string_output_adapter@_W@__crt_stdio_output@@@__crt_stdio_output@@CA?AW4parameter_type@12@_J@Z 1002c0fa f i libucrt:output.obj
 0001:0002b0fe       ?get_parameter_type@?$positional_parameter_base@_WV?$string_output_adapter@_W@__crt_stdio_output@@@__crt_stdio_output@@CA?AW4parameter_type@12@_K@Z 1002c0fe f i libucrt:output.obj
 0001:0002b102       ?get_parameter_type@?$positional_parameter_base@_WV?$string_output_adapter@_W@__crt_stdio_output@@@__crt_stdio_output@@CA?AW4parameter_type@12@_W@Z 1002c102 f i libucrt:output.obj
 0001:0002b106       ?has_flag@?$output_processor@DV?$stream_output_adapter@D@__crt_stdio_output@@V?$format_validation_base@DV?$stream_output_adapter@D@__crt_stdio_output@@@2@@__crt_stdio_output@@ABE_NI@Z 1002c106 f i libucrt:output.obj
 0001:0002b11c       ?has_flag@?$output_processor@DV?$stream_output_adapter@D@__crt_stdio_output@@V?$positional_parameter_base@DV?$stream_output_adapter@D@__crt_stdio_output@@@2@@__crt_stdio_output@@ABE_NI@Z 1002c11c f i libucrt:output.obj
 0001:0002b132       ?has_flag@?$output_processor@DV?$stream_output_adapter@D@__crt_stdio_output@@V?$standard_base@DV?$stream_output_adapter@D@__crt_stdio_output@@@2@@__crt_stdio_output@@ABE_NI@Z 1002c132 f i libucrt:output.obj
 0001:0002b148       ?has_flag@?$output_processor@DV?$string_output_adapter@D@__crt_stdio_output@@V?$format_validation_base@DV?$string_output_adapter@D@__crt_stdio_output@@@2@@__crt_stdio_output@@ABE_NI@Z 1002c148 f i libucrt:output.obj
 0001:0002b15e       ?has_flag@?$output_processor@DV?$string_output_adapter@D@__crt_stdio_output@@V?$positional_parameter_base@DV?$string_output_adapter@D@__crt_stdio_output@@@2@@__crt_stdio_output@@ABE_NI@Z 1002c15e f i libucrt:output.obj
 0001:0002b174       ?has_flag@?$output_processor@DV?$string_output_adapter@D@__crt_stdio_output@@V?$standard_base@DV?$string_output_adapter@D@__crt_stdio_output@@@2@@__crt_stdio_output@@ABE_NI@Z 1002c174 f i libucrt:output.obj
 0001:0002b18a       ?has_flag@?$output_processor@_WV?$stream_output_adapter@_W@__crt_stdio_output@@V?$format_validation_base@_WV?$stream_output_adapter@_W@__crt_stdio_output@@@2@@__crt_stdio_output@@ABE_NI@Z 1002c18a f i libucrt:output.obj
 0001:0002b1a0       ?has_flag@?$output_processor@_WV?$stream_output_adapter@_W@__crt_stdio_output@@V?$positional_parameter_base@_WV?$stream_output_adapter@_W@__crt_stdio_output@@@2@@__crt_stdio_output@@ABE_NI@Z 1002c1a0 f i libucrt:output.obj
 0001:0002b1b6       ?has_flag@?$output_processor@_WV?$stream_output_adapter@_W@__crt_stdio_output@@V?$standard_base@_WV?$stream_output_adapter@_W@__crt_stdio_output@@@2@@__crt_stdio_output@@ABE_NI@Z 1002c1b6 f i libucrt:output.obj
 0001:0002b1cc       ?has_flag@?$output_processor@_WV?$string_output_adapter@_W@__crt_stdio_output@@V?$format_validation_base@_WV?$string_output_adapter@_W@__crt_stdio_output@@@2@@__crt_stdio_output@@ABE_NI@Z 1002c1cc f i libucrt:output.obj
 0001:0002b1e2       ?has_flag@?$output_processor@_WV?$string_output_adapter@_W@__crt_stdio_output@@V?$positional_parameter_base@_WV?$string_output_adapter@_W@__crt_stdio_output@@@2@@__crt_stdio_output@@ABE_NI@Z 1002c1e2 f i libucrt:output.obj
 0001:0002b1f8       ?has_flag@?$output_processor@_WV?$string_output_adapter@_W@__crt_stdio_output@@V?$standard_base@_WV?$string_output_adapter@_W@__crt_stdio_output@@@2@@__crt_stdio_output@@ABE_NI@Z 1002c1f8 f i libucrt:output.obj
 0001:0002b20e       ?is_positional_parameter_reappearance_consistent@?$positional_parameter_base@DV?$stream_output_adapter@D@__crt_stdio_output@@@__crt_stdio_output@@AAE_NABUparameter_data@12@W4parameter_type@12@DW4length_modifier@2@@Z 1002c20e f i libucrt:output.obj
 0001:0002b36e       ?is_positional_parameter_reappearance_consistent@?$positional_parameter_base@DV?$string_output_adapter@D@__crt_stdio_output@@@__crt_stdio_output@@AAE_NABUparameter_data@12@W4parameter_type@12@DW4length_modifier@2@@Z 1002c36e f i libucrt:output.obj
 0001:0002b4ce       ?is_positional_parameter_reappearance_consistent@?$positional_parameter_base@_WV?$stream_output_adapter@_W@__crt_stdio_output@@@__crt_stdio_output@@AAE_NABUparameter_data@12@W4parameter_type@12@_WW4length_modifier@2@@Z 1002c4ce f i libucrt:output.obj
 0001:0002b62d       ?is_positional_parameter_reappearance_consistent@?$positional_parameter_base@_WV?$string_output_adapter@_W@__crt_stdio_output@@@__crt_stdio_output@@AAE_NABUparameter_data@12@W4parameter_type@12@_WW4length_modifier@2@@Z 1002c62d f i libucrt:output.obj
 0001:0002b78c       ?is_string_backed@__crt_stdio_stream@@QBE_NXZ 1002c78c f i libucrt:output.obj
 0001:0002b799       ?narrow_null_string@?$output_processor@DV?$stream_output_adapter@D@__crt_stdio_output@@V?$format_validation_base@DV?$stream_output_adapter@D@__crt_stdio_output@@@2@@__crt_stdio_output@@CAPADXZ 1002c799 f i libucrt:output.obj
 0001:0002b79f       ?narrow_null_string@?$output_processor@DV?$stream_output_adapter@D@__crt_stdio_output@@V?$positional_parameter_base@DV?$stream_output_adapter@D@__crt_stdio_output@@@2@@__crt_stdio_output@@CAPADXZ 1002c79f f i libucrt:output.obj
 0001:0002b7a5       ?narrow_null_string@?$output_processor@DV?$stream_output_adapter@D@__crt_stdio_output@@V?$standard_base@DV?$stream_output_adapter@D@__crt_stdio_output@@@2@@__crt_stdio_output@@CAPADXZ 1002c7a5 f i libucrt:output.obj
 0001:0002b7ab       ?narrow_null_string@?$output_processor@DV?$string_output_adapter@D@__crt_stdio_output@@V?$format_validation_base@DV?$string_output_adapter@D@__crt_stdio_output@@@2@@__crt_stdio_output@@CAPADXZ 1002c7ab f i libucrt:output.obj
 0001:0002b7b1       ?narrow_null_string@?$output_processor@DV?$string_output_adapter@D@__crt_stdio_output@@V?$positional_parameter_base@DV?$string_output_adapter@D@__crt_stdio_output@@@2@@__crt_stdio_output@@CAPADXZ 1002c7b1 f i libucrt:output.obj
 0001:0002b7b7       ?narrow_null_string@?$output_processor@DV?$string_output_adapter@D@__crt_stdio_output@@V?$standard_base@DV?$string_output_adapter@D@__crt_stdio_output@@@2@@__crt_stdio_output@@CAPADXZ 1002c7b7 f i libucrt:output.obj
 0001:0002b7bd       ?narrow_null_string@?$output_processor@_WV?$stream_output_adapter@_W@__crt_stdio_output@@V?$format_validation_base@_WV?$stream_output_adapter@_W@__crt_stdio_output@@@2@@__crt_stdio_output@@CAPADXZ 1002c7bd f i libucrt:output.obj
 0001:0002b7c3       ?narrow_null_string@?$output_processor@_WV?$stream_output_adapter@_W@__crt_stdio_output@@V?$positional_parameter_base@_WV?$stream_output_adapter@_W@__crt_stdio_output@@@2@@__crt_stdio_output@@CAPADXZ 1002c7c3 f i libucrt:output.obj
 0001:0002b7c9       ?narrow_null_string@?$output_processor@_WV?$stream_output_adapter@_W@__crt_stdio_output@@V?$standard_base@_WV?$stream_output_adapter@_W@__crt_stdio_output@@@2@@__crt_stdio_output@@CAPADXZ 1002c7c9 f i libucrt:output.obj
 0001:0002b7cf       ?narrow_null_string@?$output_processor@_WV?$string_output_adapter@_W@__crt_stdio_output@@V?$format_validation_base@_WV?$string_output_adapter@_W@__crt_stdio_output@@@2@@__crt_stdio_output@@CAPADXZ 1002c7cf f i libucrt:output.obj
 0001:0002b7d5       ?narrow_null_string@?$output_processor@_WV?$string_output_adapter@_W@__crt_stdio_output@@V?$positional_parameter_base@_WV?$string_output_adapter@_W@__crt_stdio_output@@@2@@__crt_stdio_output@@CAPADXZ 1002c7d5 f i libucrt:output.obj
 0001:0002b7db       ?narrow_null_string@?$output_processor@_WV?$string_output_adapter@_W@__crt_stdio_output@@V?$standard_base@_WV?$string_output_adapter@_W@__crt_stdio_output@@@2@@__crt_stdio_output@@CAPADXZ 1002c7db f i libucrt:output.obj
 0001:0002b7e1       ?parse_int_from_format_string@?$output_processor@DV?$stream_output_adapter@D@__crt_stdio_output@@V?$format_validation_base@DV?$stream_output_adapter@D@__crt_stdio_output@@@2@@__crt_stdio_output@@AAE_NQAH@Z 1002c7e1 f i libucrt:output.obj
 0001:0002b874       ?parse_int_from_format_string@?$output_processor@DV?$stream_output_adapter@D@__crt_stdio_output@@V?$positional_parameter_base@DV?$stream_output_adapter@D@__crt_stdio_output@@@2@@__crt_stdio_output@@AAE_NQAH@Z 1002c874 f i libucrt:output.obj
 0001:0002b907       ?parse_int_from_format_string@?$output_processor@DV?$stream_output_adapter@D@__crt_stdio_output@@V?$standard_base@DV?$stream_output_adapter@D@__crt_stdio_output@@@2@@__crt_stdio_output@@AAE_NQAH@Z 1002c907 f i libucrt:output.obj
 0001:0002b99a       ?parse_int_from_format_string@?$output_processor@DV?$string_output_adapter@D@__crt_stdio_output@@V?$format_validation_base@DV?$string_output_adapter@D@__crt_stdio_output@@@2@@__crt_stdio_output@@AAE_NQAH@Z 1002c99a f i libucrt:output.obj
 0001:0002ba2d       ?parse_int_from_format_string@?$output_processor@DV?$string_output_adapter@D@__crt_stdio_output@@V?$positional_parameter_base@DV?$string_output_adapter@D@__crt_stdio_output@@@2@@__crt_stdio_output@@AAE_NQAH@Z 1002ca2d f i libucrt:output.obj
 0001:0002bac0       ?parse_int_from_format_string@?$output_processor@DV?$string_output_adapter@D@__crt_stdio_output@@V?$standard_base@DV?$string_output_adapter@D@__crt_stdio_output@@@2@@__crt_stdio_output@@AAE_NQAH@Z 1002cac0 f i libucrt:output.obj
 0001:0002bb53       ?parse_int_from_format_string@?$output_processor@_WV?$stream_output_adapter@_W@__crt_stdio_output@@V?$format_validation_base@_WV?$stream_output_adapter@_W@__crt_stdio_output@@@2@@__crt_stdio_output@@AAE_NQAH@Z 1002cb53 f i libucrt:output.obj
 0001:0002bbe9       ?parse_int_from_format_string@?$output_processor@_WV?$stream_output_adapter@_W@__crt_stdio_output@@V?$positional_parameter_base@_WV?$stream_output_adapter@_W@__crt_stdio_output@@@2@@__crt_stdio_output@@AAE_NQAH@Z 1002cbe9 f i libucrt:output.obj
 0001:0002bc7f       ?parse_int_from_format_string@?$output_processor@_WV?$stream_output_adapter@_W@__crt_stdio_output@@V?$standard_base@_WV?$stream_output_adapter@_W@__crt_stdio_output@@@2@@__crt_stdio_output@@AAE_NQAH@Z 1002cc7f f i libucrt:output.obj
 0001:0002bd15       ?parse_int_from_format_string@?$output_processor@_WV?$string_output_adapter@_W@__crt_stdio_output@@V?$format_validation_base@_WV?$string_output_adapter@_W@__crt_stdio_output@@@2@@__crt_stdio_output@@AAE_NQAH@Z 1002cd15 f i libucrt:output.obj
 0001:0002bdab       ?parse_int_from_format_string@?$output_processor@_WV?$string_output_adapter@_W@__crt_stdio_output@@V?$positional_parameter_base@_WV?$string_output_adapter@_W@__crt_stdio_output@@@2@@__crt_stdio_output@@AAE_NQAH@Z 1002cdab f i libucrt:output.obj
 0001:0002be41       ?parse_int_from_format_string@?$output_processor@_WV?$string_output_adapter@_W@__crt_stdio_output@@V?$standard_base@_WV?$string_output_adapter@_W@__crt_stdio_output@@@2@@__crt_stdio_output@@AAE_NQAH@Z 1002ce41 f i libucrt:output.obj
 0001:0002bed7       ?process@?$output_processor@DV?$stream_output_adapter@D@__crt_stdio_output@@V?$format_validation_base@DV?$stream_output_adapter@D@__crt_stdio_output@@@2@@__crt_stdio_output@@QAEHXZ 1002ced7 f i libucrt:output.obj
 0001:0002c049       ?process@?$output_processor@DV?$stream_output_adapter@D@__crt_stdio_output@@V?$positional_parameter_base@DV?$stream_output_adapter@D@__crt_stdio_output@@@2@@__crt_stdio_output@@QAEHXZ 1002d049 f i libucrt:output.obj
 0001:0002c1fc       ?process@?$output_processor@DV?$stream_output_adapter@D@__crt_stdio_output@@V?$standard_base@DV?$stream_output_adapter@D@__crt_stdio_output@@@2@@__crt_stdio_output@@QAEHXZ 1002d1fc f i libucrt:output.obj
 0001:0002c35f       ?process@?$output_processor@DV?$string_output_adapter@D@__crt_stdio_output@@V?$format_validation_base@DV?$string_output_adapter@D@__crt_stdio_output@@@2@@__crt_stdio_output@@QAEHXZ 1002d35f f i libucrt:output.obj
 0001:0002c4d1       ?process@?$output_processor@DV?$string_output_adapter@D@__crt_stdio_output@@V?$positional_parameter_base@DV?$string_output_adapter@D@__crt_stdio_output@@@2@@__crt_stdio_output@@QAEHXZ 1002d4d1 f i libucrt:output.obj
 0001:0002c684       ?process@?$output_processor@DV?$string_output_adapter@D@__crt_stdio_output@@V?$standard_base@DV?$string_output_adapter@D@__crt_stdio_output@@@2@@__crt_stdio_output@@QAEHXZ 1002d684 f i libucrt:output.obj
 0001:0002c7e7       ?process@?$output_processor@_WV?$stream_output_adapter@_W@__crt_stdio_output@@V?$format_validation_base@_WV?$stream_output_adapter@_W@__crt_stdio_output@@@2@@__crt_stdio_output@@QAEHXZ 1002d7e7 f i libucrt:output.obj
 0001:0002c963       ?process@?$output_processor@_WV?$stream_output_adapter@_W@__crt_stdio_output@@V?$positional_parameter_base@_WV?$stream_output_adapter@_W@__crt_stdio_output@@@2@@__crt_stdio_output@@QAEHXZ 1002d963 f i libucrt:output.obj
 0001:0002cb1b       ?process@?$output_processor@_WV?$stream_output_adapter@_W@__crt_stdio_output@@V?$standard_base@_WV?$stream_output_adapter@_W@__crt_stdio_output@@@2@@__crt_stdio_output@@QAEHXZ 1002db1b f i libucrt:output.obj
 0001:0002cc83       ?process@?$output_processor@_WV?$string_output_adapter@_W@__crt_stdio_output@@V?$format_validation_base@_WV?$string_output_adapter@_W@__crt_stdio_output@@@2@@__crt_stdio_output@@QAEHXZ 1002dc83 f i libucrt:output.obj
 0001:0002cdff       ?process@?$output_processor@_WV?$string_output_adapter@_W@__crt_stdio_output@@V?$positional_parameter_base@_WV?$string_output_adapter@_W@__crt_stdio_output@@@2@@__crt_stdio_output@@QAEHXZ 1002ddff f i libucrt:output.obj
 0001:0002cfb7       ?process@?$output_processor@_WV?$string_output_adapter@_W@__crt_stdio_output@@V?$standard_base@_WV?$string_output_adapter@_W@__crt_stdio_output@@@2@@__crt_stdio_output@@QAEHXZ 1002dfb7 f i libucrt:output.obj
 0001:0002d11f       ?public_stream@__crt_stdio_stream@@QBEPAU_iobuf@@XZ 1002e11f f i libucrt:output.obj
 0001:0002d122       ?set_flag@?$output_processor@DV?$stream_output_adapter@D@__crt_stdio_output@@V?$format_validation_base@DV?$stream_output_adapter@D@__crt_stdio_output@@@2@@__crt_stdio_output@@AAEXI@Z 1002e122 f i libucrt:output.obj
 0001:0002d134       ?set_flag@?$output_processor@DV?$stream_output_adapter@D@__crt_stdio_output@@V?$positional_parameter_base@DV?$stream_output_adapter@D@__crt_stdio_output@@@2@@__crt_stdio_output@@AAEXI@Z 1002e134 f i libucrt:output.obj
 0001:0002d146       ?set_flag@?$output_processor@DV?$stream_output_adapter@D@__crt_stdio_output@@V?$standard_base@DV?$stream_output_adapter@D@__crt_stdio_output@@@2@@__crt_stdio_output@@AAEXI@Z 1002e146 f i libucrt:output.obj
 0001:0002d158       ?set_flag@?$output_processor@DV?$string_output_adapter@D@__crt_stdio_output@@V?$format_validation_base@DV?$string_output_adapter@D@__crt_stdio_output@@@2@@__crt_stdio_output@@AAEXI@Z 1002e158 f i libucrt:output.obj
 0001:0002d16a       ?set_flag@?$output_processor@DV?$string_output_adapter@D@__crt_stdio_output@@V?$positional_parameter_base@DV?$string_output_adapter@D@__crt_stdio_output@@@2@@__crt_stdio_output@@AAEXI@Z 1002e16a f i libucrt:output.obj
 0001:0002d17c       ?set_flag@?$output_processor@DV?$string_output_adapter@D@__crt_stdio_output@@V?$standard_base@DV?$string_output_adapter@D@__crt_stdio_output@@@2@@__crt_stdio_output@@AAEXI@Z 1002e17c f i libucrt:output.obj
 0001:0002d18e       ?set_flag@?$output_processor@_WV?$stream_output_adapter@_W@__crt_stdio_output@@V?$format_validation_base@_WV?$stream_output_adapter@_W@__crt_stdio_output@@@2@@__crt_stdio_output@@AAEXI@Z 1002e18e f i libucrt:output.obj
 0001:0002d1a0       ?set_flag@?$output_processor@_WV?$stream_output_adapter@_W@__crt_stdio_output@@V?$positional_parameter_base@_WV?$stream_output_adapter@_W@__crt_stdio_output@@@2@@__crt_stdio_output@@AAEXI@Z 1002e1a0 f i libucrt:output.obj
 0001:0002d1b2       ?set_flag@?$output_processor@_WV?$stream_output_adapter@_W@__crt_stdio_output@@V?$standard_base@_WV?$stream_output_adapter@_W@__crt_stdio_output@@@2@@__crt_stdio_output@@AAEXI@Z 1002e1b2 f i libucrt:output.obj
 0001:0002d1c4       ?set_flag@?$output_processor@_WV?$string_output_adapter@_W@__crt_stdio_output@@V?$format_validation_base@_WV?$string_output_adapter@_W@__crt_stdio_output@@@2@@__crt_stdio_output@@AAEXI@Z 1002e1c4 f i libucrt:output.obj
 0001:0002d1d6       ?set_flag@?$output_processor@_WV?$string_output_adapter@_W@__crt_stdio_output@@V?$positional_parameter_base@_WV?$string_output_adapter@_W@__crt_stdio_output@@@2@@__crt_stdio_output@@AAEXI@Z 1002e1d6 f i libucrt:output.obj
 0001:0002d1e8       ?set_flag@?$output_processor@_WV?$string_output_adapter@_W@__crt_stdio_output@@V?$standard_base@_WV?$string_output_adapter@_W@__crt_stdio_output@@@2@@__crt_stdio_output@@AAEXI@Z 1002e1e8 f i libucrt:output.obj
 0001:0002d1fa       ?should_format@?$positional_parameter_base@DV?$stream_output_adapter@D@__crt_stdio_output@@@__crt_stdio_output@@IAE_NXZ 1002e1fa f i libucrt:output.obj
 0001:0002d215       ?should_format@?$positional_parameter_base@DV?$string_output_adapter@D@__crt_stdio_output@@@__crt_stdio_output@@IAE_NXZ 1002e215 f i libucrt:output.obj
 0001:0002d230       ?should_format@?$positional_parameter_base@_WV?$stream_output_adapter@_W@__crt_stdio_output@@@__crt_stdio_output@@IAE_NXZ 1002e230 f i libucrt:output.obj
 0001:0002d24b       ?should_format@?$positional_parameter_base@_WV?$string_output_adapter@_W@__crt_stdio_output@@@__crt_stdio_output@@IAE_NXZ 1002e24b f i libucrt:output.obj
 0001:0002d266       ?should_format@?$standard_base@DV?$stream_output_adapter@D@__crt_stdio_output@@@__crt_stdio_output@@IAE_NXZ 1002e266 f i libucrt:output.obj
 0001:0002d269       ?should_format@?$standard_base@DV?$string_output_adapter@D@__crt_stdio_output@@@__crt_stdio_output@@IAE_NXZ 1002e269 f i libucrt:output.obj
 0001:0002d26c       ?should_format@?$standard_base@_WV?$stream_output_adapter@_W@__crt_stdio_output@@@__crt_stdio_output@@IAE_NXZ 1002e26c f i libucrt:output.obj
 0001:0002d26f       ?should_format@?$standard_base@_WV?$string_output_adapter@_W@__crt_stdio_output@@@__crt_stdio_output@@IAE_NXZ 1002e26f f i libucrt:output.obj
 0001:0002d272       ?should_skip_normal_state_processing@?$positional_parameter_base@DV?$stream_output_adapter@D@__crt_stdio_output@@@__crt_stdio_output@@IAE_NXZ 1002e272 f i libucrt:output.obj
 0001:0002d2a4       ?should_skip_normal_state_processing@?$positional_parameter_base@DV?$string_output_adapter@D@__crt_stdio_output@@@__crt_stdio_output@@IAE_NXZ 1002e2a4 f i libucrt:output.obj
 0001:0002d2d6       ?should_skip_normal_state_processing@?$positional_parameter_base@_WV?$stream_output_adapter@_W@__crt_stdio_output@@@__crt_stdio_output@@IAE_NXZ 1002e2d6 f i libucrt:output.obj
 0001:0002d308       ?should_skip_normal_state_processing@?$positional_parameter_base@_WV?$string_output_adapter@_W@__crt_stdio_output@@@__crt_stdio_output@@IAE_NXZ 1002e308 f i libucrt:output.obj
 0001:0002d33a       ?should_skip_normal_state_processing@?$standard_base@DV?$stream_output_adapter@D@__crt_stdio_output@@@__crt_stdio_output@@IAE_NXZ 1002e33a f i libucrt:output.obj
 0001:0002d33d       ?should_skip_normal_state_processing@?$standard_base@DV?$string_output_adapter@D@__crt_stdio_output@@@__crt_stdio_output@@IAE_NXZ 1002e33d f i libucrt:output.obj
 0001:0002d340       ?should_skip_normal_state_processing@?$standard_base@_WV?$stream_output_adapter@_W@__crt_stdio_output@@@__crt_stdio_output@@IAE_NXZ 1002e340 f i libucrt:output.obj
 0001:0002d343       ?should_skip_normal_state_processing@?$standard_base@_WV?$string_output_adapter@_W@__crt_stdio_output@@@__crt_stdio_output@@IAE_NXZ 1002e343 f i libucrt:output.obj
 0001:0002d346       ?should_skip_type_state_output@?$positional_parameter_base@DV?$stream_output_adapter@D@__crt_stdio_output@@@__crt_stdio_output@@IBE_NXZ 1002e346 f i libucrt:output.obj
 0001:0002d362       ?should_skip_type_state_output@?$positional_parameter_base@DV?$string_output_adapter@D@__crt_stdio_output@@@__crt_stdio_output@@IBE_NXZ 1002e362 f i libucrt:output.obj
 0001:0002d37e       ?should_skip_type_state_output@?$positional_parameter_base@_WV?$stream_output_adapter@_W@__crt_stdio_output@@@__crt_stdio_output@@IBE_NXZ 1002e37e f i libucrt:output.obj
 0001:0002d39a       ?should_skip_type_state_output@?$positional_parameter_base@_WV?$string_output_adapter@_W@__crt_stdio_output@@@__crt_stdio_output@@IBE_NXZ 1002e39a f i libucrt:output.obj
 0001:0002d3b6       ?should_skip_type_state_output@?$standard_base@DV?$stream_output_adapter@D@__crt_stdio_output@@@__crt_stdio_output@@IBE_NXZ 1002e3b6 f i libucrt:output.obj
 0001:0002d3b9       ?should_skip_type_state_output@?$standard_base@DV?$string_output_adapter@D@__crt_stdio_output@@@__crt_stdio_output@@IBE_NXZ 1002e3b9 f i libucrt:output.obj
 0001:0002d3bc       ?should_skip_type_state_output@?$standard_base@_WV?$stream_output_adapter@_W@__crt_stdio_output@@@__crt_stdio_output@@IBE_NXZ 1002e3bc f i libucrt:output.obj
 0001:0002d3bf       ?should_skip_type_state_output@?$standard_base@_WV?$string_output_adapter@_W@__crt_stdio_output@@@__crt_stdio_output@@IBE_NXZ 1002e3bf f i libucrt:output.obj
 0001:0002d3c2       ?state_case_dot@?$output_processor@DV?$stream_output_adapter@D@__crt_stdio_output@@V?$format_validation_base@DV?$stream_output_adapter@D@__crt_stdio_output@@@2@@__crt_stdio_output@@AAE_NXZ 1002e3c2 f i libucrt:output.obj
 0001:0002d3c9       ?state_case_dot@?$output_processor@DV?$stream_output_adapter@D@__crt_stdio_output@@V?$positional_parameter_base@DV?$stream_output_adapter@D@__crt_stdio_output@@@2@@__crt_stdio_output@@AAE_NXZ 1002e3c9 f i libucrt:output.obj
 0001:0002d3d0       ?state_case_dot@?$output_processor@DV?$stream_output_adapter@D@__crt_stdio_output@@V?$standard_base@DV?$stream_output_adapter@D@__crt_stdio_output@@@2@@__crt_stdio_output@@AAE_NXZ 1002e3d0 f i libucrt:output.obj
 0001:0002d3d7       ?state_case_dot@?$output_processor@DV?$string_output_adapter@D@__crt_stdio_output@@V?$format_validation_base@DV?$string_output_adapter@D@__crt_stdio_output@@@2@@__crt_stdio_output@@AAE_NXZ 1002e3d7 f i libucrt:output.obj
 0001:0002d3de       ?state_case_dot@?$output_processor@DV?$string_output_adapter@D@__crt_stdio_output@@V?$positional_parameter_base@DV?$string_output_adapter@D@__crt_stdio_output@@@2@@__crt_stdio_output@@AAE_NXZ 1002e3de f i libucrt:output.obj
 0001:0002d3e5       ?state_case_dot@?$output_processor@DV?$string_output_adapter@D@__crt_stdio_output@@V?$standard_base@DV?$string_output_adapter@D@__crt_stdio_output@@@2@@__crt_stdio_output@@AAE_NXZ 1002e3e5 f i libucrt:output.obj
 0001:0002d3ec       ?state_case_dot@?$output_processor@_WV?$stream_output_adapter@_W@__crt_stdio_output@@V?$format_validation_base@_WV?$stream_output_adapter@_W@__crt_stdio_output@@@2@@__crt_stdio_output@@AAE_NXZ 1002e3ec f i libucrt:output.obj
 0001:0002d3f3       ?state_case_dot@?$output_processor@_WV?$stream_output_adapter@_W@__crt_stdio_output@@V?$positional_parameter_base@_WV?$stream_output_adapter@_W@__crt_stdio_output@@@2@@__crt_stdio_output@@AAE_NXZ 1002e3f3 f i libucrt:output.obj
 0001:0002d3fa       ?state_case_dot@?$output_processor@_WV?$stream_output_adapter@_W@__crt_stdio_output@@V?$standard_base@_WV?$stream_output_adapter@_W@__crt_stdio_output@@@2@@__crt_stdio_output@@AAE_NXZ 1002e3fa f i libucrt:output.obj
 0001:0002d401       ?state_case_dot@?$output_processor@_WV?$string_output_adapter@_W@__crt_stdio_output@@V?$format_validation_base@_WV?$string_output_adapter@_W@__crt_stdio_output@@@2@@__crt_stdio_output@@AAE_NXZ 1002e401 f i libucrt:output.obj
 0001:0002d408       ?state_case_dot@?$output_processor@_WV?$string_output_adapter@_W@__crt_stdio_output@@V?$positional_parameter_base@_WV?$string_output_adapter@_W@__crt_stdio_output@@@2@@__crt_stdio_output@@AAE_NXZ 1002e408 f i libucrt:output.obj
 0001:0002d40f       ?state_case_dot@?$output_processor@_WV?$string_output_adapter@_W@__crt_stdio_output@@V?$standard_base@_WV?$string_output_adapter@_W@__crt_stdio_output@@@2@@__crt_stdio_output@@AAE_NXZ 1002e40f f i libucrt:output.obj
 0001:0002d416       ?state_case_flag@?$output_processor@DV?$stream_output_adapter@D@__crt_stdio_output@@V?$format_validation_base@DV?$stream_output_adapter@D@__crt_stdio_output@@@2@@__crt_stdio_output@@AAE_NXZ 1002e416 f i libucrt:output.obj
 0001:0002d462       ?state_case_flag@?$output_processor@DV?$stream_output_adapter@D@__crt_stdio_output@@V?$positional_parameter_base@DV?$stream_output_adapter@D@__crt_stdio_output@@@2@@__crt_stdio_output@@AAE_NXZ 1002e462 f i libucrt:output.obj
 0001:0002d4ae       ?state_case_flag@?$output_processor@DV?$stream_output_adapter@D@__crt_stdio_output@@V?$standard_base@DV?$stream_output_adapter@D@__crt_stdio_output@@@2@@__crt_stdio_output@@AAE_NXZ 1002e4ae f i libucrt:output.obj
 0001:0002d4fa       ?state_case_flag@?$output_processor@DV?$string_output_adapter@D@__crt_stdio_output@@V?$format_validation_base@DV?$string_output_adapter@D@__crt_stdio_output@@@2@@__crt_stdio_output@@AAE_NXZ 1002e4fa f i libucrt:output.obj
 0001:0002d546       ?state_case_flag@?$output_processor@DV?$string_output_adapter@D@__crt_stdio_output@@V?$positional_parameter_base@DV?$string_output_adapter@D@__crt_stdio_output@@@2@@__crt_stdio_output@@AAE_NXZ 1002e546 f i libucrt:output.obj
 0001:0002d592       ?state_case_flag@?$output_processor@DV?$string_output_adapter@D@__crt_stdio_output@@V?$standard_base@DV?$string_output_adapter@D@__crt_stdio_output@@@2@@__crt_stdio_output@@AAE_NXZ 1002e592 f i libucrt:output.obj
 0001:0002d5de       ?state_case_flag@?$output_processor@_WV?$stream_output_adapter@_W@__crt_stdio_output@@V?$format_validation_base@_WV?$stream_output_adapter@_W@__crt_stdio_output@@@2@@__crt_stdio_output@@AAE_NXZ 1002e5de f i libucrt:output.obj
 0001:0002d62a       ?state_case_flag@?$output_processor@_WV?$stream_output_adapter@_W@__crt_stdio_output@@V?$positional_parameter_base@_WV?$stream_output_adapter@_W@__crt_stdio_output@@@2@@__crt_stdio_output@@AAE_NXZ 1002e62a f i libucrt:output.obj
 0001:0002d676       ?state_case_flag@?$output_processor@_WV?$stream_output_adapter@_W@__crt_stdio_output@@V?$standard_base@_WV?$stream_output_adapter@_W@__crt_stdio_output@@@2@@__crt_stdio_output@@AAE_NXZ 1002e676 f i libucrt:output.obj
 0001:0002d6c2       ?state_case_flag@?$output_processor@_WV?$string_output_adapter@_W@__crt_stdio_output@@V?$format_validation_base@_WV?$string_output_adapter@_W@__crt_stdio_output@@@2@@__crt_stdio_output@@AAE_NXZ 1002e6c2 f i libucrt:output.obj
 0001:0002d70e       ?state_case_flag@?$output_processor@_WV?$string_output_adapter@_W@__crt_stdio_output@@V?$positional_parameter_base@_WV?$string_output_adapter@_W@__crt_stdio_output@@@2@@__crt_stdio_output@@AAE_NXZ 1002e70e f i libucrt:output.obj
 0001:0002d75a       ?state_case_flag@?$output_processor@_WV?$string_output_adapter@_W@__crt_stdio_output@@V?$standard_base@_WV?$string_output_adapter@_W@__crt_stdio_output@@@2@@__crt_stdio_output@@AAE_NXZ 1002e75a f i libucrt:output.obj
 0001:0002d7a6       ?state_case_normal@?$output_processor@DV?$stream_output_adapter@D@__crt_stdio_output@@V?$format_validation_base@DV?$stream_output_adapter@D@__crt_stdio_output@@@2@@__crt_stdio_output@@AAE_NXZ 1002e7a6 f i libucrt:output.obj
 0001:0002d7cc       ?state_case_normal@?$output_processor@DV?$stream_output_adapter@D@__crt_stdio_output@@V?$positional_parameter_base@DV?$stream_output_adapter@D@__crt_stdio_output@@@2@@__crt_stdio_output@@AAE_NXZ 1002e7cc f i libucrt:output.obj
 0001:0002d809       ?state_case_normal@?$output_processor@DV?$stream_output_adapter@D@__crt_stdio_output@@V?$standard_base@DV?$stream_output_adapter@D@__crt_stdio_output@@@2@@__crt_stdio_output@@AAE_NXZ 1002e809 f i libucrt:output.obj
 0001:0002d82f       ?state_case_normal@?$output_processor@DV?$string_output_adapter@D@__crt_stdio_output@@V?$format_validation_base@DV?$string_output_adapter@D@__crt_stdio_output@@@2@@__crt_stdio_output@@AAE_NXZ 1002e82f f i libucrt:output.obj
 0001:0002d855       ?state_case_normal@?$output_processor@DV?$string_output_adapter@D@__crt_stdio_output@@V?$positional_parameter_base@DV?$string_output_adapter@D@__crt_stdio_output@@@2@@__crt_stdio_output@@AAE_NXZ 1002e855 f i libucrt:output.obj
 0001:0002d892       ?state_case_normal@?$output_processor@DV?$string_output_adapter@D@__crt_stdio_output@@V?$standard_base@DV?$string_output_adapter@D@__crt_stdio_output@@@2@@__crt_stdio_output@@AAE_NXZ 1002e892 f i libucrt:output.obj
 0001:0002d8b8       ?state_case_normal@?$output_processor@_WV?$stream_output_adapter@_W@__crt_stdio_output@@V?$format_validation_base@_WV?$stream_output_adapter@_W@__crt_stdio_output@@@2@@__crt_stdio_output@@AAE_NXZ 1002e8b8 f i libucrt:output.obj
 0001:0002d8de       ?state_case_normal@?$output_processor@_WV?$stream_output_adapter@_W@__crt_stdio_output@@V?$positional_parameter_base@_WV?$stream_output_adapter@_W@__crt_stdio_output@@@2@@__crt_stdio_output@@AAE_NXZ 1002e8de f i libucrt:output.obj
 0001:0002d91b       ?state_case_normal@?$output_processor@_WV?$stream_output_adapter@_W@__crt_stdio_output@@V?$standard_base@_WV?$stream_output_adapter@_W@__crt_stdio_output@@@2@@__crt_stdio_output@@AAE_NXZ 1002e91b f i libucrt:output.obj
 0001:0002d941       ?state_case_normal@?$output_processor@_WV?$string_output_adapter@_W@__crt_stdio_output@@V?$format_validation_base@_WV?$string_output_adapter@_W@__crt_stdio_output@@@2@@__crt_stdio_output@@AAE_NXZ 1002e941 f i libucrt:output.obj
 0001:0002d967       ?state_case_normal@?$output_processor@_WV?$string_output_adapter@_W@__crt_stdio_output@@V?$positional_parameter_base@_WV?$string_output_adapter@_W@__crt_stdio_output@@@2@@__crt_stdio_output@@AAE_NXZ 1002e967 f i libucrt:output.obj
 0001:0002d9a4       ?state_case_normal@?$output_processor@_WV?$string_output_adapter@_W@__crt_stdio_output@@V?$standard_base@_WV?$string_output_adapter@_W@__crt_stdio_output@@@2@@__crt_stdio_output@@AAE_NXZ 1002e9a4 f i libucrt:output.obj
 0001:0002d9ca       ?state_case_normal_common@?$output_processor@DV?$stream_output_adapter@D@__crt_stdio_output@@V?$format_validation_base@DV?$stream_output_adapter@D@__crt_stdio_output@@@2@@__crt_stdio_output@@AAE_NXZ 1002e9ca f i libucrt:output.obj
 0001:0002da15       ?state_case_normal_common@?$output_processor@DV?$stream_output_adapter@D@__crt_stdio_output@@V?$positional_parameter_base@DV?$stream_output_adapter@D@__crt_stdio_output@@@2@@__crt_stdio_output@@AAE_NXZ 1002ea15 f i libucrt:output.obj
 0001:0002da60       ?state_case_normal_common@?$output_processor@DV?$stream_output_adapter@D@__crt_stdio_output@@V?$standard_base@DV?$stream_output_adapter@D@__crt_stdio_output@@@2@@__crt_stdio_output@@AAE_NXZ 1002ea60 f i libucrt:output.obj
 0001:0002daab       ?state_case_normal_common@?$output_processor@DV?$string_output_adapter@D@__crt_stdio_output@@V?$format_validation_base@DV?$string_output_adapter@D@__crt_stdio_output@@@2@@__crt_stdio_output@@AAE_NXZ 1002eaab f i libucrt:output.obj
 0001:0002dadf       ?state_case_normal_common@?$output_processor@DV?$string_output_adapter@D@__crt_stdio_output@@V?$positional_parameter_base@DV?$string_output_adapter@D@__crt_stdio_output@@@2@@__crt_stdio_output@@AAE_NXZ 1002eadf f i libucrt:output.obj
 0001:0002db13       ?state_case_normal_common@?$output_processor@DV?$string_output_adapter@D@__crt_stdio_output@@V?$standard_base@DV?$string_output_adapter@D@__crt_stdio_output@@@2@@__crt_stdio_output@@AAE_NXZ 1002eb13 f i libucrt:output.obj
 0001:0002db47       ?state_case_normal_common@?$output_processor@_WV?$stream_output_adapter@_W@__crt_stdio_output@@V?$format_validation_base@_WV?$stream_output_adapter@_W@__crt_stdio_output@@@2@@__crt_stdio_output@@AAE_NXZ 1002eb47 f i libucrt:output.obj
 0001:0002db7b       ?state_case_normal_common@?$output_processor@_WV?$stream_output_adapter@_W@__crt_stdio_output@@V?$positional_parameter_base@_WV?$stream_output_adapter@_W@__crt_stdio_output@@@2@@__crt_stdio_output@@AAE_NXZ 1002eb7b f i libucrt:output.obj
 0001:0002dbaf       ?state_case_normal_common@?$output_processor@_WV?$stream_output_adapter@_W@__crt_stdio_output@@V?$standard_base@_WV?$stream_output_adapter@_W@__crt_stdio_output@@@2@@__crt_stdio_output@@AAE_NXZ 1002ebaf f i libucrt:output.obj
 0001:0002dbe3       ?state_case_normal_common@?$output_processor@_WV?$string_output_adapter@_W@__crt_stdio_output@@V?$format_validation_base@_WV?$string_output_adapter@_W@__crt_stdio_output@@@2@@__crt_stdio_output@@AAE_NXZ 1002ebe3 f i libucrt:output.obj
 0001:0002dc04       ?state_case_normal_common@?$output_processor@_WV?$string_output_adapter@_W@__crt_stdio_output@@V?$positional_parameter_base@_WV?$string_output_adapter@_W@__crt_stdio_output@@@2@@__crt_stdio_output@@AAE_NXZ 1002ec04 f i libucrt:output.obj
 0001:0002dc25       ?state_case_normal_common@?$output_processor@_WV?$string_output_adapter@_W@__crt_stdio_output@@V?$standard_base@_WV?$string_output_adapter@_W@__crt_stdio_output@@@2@@__crt_stdio_output@@AAE_NXZ 1002ec25 f i libucrt:output.obj
 0001:0002dc46       ?state_case_normal_tchar@?$output_processor@DV?$stream_output_adapter@D@__crt_stdio_output@@V?$format_validation_base@DV?$stream_output_adapter@D@__crt_stdio_output@@@2@@__crt_stdio_output@@AAE_ND@Z 1002ec46 f i libucrt:output.obj
 0001:0002dcc0       ?state_case_normal_tchar@?$output_processor@DV?$stream_output_adapter@D@__crt_stdio_output@@V?$positional_parameter_base@DV?$stream_output_adapter@D@__crt_stdio_output@@@2@@__crt_stdio_output@@AAE_ND@Z 1002ecc0 f i libucrt:output.obj
 0001:0002dd3a       ?state_case_normal_tchar@?$output_processor@DV?$stream_output_adapter@D@__crt_stdio_output@@V?$standard_base@DV?$stream_output_adapter@D@__crt_stdio_output@@@2@@__crt_stdio_output@@AAE_ND@Z 1002ed3a f i libucrt:output.obj
 0001:0002ddb4       ?state_case_normal_tchar@?$output_processor@DV?$string_output_adapter@D@__crt_stdio_output@@V?$format_validation_base@DV?$string_output_adapter@D@__crt_stdio_output@@@2@@__crt_stdio_output@@AAE_ND@Z 1002edb4 f i libucrt:output.obj
 0001:0002de23       ?state_case_normal_tchar@?$output_processor@DV?$string_output_adapter@D@__crt_stdio_output@@V?$positional_parameter_base@DV?$string_output_adapter@D@__crt_stdio_output@@@2@@__crt_stdio_output@@AAE_ND@Z 1002ee23 f i libucrt:output.obj
 0001:0002de92       ?state_case_normal_tchar@?$output_processor@DV?$string_output_adapter@D@__crt_stdio_output@@V?$standard_base@DV?$string_output_adapter@D@__crt_stdio_output@@@2@@__crt_stdio_output@@AAE_ND@Z 1002ee92 f i libucrt:output.obj
 0001:0002df01       ?state_case_normal_tchar@?$output_processor@_WV?$stream_output_adapter@_W@__crt_stdio_output@@V?$format_validation_base@_WV?$stream_output_adapter@_W@__crt_stdio_output@@@2@@__crt_stdio_output@@AAE_N_W@Z 1002ef01 f i libucrt:output.obj
 0001:0002df0c       ?state_case_normal_tchar@?$output_processor@_WV?$stream_output_adapter@_W@__crt_stdio_output@@V?$positional_parameter_base@_WV?$stream_output_adapter@_W@__crt_stdio_output@@@2@@__crt_stdio_output@@AAE_N_W@Z 1002ef0c f i libucrt:output.obj
 0001:0002df17       ?state_case_normal_tchar@?$output_processor@_WV?$stream_output_adapter@_W@__crt_stdio_output@@V?$standard_base@_WV?$stream_output_adapter@_W@__crt_stdio_output@@@2@@__crt_stdio_output@@AAE_N_W@Z 1002ef17 f i libucrt:output.obj
 0001:0002df22       ?state_case_normal_tchar@?$output_processor@_WV?$string_output_adapter@_W@__crt_stdio_output@@V?$format_validation_base@_WV?$string_output_adapter@_W@__crt_stdio_output@@@2@@__crt_stdio_output@@AAE_N_W@Z 1002ef22 f i libucrt:output.obj
 0001:0002df2d       ?state_case_normal_tchar@?$output_processor@_WV?$string_output_adapter@_W@__crt_stdio_output@@V?$positional_parameter_base@_WV?$string_output_adapter@_W@__crt_stdio_output@@@2@@__crt_stdio_output@@AAE_N_W@Z 1002ef2d f i libucrt:output.obj
 0001:0002df38       ?state_case_normal_tchar@?$output_processor@_WV?$string_output_adapter@_W@__crt_stdio_output@@V?$standard_base@_WV?$string_output_adapter@_W@__crt_stdio_output@@@2@@__crt_stdio_output@@AAE_N_W@Z 1002ef38 f i libucrt:output.obj
 0001:0002df43       ?state_case_percent@?$output_processor@DV?$stream_output_adapter@D@__crt_stdio_output@@V?$format_validation_base@DV?$stream_output_adapter@D@__crt_stdio_output@@@2@@__crt_stdio_output@@AAE_NXZ 1002ef43 f i libucrt:output.obj
 0001:0002df61       ?state_case_percent@?$output_processor@DV?$stream_output_adapter@D@__crt_stdio_output@@V?$positional_parameter_base@DV?$stream_output_adapter@D@__crt_stdio_output@@@2@@__crt_stdio_output@@AAE_NXZ 1002ef61 f i libucrt:output.obj
 0001:0002df7f       ?state_case_percent@?$output_processor@DV?$stream_output_adapter@D@__crt_stdio_output@@V?$standard_base@DV?$stream_output_adapter@D@__crt_stdio_output@@@2@@__crt_stdio_output@@AAE_NXZ 1002ef7f f i libucrt:output.obj
 0001:0002df9d       ?state_case_percent@?$output_processor@DV?$string_output_adapter@D@__crt_stdio_output@@V?$format_validation_base@DV?$string_output_adapter@D@__crt_stdio_output@@@2@@__crt_stdio_output@@AAE_NXZ 1002ef9d f i libucrt:output.obj
 0001:0002dfbb       ?state_case_percent@?$output_processor@DV?$string_output_adapter@D@__crt_stdio_output@@V?$positional_parameter_base@DV?$string_output_adapter@D@__crt_stdio_output@@@2@@__crt_stdio_output@@AAE_NXZ 1002efbb f i libucrt:output.obj
 0001:0002dfd9       ?state_case_percent@?$output_processor@DV?$string_output_adapter@D@__crt_stdio_output@@V?$standard_base@DV?$string_output_adapter@D@__crt_stdio_output@@@2@@__crt_stdio_output@@AAE_NXZ 1002efd9 f i libucrt:output.obj
 0001:0002dff7       ?state_case_percent@?$output_processor@_WV?$stream_output_adapter@_W@__crt_stdio_output@@V?$format_validation_base@_WV?$stream_output_adapter@_W@__crt_stdio_output@@@2@@__crt_stdio_output@@AAE_NXZ 1002eff7 f i libucrt:output.obj
 0001:0002e015       ?state_case_percent@?$output_processor@_WV?$stream_output_adapter@_W@__crt_stdio_output@@V?$positional_parameter_base@_WV?$stream_output_adapter@_W@__crt_stdio_output@@@2@@__crt_stdio_output@@AAE_NXZ 1002f015 f i libucrt:output.obj
 0001:0002e033       ?state_case_percent@?$output_processor@_WV?$stream_output_adapter@_W@__crt_stdio_output@@V?$standard_base@_WV?$stream_output_adapter@_W@__crt_stdio_output@@@2@@__crt_stdio_output@@AAE_NXZ 1002f033 f i libucrt:output.obj
 0001:0002e051       ?state_case_percent@?$output_processor@_WV?$string_output_adapter@_W@__crt_stdio_output@@V?$format_validation_base@_WV?$string_output_adapter@_W@__crt_stdio_output@@@2@@__crt_stdio_output@@AAE_NXZ 1002f051 f i libucrt:output.obj
 0001:0002e06f       ?state_case_percent@?$output_processor@_WV?$string_output_adapter@_W@__crt_stdio_output@@V?$positional_parameter_base@_WV?$string_output_adapter@_W@__crt_stdio_output@@@2@@__crt_stdio_output@@AAE_NXZ 1002f06f f i libucrt:output.obj
 0001:0002e08d       ?state_case_percent@?$output_processor@_WV?$string_output_adapter@_W@__crt_stdio_output@@V?$standard_base@_WV?$string_output_adapter@_W@__crt_stdio_output@@@2@@__crt_stdio_output@@AAE_NXZ 1002f08d f i libucrt:output.obj
 0001:0002e0ab       ?state_case_precision@?$output_processor@DV?$stream_output_adapter@D@__crt_stdio_output@@V?$format_validation_base@DV?$stream_output_adapter@D@__crt_stdio_output@@@2@@__crt_stdio_output@@AAE_NXZ 1002f0ab f i libucrt:output.obj
 0001:0002e0da       ?state_case_precision@?$output_processor@DV?$stream_output_adapter@D@__crt_stdio_output@@V?$positional_parameter_base@DV?$stream_output_adapter@D@__crt_stdio_output@@@2@@__crt_stdio_output@@AAE_NXZ 1002f0da f i libucrt:output.obj
 0001:0002e122       ?state_case_precision@?$output_processor@DV?$stream_output_adapter@D@__crt_stdio_output@@V?$standard_base@DV?$stream_output_adapter@D@__crt_stdio_output@@@2@@__crt_stdio_output@@AAE_NXZ 1002f122 f i libucrt:output.obj
 0001:0002e151       ?state_case_precision@?$output_processor@DV?$string_output_adapter@D@__crt_stdio_output@@V?$format_validation_base@DV?$string_output_adapter@D@__crt_stdio_output@@@2@@__crt_stdio_output@@AAE_NXZ 1002f151 f i libucrt:output.obj
 0001:0002e180       ?state_case_precision@?$output_processor@DV?$string_output_adapter@D@__crt_stdio_output@@V?$positional_parameter_base@DV?$string_output_adapter@D@__crt_stdio_output@@@2@@__crt_stdio_output@@AAE_NXZ 1002f180 f i libucrt:output.obj
 0001:0002e1c8       ?state_case_precision@?$output_processor@DV?$string_output_adapter@D@__crt_stdio_output@@V?$standard_base@DV?$string_output_adapter@D@__crt_stdio_output@@@2@@__crt_stdio_output@@AAE_NXZ 1002f1c8 f i libucrt:output.obj
 0001:0002e1f7       ?state_case_precision@?$output_processor@_WV?$stream_output_adapter@_W@__crt_stdio_output@@V?$format_validation_base@_WV?$stream_output_adapter@_W@__crt_stdio_output@@@2@@__crt_stdio_output@@AAE_NXZ 1002f1f7 f i libucrt:output.obj
 0001:0002e227       ?state_case_precision@?$output_processor@_WV?$stream_output_adapter@_W@__crt_stdio_output@@V?$positional_parameter_base@_WV?$stream_output_adapter@_W@__crt_stdio_output@@@2@@__crt_stdio_output@@AAE_NXZ 1002f227 f i libucrt:output.obj
 0001:0002e270       ?state_case_precision@?$output_processor@_WV?$stream_output_adapter@_W@__crt_stdio_output@@V?$standard_base@_WV?$stream_output_adapter@_W@__crt_stdio_output@@@2@@__crt_stdio_output@@AAE_NXZ 1002f270 f i libucrt:output.obj
 0001:0002e2a0       ?state_case_precision@?$output_processor@_WV?$string_output_adapter@_W@__crt_stdio_output@@V?$format_validation_base@_WV?$string_output_adapter@_W@__crt_stdio_output@@@2@@__crt_stdio_output@@AAE_NXZ 1002f2a0 f i libucrt:output.obj
 0001:0002e2d0       ?state_case_precision@?$output_processor@_WV?$string_output_adapter@_W@__crt_stdio_output@@V?$positional_parameter_base@_WV?$string_output_adapter@_W@__crt_stdio_output@@@2@@__crt_stdio_output@@AAE_NXZ 1002f2d0 f i libucrt:output.obj
 0001:0002e319       ?state_case_precision@?$output_processor@_WV?$string_output_adapter@_W@__crt_stdio_output@@V?$standard_base@_WV?$string_output_adapter@_W@__crt_stdio_output@@@2@@__crt_stdio_output@@AAE_NXZ 1002f319 f i libucrt:output.obj
 0001:0002e349       ?state_case_size@?$output_processor@DV?$stream_output_adapter@D@__crt_stdio_output@@V?$format_validation_base@DV?$stream_output_adapter@D@__crt_stdio_output@@@2@@__crt_stdio_output@@AAE_NXZ 1002f349 f i libucrt:output.obj
 0001:0002e4f9       ?state_case_size@?$output_processor@DV?$stream_output_adapter@D@__crt_stdio_output@@V?$positional_parameter_base@DV?$stream_output_adapter@D@__crt_stdio_output@@@2@@__crt_stdio_output@@AAE_NXZ 1002f4f9 f i libucrt:output.obj
 0001:0002e6a9       ?state_case_size@?$output_processor@DV?$stream_output_adapter@D@__crt_stdio_output@@V?$standard_base@DV?$stream_output_adapter@D@__crt_stdio_output@@@2@@__crt_stdio_output@@AAE_NXZ 1002f6a9 f i libucrt:output.obj
 0001:0002e859       ?state_case_size@?$output_processor@DV?$string_output_adapter@D@__crt_stdio_output@@V?$format_validation_base@DV?$string_output_adapter@D@__crt_stdio_output@@@2@@__crt_stdio_output@@AAE_NXZ 1002f859 f i libucrt:output.obj
 0001:0002ea09       ?state_case_size@?$output_processor@DV?$string_output_adapter@D@__crt_stdio_output@@V?$positional_parameter_base@DV?$string_output_adapter@D@__crt_stdio_output@@@2@@__crt_stdio_output@@AAE_NXZ 1002fa09 f i libucrt:output.obj
 0001:0002ebb9       ?state_case_size@?$output_processor@DV?$string_output_adapter@D@__crt_stdio_output@@V?$standard_base@DV?$string_output_adapter@D@__crt_stdio_output@@@2@@__crt_stdio_output@@AAE_NXZ 1002fbb9 f i libucrt:output.obj
 0001:0002ed69       ?state_case_size@?$output_processor@_WV?$stream_output_adapter@_W@__crt_stdio_output@@V?$format_validation_base@_WV?$stream_output_adapter@_W@__crt_stdio_output@@@2@@__crt_stdio_output@@AAE_NXZ 1002fd69 f i libucrt:output.obj
 0001:0002ef31       ?state_case_size@?$output_processor@_WV?$stream_output_adapter@_W@__crt_stdio_output@@V?$positional_parameter_base@_WV?$stream_output_adapter@_W@__crt_stdio_output@@@2@@__crt_stdio_output@@AAE_NXZ 1002ff31 f i libucrt:output.obj
 0001:0002f0f9       ?state_case_size@?$output_processor@_WV?$stream_output_adapter@_W@__crt_stdio_output@@V?$standard_base@_WV?$stream_output_adapter@_W@__crt_stdio_output@@@2@@__crt_stdio_output@@AAE_NXZ 100300f9 f i libucrt:output.obj
 0001:0002f2c1       ?state_case_size@?$output_processor@_WV?$string_output_adapter@_W@__crt_stdio_output@@V?$format_validation_base@_WV?$string_output_adapter@_W@__crt_stdio_output@@@2@@__crt_stdio_output@@AAE_NXZ 100302c1 f i libucrt:output.obj
 0001:0002f489       ?state_case_size@?$output_processor@_WV?$string_output_adapter@_W@__crt_stdio_output@@V?$positional_parameter_base@_WV?$string_output_adapter@_W@__crt_stdio_output@@@2@@__crt_stdio_output@@AAE_NXZ 10030489 f i libucrt:output.obj
 0001:0002f651       ?state_case_size@?$output_processor@_WV?$string_output_adapter@_W@__crt_stdio_output@@V?$standard_base@_WV?$string_output_adapter@_W@__crt_stdio_output@@@2@@__crt_stdio_output@@AAE_NXZ 10030651 f i libucrt:output.obj
 0001:0002f819       ?state_case_type@?$output_processor@DV?$stream_output_adapter@D@__crt_stdio_output@@V?$format_validation_base@DV?$stream_output_adapter@D@__crt_stdio_output@@@2@@__crt_stdio_output@@AAE_NXZ 10030819 f i libucrt:output.obj
 0001:0002facc       ?state_case_type@?$output_processor@DV?$stream_output_adapter@D@__crt_stdio_output@@V?$positional_parameter_base@DV?$stream_output_adapter@D@__crt_stdio_output@@@2@@__crt_stdio_output@@AAE_NXZ 10030acc f i libucrt:output.obj
 0001:0002fd8d       ?state_case_type@?$output_processor@DV?$stream_output_adapter@D@__crt_stdio_output@@V?$standard_base@DV?$stream_output_adapter@D@__crt_stdio_output@@@2@@__crt_stdio_output@@AAE_NXZ 10030d8d f i libucrt:output.obj
 0001:00030040       ?state_case_type@?$output_processor@DV?$string_output_adapter@D@__crt_stdio_output@@V?$format_validation_base@DV?$string_output_adapter@D@__crt_stdio_output@@@2@@__crt_stdio_output@@AAE_NXZ 10031040 f i libucrt:output.obj
 0001:000302f3       ?state_case_type@?$output_processor@DV?$string_output_adapter@D@__crt_stdio_output@@V?$positional_parameter_base@DV?$string_output_adapter@D@__crt_stdio_output@@@2@@__crt_stdio_output@@AAE_NXZ 100312f3 f i libucrt:output.obj
 0001:000305b4       ?state_case_type@?$output_processor@DV?$string_output_adapter@D@__crt_stdio_output@@V?$standard_base@DV?$string_output_adapter@D@__crt_stdio_output@@@2@@__crt_stdio_output@@AAE_NXZ 100315b4 f i libucrt:output.obj
 0001:00030867       ?state_case_type@?$output_processor@_WV?$stream_output_adapter@_W@__crt_stdio_output@@V?$format_validation_base@_WV?$stream_output_adapter@_W@__crt_stdio_output@@@2@@__crt_stdio_output@@AAE_NXZ 10031867 f i libucrt:output.obj
 0001:00030b67       ?state_case_type@?$output_processor@_WV?$stream_output_adapter@_W@__crt_stdio_output@@V?$positional_parameter_base@_WV?$stream_output_adapter@_W@__crt_stdio_output@@@2@@__crt_stdio_output@@AAE_NXZ 10031b67 f i libucrt:output.obj
 0001:00030e7a       ?state_case_type@?$output_processor@_WV?$stream_output_adapter@_W@__crt_stdio_output@@V?$standard_base@_WV?$stream_output_adapter@_W@__crt_stdio_output@@@2@@__crt_stdio_output@@AAE_NXZ 10031e7a f i libucrt:output.obj
 0001:0003117a       ?state_case_type@?$output_processor@_WV?$string_output_adapter@_W@__crt_stdio_output@@V?$format_validation_base@_WV?$string_output_adapter@_W@__crt_stdio_output@@@2@@__crt_stdio_output@@AAE_NXZ 1003217a f i libucrt:output.obj
 0001:0003147a       ?state_case_type@?$output_processor@_WV?$string_output_adapter@_W@__crt_stdio_output@@V?$positional_parameter_base@_WV?$string_output_adapter@_W@__crt_stdio_output@@@2@@__crt_stdio_output@@AAE_NXZ 1003247a f i libucrt:output.obj
 0001:0003178d       ?state_case_type@?$output_processor@_WV?$string_output_adapter@_W@__crt_stdio_output@@V?$standard_base@_WV?$string_output_adapter@_W@__crt_stdio_output@@@2@@__crt_stdio_output@@AAE_NXZ 1003278d f i libucrt:output.obj
 0001:00031a8d       ?state_case_width@?$output_processor@DV?$stream_output_adapter@D@__crt_stdio_output@@V?$format_validation_base@DV?$stream_output_adapter@D@__crt_stdio_output@@@2@@__crt_stdio_output@@AAE_NXZ 10032a8d f i libucrt:output.obj
 0001:00031ac2       ?state_case_width@?$output_processor@DV?$stream_output_adapter@D@__crt_stdio_output@@V?$positional_parameter_base@DV?$stream_output_adapter@D@__crt_stdio_output@@@2@@__crt_stdio_output@@AAE_NXZ 10032ac2 f i libucrt:output.obj
 0001:00031b12       ?state_case_width@?$output_processor@DV?$stream_output_adapter@D@__crt_stdio_output@@V?$standard_base@DV?$stream_output_adapter@D@__crt_stdio_output@@@2@@__crt_stdio_output@@AAE_NXZ 10032b12 f i libucrt:output.obj
 0001:00031b47       ?state_case_width@?$output_processor@DV?$string_output_adapter@D@__crt_stdio_output@@V?$format_validation_base@DV?$string_output_adapter@D@__crt_stdio_output@@@2@@__crt_stdio_output@@AAE_NXZ 10032b47 f i libucrt:output.obj
 0001:00031b7c       ?state_case_width@?$output_processor@DV?$string_output_adapter@D@__crt_stdio_output@@V?$positional_parameter_base@DV?$string_output_adapter@D@__crt_stdio_output@@@2@@__crt_stdio_output@@AAE_NXZ 10032b7c f i libucrt:output.obj
 0001:00031bcc       ?state_case_width@?$output_processor@DV?$string_output_adapter@D@__crt_stdio_output@@V?$standard_base@DV?$string_output_adapter@D@__crt_stdio_output@@@2@@__crt_stdio_output@@AAE_NXZ 10032bcc f i libucrt:output.obj
 0001:00031c01       ?state_case_width@?$output_processor@_WV?$stream_output_adapter@_W@__crt_stdio_output@@V?$format_validation_base@_WV?$stream_output_adapter@_W@__crt_stdio_output@@@2@@__crt_stdio_output@@AAE_NXZ 10032c01 f i libucrt:output.obj
 0001:00031c38       ?state_case_width@?$output_processor@_WV?$stream_output_adapter@_W@__crt_stdio_output@@V?$positional_parameter_base@_WV?$stream_output_adapter@_W@__crt_stdio_output@@@2@@__crt_stdio_output@@AAE_NXZ 10032c38 f i libucrt:output.obj
 0001:00031c89       ?state_case_width@?$output_processor@_WV?$stream_output_adapter@_W@__crt_stdio_output@@V?$standard_base@_WV?$stream_output_adapter@_W@__crt_stdio_output@@@2@@__crt_stdio_output@@AAE_NXZ 10032c89 f i libucrt:output.obj
 0001:00031cc0       ?state_case_width@?$output_processor@_WV?$string_output_adapter@_W@__crt_stdio_output@@V?$format_validation_base@_WV?$string_output_adapter@_W@__crt_stdio_output@@@2@@__crt_stdio_output@@AAE_NXZ 10032cc0 f i libucrt:output.obj
 0001:00031cf7       ?state_case_width@?$output_processor@_WV?$string_output_adapter@_W@__crt_stdio_output@@V?$positional_parameter_base@_WV?$string_output_adapter@_W@__crt_stdio_output@@@2@@__crt_stdio_output@@AAE_NXZ 10032cf7 f i libucrt:output.obj
 0001:00031d48       ?state_case_width@?$output_processor@_WV?$string_output_adapter@_W@__crt_stdio_output@@V?$standard_base@_WV?$string_output_adapter@_W@__crt_stdio_output@@@2@@__crt_stdio_output@@AAE_NXZ 10032d48 f i libucrt:output.obj
 0001:00031d7f       ?state_count@?$format_validation_base@DV?$stream_output_adapter@D@__crt_stdio_output@@@__crt_stdio_output@@KAIXZ 10032d7f f i libucrt:output.obj
 0001:00031d83       ?state_count@?$format_validation_base@DV?$string_output_adapter@D@__crt_stdio_output@@@__crt_stdio_output@@KAIXZ 10032d83 f i libucrt:output.obj
 0001:00031d87       ?state_count@?$format_validation_base@_WV?$stream_output_adapter@_W@__crt_stdio_output@@@__crt_stdio_output@@KAIXZ 10032d87 f i libucrt:output.obj
 0001:00031d8b       ?state_count@?$format_validation_base@_WV?$string_output_adapter@_W@__crt_stdio_output@@@__crt_stdio_output@@KAIXZ 10032d8b f i libucrt:output.obj
 0001:00031d8f       ?state_count@?$standard_base@DV?$stream_output_adapter@D@__crt_stdio_output@@@__crt_stdio_output@@KAIXZ 10032d8f f i libucrt:output.obj
 0001:00031d93       ?state_count@?$standard_base@DV?$string_output_adapter@D@__crt_stdio_output@@@__crt_stdio_output@@KAIXZ 10032d93 f i libucrt:output.obj
 0001:00031d97       ?state_count@?$standard_base@_WV?$stream_output_adapter@_W@__crt_stdio_output@@@__crt_stdio_output@@KAIXZ 10032d97 f i libucrt:output.obj
 0001:00031d9b       ?state_count@?$standard_base@_WV?$string_output_adapter@_W@__crt_stdio_output@@@__crt_stdio_output@@KAIXZ 10032d9b f i libucrt:output.obj
 0001:00031d9f       ?state_transition_table@?$format_validation_base@DV?$stream_output_adapter@D@__crt_stdio_output@@@__crt_stdio_output@@KAPBEXZ 10032d9f f i libucrt:output.obj
 0001:00031da5       ?state_transition_table@?$format_validation_base@DV?$string_output_adapter@D@__crt_stdio_output@@@__crt_stdio_output@@KAPBEXZ 10032da5 f i libucrt:output.obj
 0001:00031dab       ?state_transition_table@?$format_validation_base@_WV?$stream_output_adapter@_W@__crt_stdio_output@@@__crt_stdio_output@@KAPBEXZ 10032dab f i libucrt:output.obj
 0001:00031db1       ?state_transition_table@?$format_validation_base@_WV?$string_output_adapter@_W@__crt_stdio_output@@@__crt_stdio_output@@KAPBEXZ 10032db1 f i libucrt:output.obj
 0001:00031db7       ?state_transition_table@?$standard_base@DV?$stream_output_adapter@D@__crt_stdio_output@@@__crt_stdio_output@@KAPBEXZ 10032db7 f i libucrt:output.obj
 0001:00031dbd       ?state_transition_table@?$standard_base@DV?$string_output_adapter@D@__crt_stdio_output@@@__crt_stdio_output@@KAPBEXZ 10032dbd f i libucrt:output.obj
 0001:00031dc3       ?state_transition_table@?$standard_base@_WV?$stream_output_adapter@_W@__crt_stdio_output@@@__crt_stdio_output@@KAPBEXZ 10032dc3 f i libucrt:output.obj
 0001:00031dc9       ?state_transition_table@?$standard_base@_WV?$string_output_adapter@_W@__crt_stdio_output@@@__crt_stdio_output@@KAPBEXZ 10032dc9 f i libucrt:output.obj
 0001:00031dcf       ?tchar_string@?$common_data@D@__crt_stdio_output@@IAEAAPADD@Z 10032dcf f i libucrt:output.obj
 0001:00031dd5       ?tchar_string@?$common_data@D@__crt_stdio_output@@IAEAAPADXZ 10032dd5 f i libucrt:output.obj
 0001:00031dd9       ?tchar_string@?$common_data@_W@__crt_stdio_output@@IAEAAPA_WXZ 10032dd9 f i libucrt:output.obj
 0001:00031ddd       ?tchar_string@?$common_data@_W@__crt_stdio_output@@IAEAAPA_W_W@Z 10032ddd f i libucrt:output.obj
 0001:00031de3       ?to_integer_size@__crt_stdio_output@@YAIW4length_modifier@1@@Z 10032de3 f i libucrt:output.obj
 0001:00031e56       ?type_case_X@?$output_processor@DV?$stream_output_adapter@D@__crt_stdio_output@@V?$format_validation_base@DV?$stream_output_adapter@D@__crt_stdio_output@@@2@@__crt_stdio_output@@AAE_NXZ 10032e56 f i libucrt:output.obj
 0001:00031e62       ?type_case_X@?$output_processor@DV?$stream_output_adapter@D@__crt_stdio_output@@V?$positional_parameter_base@DV?$stream_output_adapter@D@__crt_stdio_output@@@2@@__crt_stdio_output@@AAE_NXZ 10032e62 f i libucrt:output.obj
 0001:00031e6e       ?type_case_X@?$output_processor@DV?$stream_output_adapter@D@__crt_stdio_output@@V?$standard_base@DV?$stream_output_adapter@D@__crt_stdio_output@@@2@@__crt_stdio_output@@AAE_NXZ 10032e6e f i libucrt:output.obj
 0001:00031e7a       ?type_case_X@?$output_processor@DV?$string_output_adapter@D@__crt_stdio_output@@V?$format_validation_base@DV?$string_output_adapter@D@__crt_stdio_output@@@2@@__crt_stdio_output@@AAE_NXZ 10032e7a f i libucrt:output.obj
 0001:00031e86       ?type_case_X@?$output_processor@DV?$string_output_adapter@D@__crt_stdio_output@@V?$positional_parameter_base@DV?$string_output_adapter@D@__crt_stdio_output@@@2@@__crt_stdio_output@@AAE_NXZ 10032e86 f i libucrt:output.obj
 0001:00031e92       ?type_case_X@?$output_processor@DV?$string_output_adapter@D@__crt_stdio_output@@V?$standard_base@DV?$string_output_adapter@D@__crt_stdio_output@@@2@@__crt_stdio_output@@AAE_NXZ 10032e92 f i libucrt:output.obj
 0001:00031e9e       ?type_case_X@?$output_processor@_WV?$stream_output_adapter@_W@__crt_stdio_output@@V?$format_validation_base@_WV?$stream_output_adapter@_W@__crt_stdio_output@@@2@@__crt_stdio_output@@AAE_NXZ 10032e9e f i libucrt:output.obj
 0001:00031eaa       ?type_case_X@?$output_processor@_WV?$stream_output_adapter@_W@__crt_stdio_output@@V?$positional_parameter_base@_WV?$stream_output_adapter@_W@__crt_stdio_output@@@2@@__crt_stdio_output@@AAE_NXZ 10032eaa f i libucrt:output.obj
 0001:00031eb6       ?type_case_X@?$output_processor@_WV?$stream_output_adapter@_W@__crt_stdio_output@@V?$standard_base@_WV?$stream_output_adapter@_W@__crt_stdio_output@@@2@@__crt_stdio_output@@AAE_NXZ 10032eb6 f i libucrt:output.obj
 0001:00031ec2       ?type_case_X@?$output_processor@_WV?$string_output_adapter@_W@__crt_stdio_output@@V?$format_validation_base@_WV?$string_output_adapter@_W@__crt_stdio_output@@@2@@__crt_stdio_output@@AAE_NXZ 10032ec2 f i libucrt:output.obj
 0001:00031ece       ?type_case_X@?$output_processor@_WV?$string_output_adapter@_W@__crt_stdio_output@@V?$positional_parameter_base@_WV?$string_output_adapter@_W@__crt_stdio_output@@@2@@__crt_stdio_output@@AAE_NXZ 10032ece f i libucrt:output.obj
 0001:00031eda       ?type_case_X@?$output_processor@_WV?$string_output_adapter@_W@__crt_stdio_output@@V?$standard_base@_WV?$string_output_adapter@_W@__crt_stdio_output@@@2@@__crt_stdio_output@@AAE_NXZ 10032eda f i libucrt:output.obj
 0001:00031ee6       ?type_case_Z@?$output_processor@DV?$stream_output_adapter@D@__crt_stdio_output@@V?$format_validation_base@DV?$stream_output_adapter@D@__crt_stdio_output@@@2@@__crt_stdio_output@@AAE_NXZ 10032ee6 f i libucrt:output.obj
 0001:00031f5f       ?type_case_Z@?$output_processor@DV?$stream_output_adapter@D@__crt_stdio_output@@V?$positional_parameter_base@DV?$stream_output_adapter@D@__crt_stdio_output@@@2@@__crt_stdio_output@@AAE_NXZ 10032f5f f i libucrt:output.obj
 0001:00032075       ?type_case_Z@?$output_processor@DV?$stream_output_adapter@D@__crt_stdio_output@@V?$standard_base@DV?$stream_output_adapter@D@__crt_stdio_output@@@2@@__crt_stdio_output@@AAE_NXZ 10033075 f i libucrt:output.obj
 0001:000320ee       ?type_case_Z@?$output_processor@DV?$string_output_adapter@D@__crt_stdio_output@@V?$format_validation_base@DV?$string_output_adapter@D@__crt_stdio_output@@@2@@__crt_stdio_output@@AAE_NXZ 100330ee f i libucrt:output.obj
 0001:00032167       ?type_case_Z@?$output_processor@DV?$string_output_adapter@D@__crt_stdio_output@@V?$positional_parameter_base@DV?$string_output_adapter@D@__crt_stdio_output@@@2@@__crt_stdio_output@@AAE_NXZ 10033167 f i libucrt:output.obj
 0001:0003227d       ?type_case_Z@?$output_processor@DV?$string_output_adapter@D@__crt_stdio_output@@V?$standard_base@DV?$string_output_adapter@D@__crt_stdio_output@@@2@@__crt_stdio_output@@AAE_NXZ 1003327d f i libucrt:output.obj
 0001:000322f6       ?type_case_Z@?$output_processor@_WV?$stream_output_adapter@_W@__crt_stdio_output@@V?$format_validation_base@_WV?$stream_output_adapter@_W@__crt_stdio_output@@@2@@__crt_stdio_output@@AAE_NXZ 100332f6 f i libucrt:output.obj
 0001:0003236f       ?type_case_Z@?$output_processor@_WV?$stream_output_adapter@_W@__crt_stdio_output@@V?$positional_parameter_base@_WV?$stream_output_adapter@_W@__crt_stdio_output@@@2@@__crt_stdio_output@@AAE_NXZ 1003336f f i libucrt:output.obj
 0001:00032485       ?type_case_Z@?$output_processor@_WV?$stream_output_adapter@_W@__crt_stdio_output@@V?$standard_base@_WV?$stream_output_adapter@_W@__crt_stdio_output@@@2@@__crt_stdio_output@@AAE_NXZ 10033485 f i libucrt:output.obj
 0001:000324fe       ?type_case_Z@?$output_processor@_WV?$string_output_adapter@_W@__crt_stdio_output@@V?$format_validation_base@_WV?$string_output_adapter@_W@__crt_stdio_output@@@2@@__crt_stdio_output@@AAE_NXZ 100334fe f i libucrt:output.obj
 0001:00032577       ?type_case_Z@?$output_processor@_WV?$string_output_adapter@_W@__crt_stdio_output@@V?$positional_parameter_base@_WV?$string_output_adapter@_W@__crt_stdio_output@@@2@@__crt_stdio_output@@AAE_NXZ 10033577 f i libucrt:output.obj
 0001:0003268d       ?type_case_Z@?$output_processor@_WV?$string_output_adapter@_W@__crt_stdio_output@@V?$standard_base@_WV?$string_output_adapter@_W@__crt_stdio_output@@@2@@__crt_stdio_output@@AAE_NXZ 1003368d f i libucrt:output.obj
 0001:00032706       ?type_case_a@?$output_processor@DV?$stream_output_adapter@D@__crt_stdio_output@@V?$format_validation_base@DV?$stream_output_adapter@D@__crt_stdio_output@@@2@@__crt_stdio_output@@AAE_NXZ 10033706 f i libucrt:output.obj
 0001:000328b5       ?type_case_a@?$output_processor@DV?$stream_output_adapter@D@__crt_stdio_output@@V?$positional_parameter_base@DV?$stream_output_adapter@D@__crt_stdio_output@@@2@@__crt_stdio_output@@AAE_NXZ 100338b5 f i libucrt:output.obj
 0001:00032a8b       ?type_case_a@?$output_processor@DV?$stream_output_adapter@D@__crt_stdio_output@@V?$standard_base@DV?$stream_output_adapter@D@__crt_stdio_output@@@2@@__crt_stdio_output@@AAE_NXZ 10033a8b f i libucrt:output.obj
 0001:00032c3a       ?type_case_a@?$output_processor@DV?$string_output_adapter@D@__crt_stdio_output@@V?$format_validation_base@DV?$string_output_adapter@D@__crt_stdio_output@@@2@@__crt_stdio_output@@AAE_NXZ 10033c3a f i libucrt:output.obj
 0001:00032de9       ?type_case_a@?$output_processor@DV?$string_output_adapter@D@__crt_stdio_output@@V?$positional_parameter_base@DV?$string_output_adapter@D@__crt_stdio_output@@@2@@__crt_stdio_output@@AAE_NXZ 10033de9 f i libucrt:output.obj
 0001:00032fbf       ?type_case_a@?$output_processor@DV?$string_output_adapter@D@__crt_stdio_output@@V?$standard_base@DV?$string_output_adapter@D@__crt_stdio_output@@@2@@__crt_stdio_output@@AAE_NXZ 10033fbf f i libucrt:output.obj
 0001:0003316e       ?type_case_a@?$output_processor@_WV?$stream_output_adapter@_W@__crt_stdio_output@@V?$format_validation_base@_WV?$stream_output_adapter@_W@__crt_stdio_output@@@2@@__crt_stdio_output@@AAE_NXZ 1003416e f i libucrt:output.obj
 0001:00033338       ?type_case_a@?$output_processor@_WV?$stream_output_adapter@_W@__crt_stdio_output@@V?$positional_parameter_base@_WV?$stream_output_adapter@_W@__crt_stdio_output@@@2@@__crt_stdio_output@@AAE_NXZ 10034338 f i libucrt:output.obj
 0001:00033529       ?type_case_a@?$output_processor@_WV?$stream_output_adapter@_W@__crt_stdio_output@@V?$standard_base@_WV?$stream_output_adapter@_W@__crt_stdio_output@@@2@@__crt_stdio_output@@AAE_NXZ 10034529 f i libucrt:output.obj
 0001:000336f3       ?type_case_a@?$output_processor@_WV?$string_output_adapter@_W@__crt_stdio_output@@V?$format_validation_base@_WV?$string_output_adapter@_W@__crt_stdio_output@@@2@@__crt_stdio_output@@AAE_NXZ 100346f3 f i libucrt:output.obj
 0001:000338bd       ?type_case_a@?$output_processor@_WV?$string_output_adapter@_W@__crt_stdio_output@@V?$positional_parameter_base@_WV?$string_output_adapter@_W@__crt_stdio_output@@@2@@__crt_stdio_output@@AAE_NXZ 100348bd f i libucrt:output.obj
 0001:00033aae       ?type_case_a@?$output_processor@_WV?$string_output_adapter@_W@__crt_stdio_output@@V?$standard_base@_WV?$string_output_adapter@_W@__crt_stdio_output@@@2@@__crt_stdio_output@@AAE_NXZ 10034aae f i libucrt:output.obj
 0001:00033c78       ?type_case_c@?$output_processor@DV?$stream_output_adapter@D@__crt_stdio_output@@V?$format_validation_base@DV?$stream_output_adapter@D@__crt_stdio_output@@@2@@__crt_stdio_output@@AAE_NXZ 10034c78 f i libucrt:output.obj
 0001:00033c82       ?type_case_c@?$output_processor@DV?$stream_output_adapter@D@__crt_stdio_output@@V?$positional_parameter_base@DV?$stream_output_adapter@D@__crt_stdio_output@@@2@@__crt_stdio_output@@AAE_NXZ 10034c82 f i libucrt:output.obj
 0001:00033c8c       ?type_case_c@?$output_processor@DV?$stream_output_adapter@D@__crt_stdio_output@@V?$standard_base@DV?$stream_output_adapter@D@__crt_stdio_output@@@2@@__crt_stdio_output@@AAE_NXZ 10034c8c f i libucrt:output.obj
 0001:00033c96       ?type_case_c@?$output_processor@DV?$string_output_adapter@D@__crt_stdio_output@@V?$format_validation_base@DV?$string_output_adapter@D@__crt_stdio_output@@@2@@__crt_stdio_output@@AAE_NXZ 10034c96 f i libucrt:output.obj
 0001:00033ca0       ?type_case_c@?$output_processor@DV?$string_output_adapter@D@__crt_stdio_output@@V?$positional_parameter_base@DV?$string_output_adapter@D@__crt_stdio_output@@@2@@__crt_stdio_output@@AAE_NXZ 10034ca0 f i libucrt:output.obj
 0001:00033caa       ?type_case_c@?$output_processor@DV?$string_output_adapter@D@__crt_stdio_output@@V?$standard_base@DV?$string_output_adapter@D@__crt_stdio_output@@@2@@__crt_stdio_output@@AAE_NXZ 10034caa f i libucrt:output.obj
 0001:00033cb4       ?type_case_c@?$output_processor@_WV?$stream_output_adapter@_W@__crt_stdio_output@@V?$format_validation_base@_WV?$stream_output_adapter@_W@__crt_stdio_output@@@2@@__crt_stdio_output@@AAE_NXZ 10034cb4 f i libucrt:output.obj
 0001:00033cbe       ?type_case_c@?$output_processor@_WV?$stream_output_adapter@_W@__crt_stdio_output@@V?$positional_parameter_base@_WV?$stream_output_adapter@_W@__crt_stdio_output@@@2@@__crt_stdio_output@@AAE_NXZ 10034cbe f i libucrt:output.obj
 0001:00033cc8       ?type_case_c@?$output_processor@_WV?$stream_output_adapter@_W@__crt_stdio_output@@V?$standard_base@_WV?$stream_output_adapter@_W@__crt_stdio_output@@@2@@__crt_stdio_output@@AAE_NXZ 10034cc8 f i libucrt:output.obj
 0001:00033cd2       ?type_case_c@?$output_processor@_WV?$string_output_adapter@_W@__crt_stdio_output@@V?$format_validation_base@_WV?$string_output_adapter@_W@__crt_stdio_output@@@2@@__crt_stdio_output@@AAE_NXZ 10034cd2 f i libucrt:output.obj
 0001:00033cdc       ?type_case_c@?$output_processor@_WV?$string_output_adapter@_W@__crt_stdio_output@@V?$positional_parameter_base@_WV?$string_output_adapter@_W@__crt_stdio_output@@@2@@__crt_stdio_output@@AAE_NXZ 10034cdc f i libucrt:output.obj
 0001:00033ce6       ?type_case_c@?$output_processor@_WV?$string_output_adapter@_W@__crt_stdio_output@@V?$standard_base@_WV?$string_output_adapter@_W@__crt_stdio_output@@@2@@__crt_stdio_output@@AAE_NXZ 10034ce6 f i libucrt:output.obj
 0001:00033cf0       ?type_case_c_tchar@?$output_processor@DV?$stream_output_adapter@D@__crt_stdio_output@@V?$format_validation_base@DV?$stream_output_adapter@D@__crt_stdio_output@@@2@@__crt_stdio_output@@AAE_ND@Z 10034cf0 f i libucrt:output.obj
 0001:00033da4       ?type_case_c_tchar@?$output_processor@DV?$stream_output_adapter@D@__crt_stdio_output@@V?$positional_parameter_base@DV?$stream_output_adapter@D@__crt_stdio_output@@@2@@__crt_stdio_output@@AAE_ND@Z 10034da4 f i libucrt:output.obj
 0001:00033e94       ?type_case_c_tchar@?$output_processor@DV?$stream_output_adapter@D@__crt_stdio_output@@V?$standard_base@DV?$stream_output_adapter@D@__crt_stdio_output@@@2@@__crt_stdio_output@@AAE_ND@Z 10034e94 f i libucrt:output.obj
 0001:00033f48       ?type_case_c_tchar@?$output_processor@DV?$string_output_adapter@D@__crt_stdio_output@@V?$format_validation_base@DV?$string_output_adapter@D@__crt_stdio_output@@@2@@__crt_stdio_output@@AAE_ND@Z 10034f48 f i libucrt:output.obj
 0001:00033ffc       ?type_case_c_tchar@?$output_processor@DV?$string_output_adapter@D@__crt_stdio_output@@V?$positional_parameter_base@DV?$string_output_adapter@D@__crt_stdio_output@@@2@@__crt_stdio_output@@AAE_ND@Z 10034ffc f i libucrt:output.obj
 0001:000340ec       ?type_case_c_tchar@?$output_processor@DV?$string_output_adapter@D@__crt_stdio_output@@V?$standard_base@DV?$string_output_adapter@D@__crt_stdio_output@@@2@@__crt_stdio_output@@AAE_ND@Z 100350ec f i libucrt:output.obj
 0001:000341a0       ?type_case_c_tchar@?$output_processor@_WV?$stream_output_adapter@_W@__crt_stdio_output@@V?$format_validation_base@_WV?$stream_output_adapter@_W@__crt_stdio_output@@@2@@__crt_stdio_output@@AAE_N_W@Z 100351a0 f i libucrt:output.obj
 0001:0003425e       ?type_case_c_tchar@?$output_processor@_WV?$stream_output_adapter@_W@__crt_stdio_output@@V?$positional_parameter_base@_WV?$stream_output_adapter@_W@__crt_stdio_output@@@2@@__crt_stdio_output@@AAE_N_W@Z 1003525e f i libucrt:output.obj
 0001:00034338       ?type_case_c_tchar@?$output_processor@_WV?$stream_output_adapter@_W@__crt_stdio_output@@V?$standard_base@_WV?$stream_output_adapter@_W@__crt_stdio_output@@@2@@__crt_stdio_output@@AAE_N_W@Z 10035338 f i libucrt:output.obj
 0001:000343f6       ?type_case_c_tchar@?$output_processor@_WV?$string_output_adapter@_W@__crt_stdio_output@@V?$format_validation_base@_WV?$string_output_adapter@_W@__crt_stdio_output@@@2@@__crt_stdio_output@@AAE_N_W@Z 100353f6 f i libucrt:output.obj
 0001:000344b4       ?type_case_c_tchar@?$output_processor@_WV?$string_output_adapter@_W@__crt_stdio_output@@V?$positional_parameter_base@_WV?$string_output_adapter@_W@__crt_stdio_output@@@2@@__crt_stdio_output@@AAE_N_W@Z 100354b4 f i libucrt:output.obj
 0001:0003458e       ?type_case_c_tchar@?$output_processor@_WV?$string_output_adapter@_W@__crt_stdio_output@@V?$standard_base@_WV?$string_output_adapter@_W@__crt_stdio_output@@@2@@__crt_stdio_output@@AAE_N_W@Z 1003558e f i libucrt:output.obj
 0001:0003464c       ?type_case_d@?$output_processor@DV?$stream_output_adapter@D@__crt_stdio_output@@V?$format_validation_base@DV?$stream_output_adapter@D@__crt_stdio_output@@@2@@__crt_stdio_output@@AAE_NXZ 1003564c f i libucrt:output.obj
 0001:0003465d       ?type_case_d@?$output_processor@DV?$stream_output_adapter@D@__crt_stdio_output@@V?$positional_parameter_base@DV?$stream_output_adapter@D@__crt_stdio_output@@@2@@__crt_stdio_output@@AAE_NXZ 1003565d f i libucrt:output.obj
 0001:0003466e       ?type_case_d@?$output_processor@DV?$stream_output_adapter@D@__crt_stdio_output@@V?$standard_base@DV?$stream_output_adapter@D@__crt_stdio_output@@@2@@__crt_stdio_output@@AAE_NXZ 1003566e f i libucrt:output.obj
 0001:0003467f       ?type_case_d@?$output_processor@DV?$string_output_adapter@D@__crt_stdio_output@@V?$format_validation_base@DV?$string_output_adapter@D@__crt_stdio_output@@@2@@__crt_stdio_output@@AAE_NXZ 1003567f f i libucrt:output.obj
 0001:00034690       ?type_case_d@?$output_processor@DV?$string_output_adapter@D@__crt_stdio_output@@V?$positional_parameter_base@DV?$string_output_adapter@D@__crt_stdio_output@@@2@@__crt_stdio_output@@AAE_NXZ 10035690 f i libucrt:output.obj
 0001:000346a1       ?type_case_d@?$output_processor@DV?$string_output_adapter@D@__crt_stdio_output@@V?$standard_base@DV?$string_output_adapter@D@__crt_stdio_output@@@2@@__crt_stdio_output@@AAE_NXZ 100356a1 f i libucrt:output.obj
 0001:000346b2       ?type_case_d@?$output_processor@_WV?$stream_output_adapter@_W@__crt_stdio_output@@V?$format_validation_base@_WV?$stream_output_adapter@_W@__crt_stdio_output@@@2@@__crt_stdio_output@@AAE_NXZ 100356b2 f i libucrt:output.obj
 0001:000346c3       ?type_case_d@?$output_processor@_WV?$stream_output_adapter@_W@__crt_stdio_output@@V?$positional_parameter_base@_WV?$stream_output_adapter@_W@__crt_stdio_output@@@2@@__crt_stdio_output@@AAE_NXZ 100356c3 f i libucrt:output.obj
 0001:000346d4       ?type_case_d@?$output_processor@_WV?$stream_output_adapter@_W@__crt_stdio_output@@V?$standard_base@_WV?$stream_output_adapter@_W@__crt_stdio_output@@@2@@__crt_stdio_output@@AAE_NXZ 100356d4 f i libucrt:output.obj
 0001:000346e5       ?type_case_d@?$output_processor@_WV?$string_output_adapter@_W@__crt_stdio_output@@V?$format_validation_base@_WV?$string_output_adapter@_W@__crt_stdio_output@@@2@@__crt_stdio_output@@AAE_NXZ 100356e5 f i libucrt:output.obj
 0001:000346f6       ?type_case_d@?$output_processor@_WV?$string_output_adapter@_W@__crt_stdio_output@@V?$positional_parameter_base@_WV?$string_output_adapter@_W@__crt_stdio_output@@@2@@__crt_stdio_output@@AAE_NXZ 100356f6 f i libucrt:output.obj
 0001:00034707       ?type_case_d@?$output_processor@_WV?$string_output_adapter@_W@__crt_stdio_output@@V?$standard_base@_WV?$string_output_adapter@_W@__crt_stdio_output@@@2@@__crt_stdio_output@@AAE_NXZ 10035707 f i libucrt:output.obj
 0001:00034718       ?type_case_integer@?$output_processor@DV?$stream_output_adapter@D@__crt_stdio_output@@V?$format_validation_base@DV?$stream_output_adapter@D@__crt_stdio_output@@@2@@__crt_stdio_output@@AAE_NI_N@Z 10035718 f i libucrt:output.obj
 0001:000348bf       ?type_case_integer@?$output_processor@DV?$stream_output_adapter@D@__crt_stdio_output@@V?$positional_parameter_base@DV?$stream_output_adapter@D@__crt_stdio_output@@@2@@__crt_stdio_output@@AAE_NI_N@Z 100358bf f i libucrt:output.obj
 0001:00034aa2       ?type_case_integer@?$output_processor@DV?$stream_output_adapter@D@__crt_stdio_output@@V?$standard_base@DV?$stream_output_adapter@D@__crt_stdio_output@@@2@@__crt_stdio_output@@AAE_NI_N@Z 10035aa2 f i libucrt:output.obj
 0001:00034c49       ?type_case_integer@?$output_processor@DV?$string_output_adapter@D@__crt_stdio_output@@V?$format_validation_base@DV?$string_output_adapter@D@__crt_stdio_output@@@2@@__crt_stdio_output@@AAE_NI_N@Z 10035c49 f i libucrt:output.obj
 0001:00034df0       ?type_case_integer@?$output_processor@DV?$string_output_adapter@D@__crt_stdio_output@@V?$positional_parameter_base@DV?$string_output_adapter@D@__crt_stdio_output@@@2@@__crt_stdio_output@@AAE_NI_N@Z 10035df0 f i libucrt:output.obj
 0001:00034fd3       ?type_case_integer@?$output_processor@DV?$string_output_adapter@D@__crt_stdio_output@@V?$standard_base@DV?$string_output_adapter@D@__crt_stdio_output@@@2@@__crt_stdio_output@@AAE_NI_N@Z 10035fd3 f i libucrt:output.obj
 0001:0003517a       ?type_case_integer@?$output_processor@_WV?$stream_output_adapter@_W@__crt_stdio_output@@V?$format_validation_base@_WV?$stream_output_adapter@_W@__crt_stdio_output@@@2@@__crt_stdio_output@@AAE_NI_N@Z 1003617a f i libucrt:output.obj
 0001:00035326       ?type_case_integer@?$output_processor@_WV?$stream_output_adapter@_W@__crt_stdio_output@@V?$positional_parameter_base@_WV?$stream_output_adapter@_W@__crt_stdio_output@@@2@@__crt_stdio_output@@AAE_NI_N@Z 10036326 f i libucrt:output.obj
 0001:0003550e       ?type_case_integer@?$output_processor@_WV?$stream_output_adapter@_W@__crt_stdio_output@@V?$standard_base@_WV?$stream_output_adapter@_W@__crt_stdio_output@@@2@@__crt_stdio_output@@AAE_NI_N@Z 1003650e f i libucrt:output.obj
 0001:000356ba       ?type_case_integer@?$output_processor@_WV?$string_output_adapter@_W@__crt_stdio_output@@V?$format_validation_base@_WV?$string_output_adapter@_W@__crt_stdio_output@@@2@@__crt_stdio_output@@AAE_NI_N@Z 100366ba f i libucrt:output.obj
 0001:00035866       ?type_case_integer@?$output_processor@_WV?$string_output_adapter@_W@__crt_stdio_output@@V?$positional_parameter_base@_WV?$string_output_adapter@_W@__crt_stdio_output@@@2@@__crt_stdio_output@@AAE_NI_N@Z 10036866 f i libucrt:output.obj
 0001:00035a4e       ?type_case_integer@?$output_processor@_WV?$string_output_adapter@_W@__crt_stdio_output@@V?$standard_base@_WV?$string_output_adapter@_W@__crt_stdio_output@@@2@@__crt_stdio_output@@AAE_NI_N@Z 10036a4e f i libucrt:output.obj
 0001:00035bfa       ?type_case_n@?$output_processor@DV?$stream_output_adapter@D@__crt_stdio_output@@V?$format_validation_base@DV?$stream_output_adapter@D@__crt_stdio_output@@@2@@__crt_stdio_output@@AAE_NXZ 10036bfa f i libucrt:output.obj
 0001:00035c8b       ?type_case_n@?$output_processor@DV?$stream_output_adapter@D@__crt_stdio_output@@V?$positional_parameter_base@DV?$stream_output_adapter@D@__crt_stdio_output@@@2@@__crt_stdio_output@@AAE_NXZ 10036c8b f i libucrt:output.obj
 0001:00035d4a       ?type_case_n@?$output_processor@DV?$stream_output_adapter@D@__crt_stdio_output@@V?$standard_base@DV?$stream_output_adapter@D@__crt_stdio_output@@@2@@__crt_stdio_output@@AAE_NXZ 10036d4a f i libucrt:output.obj
 0001:00035ddb       ?type_case_n@?$output_processor@DV?$string_output_adapter@D@__crt_stdio_output@@V?$format_validation_base@DV?$string_output_adapter@D@__crt_stdio_output@@@2@@__crt_stdio_output@@AAE_NXZ 10036ddb f i libucrt:output.obj
 0001:00035e6c       ?type_case_n@?$output_processor@DV?$string_output_adapter@D@__crt_stdio_output@@V?$positional_parameter_base@DV?$string_output_adapter@D@__crt_stdio_output@@@2@@__crt_stdio_output@@AAE_NXZ 10036e6c f i libucrt:output.obj
 0001:00035f2b       ?type_case_n@?$output_processor@DV?$string_output_adapter@D@__crt_stdio_output@@V?$standard_base@DV?$string_output_adapter@D@__crt_stdio_output@@@2@@__crt_stdio_output@@AAE_NXZ 10036f2b f i libucrt:output.obj
 0001:00035fbc       ?type_case_n@?$output_processor@_WV?$stream_output_adapter@_W@__crt_stdio_output@@V?$format_validation_base@_WV?$stream_output_adapter@_W@__crt_stdio_output@@@2@@__crt_stdio_output@@AAE_NXZ 10036fbc f i libucrt:output.obj
 0001:0003604d       ?type_case_n@?$output_processor@_WV?$stream_output_adapter@_W@__crt_stdio_output@@V?$positional_parameter_base@_WV?$stream_output_adapter@_W@__crt_stdio_output@@@2@@__crt_stdio_output@@AAE_NXZ 1003704d f i libucrt:output.obj
 0001:0003610c       ?type_case_n@?$output_processor@_WV?$stream_output_adapter@_W@__crt_stdio_output@@V?$standard_base@_WV?$stream_output_adapter@_W@__crt_stdio_output@@@2@@__crt_stdio_output@@AAE_NXZ 1003710c f i libucrt:output.obj
 0001:0003619d       ?type_case_n@?$output_processor@_WV?$string_output_adapter@_W@__crt_stdio_output@@V?$format_validation_base@_WV?$string_output_adapter@_W@__crt_stdio_output@@@2@@__crt_stdio_output@@AAE_NXZ 1003719d f i libucrt:output.obj
 0001:0003622e       ?type_case_n@?$output_processor@_WV?$string_output_adapter@_W@__crt_stdio_output@@V?$positional_parameter_base@_WV?$string_output_adapter@_W@__crt_stdio_output@@@2@@__crt_stdio_output@@AAE_NXZ 1003722e f i libucrt:output.obj
 0001:000362ed       ?type_case_n@?$output_processor@_WV?$string_output_adapter@_W@__crt_stdio_output@@V?$standard_base@_WV?$string_output_adapter@_W@__crt_stdio_output@@@2@@__crt_stdio_output@@AAE_NXZ 100372ed f i libucrt:output.obj
 0001:0003637e       ?type_case_o@?$output_processor@DV?$stream_output_adapter@D@__crt_stdio_output@@V?$format_validation_base@DV?$stream_output_adapter@D@__crt_stdio_output@@@2@@__crt_stdio_output@@AAE_NXZ 1003737e f i libucrt:output.obj
 0001:000363a4       ?type_case_o@?$output_processor@DV?$stream_output_adapter@D@__crt_stdio_output@@V?$positional_parameter_base@DV?$stream_output_adapter@D@__crt_stdio_output@@@2@@__crt_stdio_output@@AAE_NXZ 100373a4 f i libucrt:output.obj
 0001:000363ca       ?type_case_o@?$output_processor@DV?$stream_output_adapter@D@__crt_stdio_output@@V?$standard_base@DV?$stream_output_adapter@D@__crt_stdio_output@@@2@@__crt_stdio_output@@AAE_NXZ 100373ca f i libucrt:output.obj
 0001:000363f0       ?type_case_o@?$output_processor@DV?$string_output_adapter@D@__crt_stdio_output@@V?$format_validation_base@DV?$string_output_adapter@D@__crt_stdio_output@@@2@@__crt_stdio_output@@AAE_NXZ 100373f0 f i libucrt:output.obj
 0001:00036416       ?type_case_o@?$output_processor@DV?$string_output_adapter@D@__crt_stdio_output@@V?$positional_parameter_base@DV?$string_output_adapter@D@__crt_stdio_output@@@2@@__crt_stdio_output@@AAE_NXZ 10037416 f i libucrt:output.obj
 0001:0003643c       ?type_case_o@?$output_processor@DV?$string_output_adapter@D@__crt_stdio_output@@V?$standard_base@DV?$string_output_adapter@D@__crt_stdio_output@@@2@@__crt_stdio_output@@AAE_NXZ 1003743c f i libucrt:output.obj
 0001:00036462       ?type_case_o@?$output_processor@_WV?$stream_output_adapter@_W@__crt_stdio_output@@V?$format_validation_base@_WV?$stream_output_adapter@_W@__crt_stdio_output@@@2@@__crt_stdio_output@@AAE_NXZ 10037462 f i libucrt:output.obj
 0001:00036488       ?type_case_o@?$output_processor@_WV?$stream_output_adapter@_W@__crt_stdio_output@@V?$positional_parameter_base@_WV?$stream_output_adapter@_W@__crt_stdio_output@@@2@@__crt_stdio_output@@AAE_NXZ 10037488 f i libucrt:output.obj
 0001:000364ae       ?type_case_o@?$output_processor@_WV?$stream_output_adapter@_W@__crt_stdio_output@@V?$standard_base@_WV?$stream_output_adapter@_W@__crt_stdio_output@@@2@@__crt_stdio_output@@AAE_NXZ 100374ae f i libucrt:output.obj
 0001:000364d4       ?type_case_o@?$output_processor@_WV?$string_output_adapter@_W@__crt_stdio_output@@V?$format_validation_base@_WV?$string_output_adapter@_W@__crt_stdio_output@@@2@@__crt_stdio_output@@AAE_NXZ 100374d4 f i libucrt:output.obj
 0001:000364fa       ?type_case_o@?$output_processor@_WV?$string_output_adapter@_W@__crt_stdio_output@@V?$positional_parameter_base@_WV?$string_output_adapter@_W@__crt_stdio_output@@@2@@__crt_stdio_output@@AAE_NXZ 100374fa f i libucrt:output.obj
 0001:00036520       ?type_case_o@?$output_processor@_WV?$string_output_adapter@_W@__crt_stdio_output@@V?$standard_base@_WV?$string_output_adapter@_W@__crt_stdio_output@@@2@@__crt_stdio_output@@AAE_NXZ 10037520 f i libucrt:output.obj
 0001:00036546       ?type_case_p@?$output_processor@DV?$stream_output_adapter@D@__crt_stdio_output@@V?$format_validation_base@DV?$stream_output_adapter@D@__crt_stdio_output@@@2@@__crt_stdio_output@@AAE_NXZ 10037546 f i libucrt:output.obj
 0001:00036564       ?type_case_p@?$output_processor@DV?$stream_output_adapter@D@__crt_stdio_output@@V?$positional_parameter_base@DV?$stream_output_adapter@D@__crt_stdio_output@@@2@@__crt_stdio_output@@AAE_NXZ 10037564 f i libucrt:output.obj
 0001:00036582       ?type_case_p@?$output_processor@DV?$stream_output_adapter@D@__crt_stdio_output@@V?$standard_base@DV?$stream_output_adapter@D@__crt_stdio_output@@@2@@__crt_stdio_output@@AAE_NXZ 10037582 f i libucrt:output.obj
 0001:000365a0       ?type_case_p@?$output_processor@DV?$string_output_adapter@D@__crt_stdio_output@@V?$format_validation_base@DV?$string_output_adapter@D@__crt_stdio_output@@@2@@__crt_stdio_output@@AAE_NXZ 100375a0 f i libucrt:output.obj
 0001:000365be       ?type_case_p@?$output_processor@DV?$string_output_adapter@D@__crt_stdio_output@@V?$positional_parameter_base@DV?$string_output_adapter@D@__crt_stdio_output@@@2@@__crt_stdio_output@@AAE_NXZ 100375be f i libucrt:output.obj
 0001:000365dc       ?type_case_p@?$output_processor@DV?$string_output_adapter@D@__crt_stdio_output@@V?$standard_base@DV?$string_output_adapter@D@__crt_stdio_output@@@2@@__crt_stdio_output@@AAE_NXZ 100375dc f i libucrt:output.obj
 0001:000365fa       ?type_case_p@?$output_processor@_WV?$stream_output_adapter@_W@__crt_stdio_output@@V?$format_validation_base@_WV?$stream_output_adapter@_W@__crt_stdio_output@@@2@@__crt_stdio_output@@AAE_NXZ 100375fa f i libucrt:output.obj
 0001:00036618       ?type_case_p@?$output_processor@_WV?$stream_output_adapter@_W@__crt_stdio_output@@V?$positional_parameter_base@_WV?$stream_output_adapter@_W@__crt_stdio_output@@@2@@__crt_stdio_output@@AAE_NXZ 10037618 f i libucrt:output.obj
 0001:00036636       ?type_case_p@?$output_processor@_WV?$stream_output_adapter@_W@__crt_stdio_output@@V?$standard_base@_WV?$stream_output_adapter@_W@__crt_stdio_output@@@2@@__crt_stdio_output@@AAE_NXZ 10037636 f i libucrt:output.obj
 0001:00036654       ?type_case_p@?$output_processor@_WV?$string_output_adapter@_W@__crt_stdio_output@@V?$format_validation_base@_WV?$string_output_adapter@_W@__crt_stdio_output@@@2@@__crt_stdio_output@@AAE_NXZ 10037654 f i libucrt:output.obj
 0001:00036672       ?type_case_p@?$output_processor@_WV?$string_output_adapter@_W@__crt_stdio_output@@V?$positional_parameter_base@_WV?$string_output_adapter@_W@__crt_stdio_output@@@2@@__crt_stdio_output@@AAE_NXZ 10037672 f i libucrt:output.obj
 0001:00036690       ?type_case_p@?$output_processor@_WV?$string_output_adapter@_W@__crt_stdio_output@@V?$standard_base@_WV?$string_output_adapter@_W@__crt_stdio_output@@@2@@__crt_stdio_output@@AAE_NXZ 10037690 f i libucrt:output.obj
 0001:000366ae       ?type_case_s@?$output_processor@DV?$stream_output_adapter@D@__crt_stdio_output@@V?$format_validation_base@DV?$stream_output_adapter@D@__crt_stdio_output@@@2@@__crt_stdio_output@@AAE_NXZ 100376ae f i libucrt:output.obj
 0001:0003673b       ?type_case_s@?$output_processor@DV?$stream_output_adapter@D@__crt_stdio_output@@V?$positional_parameter_base@DV?$stream_output_adapter@D@__crt_stdio_output@@@2@@__crt_stdio_output@@AAE_NXZ 1003773b f i libucrt:output.obj
 0001:000367d8       ?type_case_s@?$output_processor@DV?$stream_output_adapter@D@__crt_stdio_output@@V?$standard_base@DV?$stream_output_adapter@D@__crt_stdio_output@@@2@@__crt_stdio_output@@AAE_NXZ 100377d8 f i libucrt:output.obj
 0001:00036865       ?type_case_s@?$output_processor@DV?$string_output_adapter@D@__crt_stdio_output@@V?$format_validation_base@DV?$string_output_adapter@D@__crt_stdio_output@@@2@@__crt_stdio_output@@AAE_NXZ 10037865 f i libucrt:output.obj
 0001:000368f2       ?type_case_s@?$output_processor@DV?$string_output_adapter@D@__crt_stdio_output@@V?$positional_parameter_base@DV?$string_output_adapter@D@__crt_stdio_output@@@2@@__crt_stdio_output@@AAE_NXZ 100378f2 f i libucrt:output.obj
 0001:0003698f       ?type_case_s@?$output_processor@DV?$string_output_adapter@D@__crt_stdio_output@@V?$standard_base@DV?$string_output_adapter@D@__crt_stdio_output@@@2@@__crt_stdio_output@@AAE_NXZ 1003798f f i libucrt:output.obj
 0001:00036a1c       ?type_case_s@?$output_processor@_WV?$stream_output_adapter@_W@__crt_stdio_output@@V?$format_validation_base@_WV?$stream_output_adapter@_W@__crt_stdio_output@@@2@@__crt_stdio_output@@AAE_NXZ 10037a1c f i libucrt:output.obj
 0001:00036aab       ?type_case_s@?$output_processor@_WV?$stream_output_adapter@_W@__crt_stdio_output@@V?$positional_parameter_base@_WV?$stream_output_adapter@_W@__crt_stdio_output@@@2@@__crt_stdio_output@@AAE_NXZ 10037aab f i libucrt:output.obj
 0001:00036b4b       ?type_case_s@?$output_processor@_WV?$stream_output_adapter@_W@__crt_stdio_output@@V?$standard_base@_WV?$stream_output_adapter@_W@__crt_stdio_output@@@2@@__crt_stdio_output@@AAE_NXZ 10037b4b f i libucrt:output.obj
 0001:00036bda       ?type_case_s@?$output_processor@_WV?$string_output_adapter@_W@__crt_stdio_output@@V?$format_validation_base@_WV?$string_output_adapter@_W@__crt_stdio_output@@@2@@__crt_stdio_output@@AAE_NXZ 10037bda f i libucrt:output.obj
 0001:00036c69       ?type_case_s@?$output_processor@_WV?$string_output_adapter@_W@__crt_stdio_output@@V?$positional_parameter_base@_WV?$string_output_adapter@_W@__crt_stdio_output@@@2@@__crt_stdio_output@@AAE_NXZ 10037c69 f i libucrt:output.obj
 0001:00036d09       ?type_case_s@?$output_processor@_WV?$string_output_adapter@_W@__crt_stdio_output@@V?$standard_base@_WV?$string_output_adapter@_W@__crt_stdio_output@@@2@@__crt_stdio_output@@AAE_NXZ 10037d09 f i libucrt:output.obj
 0001:00036d98       ?type_case_s_compute_narrow_string_length@?$output_processor@DV?$stream_output_adapter@D@__crt_stdio_output@@V?$format_validation_base@DV?$stream_output_adapter@D@__crt_stdio_output@@@2@@__crt_stdio_output@@ABEHHD@Z 10037d98 f i libucrt:output.obj
 0001:00036db3       ?type_case_s_compute_narrow_string_length@?$output_processor@DV?$stream_output_adapter@D@__crt_stdio_output@@V?$positional_parameter_base@DV?$stream_output_adapter@D@__crt_stdio_output@@@2@@__crt_stdio_output@@ABEHHD@Z 10037db3 f i libucrt:output.obj
 0001:00036dce       ?type_case_s_compute_narrow_string_length@?$output_processor@DV?$stream_output_adapter@D@__crt_stdio_output@@V?$standard_base@DV?$stream_output_adapter@D@__crt_stdio_output@@@2@@__crt_stdio_output@@ABEHHD@Z 10037dce f i libucrt:output.obj
 0001:00036de9       ?type_case_s_compute_narrow_string_length@?$output_processor@DV?$string_output_adapter@D@__crt_stdio_output@@V?$format_validation_base@DV?$string_output_adapter@D@__crt_stdio_output@@@2@@__crt_stdio_output@@ABEHHD@Z 10037de9 f i libucrt:output.obj
 0001:00036e04       ?type_case_s_compute_narrow_string_length@?$output_processor@DV?$string_output_adapter@D@__crt_stdio_output@@V?$positional_parameter_base@DV?$string_output_adapter@D@__crt_stdio_output@@@2@@__crt_stdio_output@@ABEHHD@Z 10037e04 f i libucrt:output.obj
 0001:00036e1f       ?type_case_s_compute_narrow_string_length@?$output_processor@DV?$string_output_adapter@D@__crt_stdio_output@@V?$standard_base@DV?$string_output_adapter@D@__crt_stdio_output@@@2@@__crt_stdio_output@@ABEHHD@Z 10037e1f f i libucrt:output.obj
 0001:00036e3a       ?type_case_s_compute_narrow_string_length@?$output_processor@_WV?$stream_output_adapter@_W@__crt_stdio_output@@V?$format_validation_base@_WV?$stream_output_adapter@_W@__crt_stdio_output@@@2@@__crt_stdio_output@@ABEHH_W@Z 10037e3a f i libucrt:output.obj
 0001:00036e86       ?type_case_s_compute_narrow_string_length@?$output_processor@_WV?$stream_output_adapter@_W@__crt_stdio_output@@V?$positional_parameter_base@_WV?$stream_output_adapter@_W@__crt_stdio_output@@@2@@__crt_stdio_output@@ABEHH_W@Z 10037e86 f i libucrt:output.obj
 0001:00036ed2       ?type_case_s_compute_narrow_string_length@?$output_processor@_WV?$stream_output_adapter@_W@__crt_stdio_output@@V?$standard_base@_WV?$stream_output_adapter@_W@__crt_stdio_output@@@2@@__crt_stdio_output@@ABEHH_W@Z 10037ed2 f i libucrt:output.obj
 0001:00036f1e       ?type_case_s_compute_narrow_string_length@?$output_processor@_WV?$string_output_adapter@_W@__crt_stdio_output@@V?$format_validation_base@_WV?$string_output_adapter@_W@__crt_stdio_output@@@2@@__crt_stdio_output@@ABEHH_W@Z 10037f1e f i libucrt:output.obj
 0001:00036f6a       ?type_case_s_compute_narrow_string_length@?$output_processor@_WV?$string_output_adapter@_W@__crt_stdio_output@@V?$positional_parameter_base@_WV?$string_output_adapter@_W@__crt_stdio_output@@@2@@__crt_stdio_output@@ABEHH_W@Z 10037f6a f i libucrt:output.obj
 0001:00036fb6       ?type_case_s_compute_narrow_string_length@?$output_processor@_WV?$string_output_adapter@_W@__crt_stdio_output@@V?$standard_base@_WV?$string_output_adapter@_W@__crt_stdio_output@@@2@@__crt_stdio_output@@ABEHH_W@Z 10037fb6 f i libucrt:output.obj
 0001:00037002       ?type_case_u@?$output_processor@DV?$stream_output_adapter@D@__crt_stdio_output@@V?$format_validation_base@DV?$stream_output_adapter@D@__crt_stdio_output@@@2@@__crt_stdio_output@@AAE_NXZ 10038002 f i libucrt:output.obj
 0001:0003700e       ?type_case_u@?$output_processor@DV?$stream_output_adapter@D@__crt_stdio_output@@V?$positional_parameter_base@DV?$stream_output_adapter@D@__crt_stdio_output@@@2@@__crt_stdio_output@@AAE_NXZ 1003800e f i libucrt:output.obj
 0001:0003701a       ?type_case_u@?$output_processor@DV?$stream_output_adapter@D@__crt_stdio_output@@V?$standard_base@DV?$stream_output_adapter@D@__crt_stdio_output@@@2@@__crt_stdio_output@@AAE_NXZ 1003801a f i libucrt:output.obj
 0001:00037026       ?type_case_u@?$output_processor@DV?$string_output_adapter@D@__crt_stdio_output@@V?$format_validation_base@DV?$string_output_adapter@D@__crt_stdio_output@@@2@@__crt_stdio_output@@AAE_NXZ 10038026 f i libucrt:output.obj
 0001:00037032       ?type_case_u@?$output_processor@DV?$string_output_adapter@D@__crt_stdio_output@@V?$positional_parameter_base@DV?$string_output_adapter@D@__crt_stdio_output@@@2@@__crt_stdio_output@@AAE_NXZ 10038032 f i libucrt:output.obj
 0001:0003703e       ?type_case_u@?$output_processor@DV?$string_output_adapter@D@__crt_stdio_output@@V?$standard_base@DV?$string_output_adapter@D@__crt_stdio_output@@@2@@__crt_stdio_output@@AAE_NXZ 1003803e f i libucrt:output.obj
 0001:0003704a       ?type_case_u@?$output_processor@_WV?$stream_output_adapter@_W@__crt_stdio_output@@V?$format_validation_base@_WV?$stream_output_adapter@_W@__crt_stdio_output@@@2@@__crt_stdio_output@@AAE_NXZ 1003804a f i libucrt:output.obj
 0001:00037056       ?type_case_u@?$output_processor@_WV?$stream_output_adapter@_W@__crt_stdio_output@@V?$positional_parameter_base@_WV?$stream_output_adapter@_W@__crt_stdio_output@@@2@@__crt_stdio_output@@AAE_NXZ 10038056 f i libucrt:output.obj
 0001:00037062       ?type_case_u@?$output_processor@_WV?$stream_output_adapter@_W@__crt_stdio_output@@V?$standard_base@_WV?$stream_output_adapter@_W@__crt_stdio_output@@@2@@__crt_stdio_output@@AAE_NXZ 10038062 f i libucrt:output.obj
 0001:0003706e       ?type_case_u@?$output_processor@_WV?$string_output_adapter@_W@__crt_stdio_output@@V?$format_validation_base@_WV?$string_output_adapter@_W@__crt_stdio_output@@@2@@__crt_stdio_output@@AAE_NXZ 1003806e f i libucrt:output.obj
 0001:0003707a       ?type_case_u@?$output_processor@_WV?$string_output_adapter@_W@__crt_stdio_output@@V?$positional_parameter_base@_WV?$string_output_adapter@_W@__crt_stdio_output@@@2@@__crt_stdio_output@@AAE_NXZ 1003807a f i libucrt:output.obj
 0001:00037086       ?type_case_u@?$output_processor@_WV?$string_output_adapter@_W@__crt_stdio_output@@V?$standard_base@_WV?$string_output_adapter@_W@__crt_stdio_output@@@2@@__crt_stdio_output@@AAE_NXZ 10038086 f i libucrt:output.obj
 0001:00037092       ?type_case_x@?$output_processor@DV?$stream_output_adapter@D@__crt_stdio_output@@V?$format_validation_base@DV?$stream_output_adapter@D@__crt_stdio_output@@@2@@__crt_stdio_output@@AAE_NXZ 10038092 f i libucrt:output.obj
 0001:0003709e       ?type_case_x@?$output_processor@DV?$stream_output_adapter@D@__crt_stdio_output@@V?$positional_parameter_base@DV?$stream_output_adapter@D@__crt_stdio_output@@@2@@__crt_stdio_output@@AAE_NXZ 1003809e f i libucrt:output.obj
 0001:000370aa       ?type_case_x@?$output_processor@DV?$stream_output_adapter@D@__crt_stdio_output@@V?$standard_base@DV?$stream_output_adapter@D@__crt_stdio_output@@@2@@__crt_stdio_output@@AAE_NXZ 100380aa f i libucrt:output.obj
 0001:000370b6       ?type_case_x@?$output_processor@DV?$string_output_adapter@D@__crt_stdio_output@@V?$format_validation_base@DV?$string_output_adapter@D@__crt_stdio_output@@@2@@__crt_stdio_output@@AAE_NXZ 100380b6 f i libucrt:output.obj
 0001:000370c2       ?type_case_x@?$output_processor@DV?$string_output_adapter@D@__crt_stdio_output@@V?$positional_parameter_base@DV?$string_output_adapter@D@__crt_stdio_output@@@2@@__crt_stdio_output@@AAE_NXZ 100380c2 f i libucrt:output.obj
 0001:000370ce       ?type_case_x@?$output_processor@DV?$string_output_adapter@D@__crt_stdio_output@@V?$standard_base@DV?$string_output_adapter@D@__crt_stdio_output@@@2@@__crt_stdio_output@@AAE_NXZ 100380ce f i libucrt:output.obj
 0001:000370da       ?type_case_x@?$output_processor@_WV?$stream_output_adapter@_W@__crt_stdio_output@@V?$format_validation_base@_WV?$stream_output_adapter@_W@__crt_stdio_output@@@2@@__crt_stdio_output@@AAE_NXZ 100380da f i libucrt:output.obj
 0001:000370e6       ?type_case_x@?$output_processor@_WV?$stream_output_adapter@_W@__crt_stdio_output@@V?$positional_parameter_base@_WV?$stream_output_adapter@_W@__crt_stdio_output@@@2@@__crt_stdio_output@@AAE_NXZ 100380e6 f i libucrt:output.obj
 0001:000370f2       ?type_case_x@?$output_processor@_WV?$stream_output_adapter@_W@__crt_stdio_output@@V?$standard_base@_WV?$stream_output_adapter@_W@__crt_stdio_output@@@2@@__crt_stdio_output@@AAE_NXZ 100380f2 f i libucrt:output.obj
 0001:000370fe       ?type_case_x@?$output_processor@_WV?$string_output_adapter@_W@__crt_stdio_output@@V?$format_validation_base@_WV?$string_output_adapter@_W@__crt_stdio_output@@@2@@__crt_stdio_output@@AAE_NXZ 100380fe f i libucrt:output.obj
 0001:0003710a       ?type_case_x@?$output_processor@_WV?$string_output_adapter@_W@__crt_stdio_output@@V?$positional_parameter_base@_WV?$string_output_adapter@_W@__crt_stdio_output@@@2@@__crt_stdio_output@@AAE_NXZ 1003810a f i libucrt:output.obj
 0001:00037116       ?type_case_x@?$output_processor@_WV?$string_output_adapter@_W@__crt_stdio_output@@V?$standard_base@_WV?$string_output_adapter@_W@__crt_stdio_output@@@2@@__crt_stdio_output@@AAE_NXZ 10038116 f i libucrt:output.obj
 0001:00037122       ?unset_flag@?$output_processor@DV?$stream_output_adapter@D@__crt_stdio_output@@V?$format_validation_base@DV?$stream_output_adapter@D@__crt_stdio_output@@@2@@__crt_stdio_output@@AAEXI@Z 10038122 f i libucrt:output.obj
 0001:00037137       ?unset_flag@?$output_processor@DV?$stream_output_adapter@D@__crt_stdio_output@@V?$positional_parameter_base@DV?$stream_output_adapter@D@__crt_stdio_output@@@2@@__crt_stdio_output@@AAEXI@Z 10038137 f i libucrt:output.obj
 0001:0003714c       ?unset_flag@?$output_processor@DV?$stream_output_adapter@D@__crt_stdio_output@@V?$standard_base@DV?$stream_output_adapter@D@__crt_stdio_output@@@2@@__crt_stdio_output@@AAEXI@Z 1003814c f i libucrt:output.obj
 0001:00037161       ?unset_flag@?$output_processor@DV?$string_output_adapter@D@__crt_stdio_output@@V?$format_validation_base@DV?$string_output_adapter@D@__crt_stdio_output@@@2@@__crt_stdio_output@@AAEXI@Z 10038161 f i libucrt:output.obj
 0001:00037176       ?unset_flag@?$output_processor@DV?$string_output_adapter@D@__crt_stdio_output@@V?$positional_parameter_base@DV?$string_output_adapter@D@__crt_stdio_output@@@2@@__crt_stdio_output@@AAEXI@Z 10038176 f i libucrt:output.obj
 0001:0003718b       ?unset_flag@?$output_processor@DV?$string_output_adapter@D@__crt_stdio_output@@V?$standard_base@DV?$string_output_adapter@D@__crt_stdio_output@@@2@@__crt_stdio_output@@AAEXI@Z 1003818b f i libucrt:output.obj
 0001:000371a0       ?unset_flag@?$output_processor@_WV?$stream_output_adapter@_W@__crt_stdio_output@@V?$format_validation_base@_WV?$stream_output_adapter@_W@__crt_stdio_output@@@2@@__crt_stdio_output@@AAEXI@Z 100381a0 f i libucrt:output.obj
 0001:000371b5       ?unset_flag@?$output_processor@_WV?$stream_output_adapter@_W@__crt_stdio_output@@V?$positional_parameter_base@_WV?$stream_output_adapter@_W@__crt_stdio_output@@@2@@__crt_stdio_output@@AAEXI@Z 100381b5 f i libucrt:output.obj
 0001:000371ca       ?unset_flag@?$output_processor@_WV?$stream_output_adapter@_W@__crt_stdio_output@@V?$standard_base@_WV?$stream_output_adapter@_W@__crt_stdio_output@@@2@@__crt_stdio_output@@AAEXI@Z 100381ca f i libucrt:output.obj
 0001:000371df       ?unset_flag@?$output_processor@_WV?$string_output_adapter@_W@__crt_stdio_output@@V?$format_validation_base@_WV?$string_output_adapter@_W@__crt_stdio_output@@@2@@__crt_stdio_output@@AAEXI@Z 100381df f i libucrt:output.obj
 0001:000371f4       ?unset_flag@?$output_processor@_WV?$string_output_adapter@_W@__crt_stdio_output@@V?$positional_parameter_base@_WV?$string_output_adapter@_W@__crt_stdio_output@@@2@@__crt_stdio_output@@AAEXI@Z 100381f4 f i libucrt:output.obj
 0001:00037209       ?unset_flag@?$output_processor@_WV?$string_output_adapter@_W@__crt_stdio_output@@V?$standard_base@_WV?$string_output_adapter@_W@__crt_stdio_output@@@2@@__crt_stdio_output@@AAEXI@Z 10038209 f i libucrt:output.obj
 0001:0003721e       ?update_field_width@?$positional_parameter_base@DV?$stream_output_adapter@D@__crt_stdio_output@@@__crt_stdio_output@@IAE_NXZ 1003821e f i libucrt:output.obj
 0001:00037301       ?update_field_width@?$positional_parameter_base@DV?$string_output_adapter@D@__crt_stdio_output@@@__crt_stdio_output@@IAE_NXZ 10038301 f i libucrt:output.obj
 0001:000373e4       ?update_field_width@?$positional_parameter_base@_WV?$stream_output_adapter@_W@__crt_stdio_output@@@__crt_stdio_output@@IAE_NXZ 100383e4 f i libucrt:output.obj
 0001:000374c8       ?update_field_width@?$positional_parameter_base@_WV?$string_output_adapter@_W@__crt_stdio_output@@@__crt_stdio_output@@IAE_NXZ 100384c8 f i libucrt:output.obj
 0001:000375ac       ?update_field_width@?$standard_base@DV?$stream_output_adapter@D@__crt_stdio_output@@@__crt_stdio_output@@IAE_NXZ 100385ac f i libucrt:output.obj
 0001:000375c0       ?update_field_width@?$standard_base@DV?$string_output_adapter@D@__crt_stdio_output@@@__crt_stdio_output@@IAE_NXZ 100385c0 f i libucrt:output.obj
 0001:000375d4       ?update_field_width@?$standard_base@_WV?$stream_output_adapter@_W@__crt_stdio_output@@@__crt_stdio_output@@IAE_NXZ 100385d4 f i libucrt:output.obj
 0001:000375e8       ?update_field_width@?$standard_base@_WV?$string_output_adapter@_W@__crt_stdio_output@@@__crt_stdio_output@@IAE_NXZ 100385e8 f i libucrt:output.obj
 0001:000375fc       ?update_precision@?$positional_parameter_base@DV?$stream_output_adapter@D@__crt_stdio_output@@@__crt_stdio_output@@IAE_NXZ 100385fc f i libucrt:output.obj
 0001:000376df       ?update_precision@?$positional_parameter_base@DV?$string_output_adapter@D@__crt_stdio_output@@@__crt_stdio_output@@IAE_NXZ 100386df f i libucrt:output.obj
 0001:000377c2       ?update_precision@?$positional_parameter_base@_WV?$stream_output_adapter@_W@__crt_stdio_output@@@__crt_stdio_output@@IAE_NXZ 100387c2 f i libucrt:output.obj
 0001:000378a6       ?update_precision@?$positional_parameter_base@_WV?$string_output_adapter@_W@__crt_stdio_output@@@__crt_stdio_output@@IAE_NXZ 100388a6 f i libucrt:output.obj
 0001:0003798a       ?update_precision@?$standard_base@DV?$stream_output_adapter@D@__crt_stdio_output@@@__crt_stdio_output@@IAE_NXZ 1003898a f i libucrt:output.obj
 0001:0003799e       ?update_precision@?$standard_base@DV?$string_output_adapter@D@__crt_stdio_output@@@__crt_stdio_output@@IAE_NXZ 1003899e f i libucrt:output.obj
 0001:000379b2       ?update_precision@?$standard_base@_WV?$stream_output_adapter@_W@__crt_stdio_output@@@__crt_stdio_output@@IAE_NXZ 100389b2 f i libucrt:output.obj
 0001:000379c6       ?update_precision@?$standard_base@_WV?$string_output_adapter@_W@__crt_stdio_output@@@__crt_stdio_output@@IAE_NXZ 100389c6 f i libucrt:output.obj
 0001:000379da       ?valid@__crt_stdio_stream@@QBE_NXZ 100389da f i libucrt:output.obj
 0001:000379e1       ?validate@?$stream_output_adapter@D@__crt_stdio_output@@QBE_NXZ 100389e1 f i libucrt:output.obj
 0001:00037a0a       ?validate@?$stream_output_adapter@_W@__crt_stdio_output@@QBE_NXZ 10038a0a f i libucrt:output.obj
 0001:00037a2b       ?validate@?$string_output_adapter@D@__crt_stdio_output@@QBE_NXZ 10038a2b f i libucrt:output.obj
 0001:00037a4c       ?validate@?$string_output_adapter@_W@__crt_stdio_output@@QBE_NXZ 10038a4c f i libucrt:output.obj
 0001:00037a6d       ?validate_and_store_parameter_data@?$positional_parameter_base@DV?$stream_output_adapter@D@__crt_stdio_output@@@__crt_stdio_output@@AAE_NAAUparameter_data@12@W4parameter_type@12@DW4length_modifier@2@@Z 10038a6d f i libucrt:output.obj
 0001:00037aca       ?validate_and_store_parameter_data@?$positional_parameter_base@DV?$string_output_adapter@D@__crt_stdio_output@@@__crt_stdio_output@@AAE_NAAUparameter_data@12@W4parameter_type@12@DW4length_modifier@2@@Z 10038aca f i libucrt:output.obj
 0001:00037b27       ?validate_and_store_parameter_data@?$positional_parameter_base@_WV?$stream_output_adapter@_W@__crt_stdio_output@@@__crt_stdio_output@@AAE_NAAUparameter_data@12@W4parameter_type@12@_WW4length_modifier@2@@Z 10038b27 f i libucrt:output.obj
 0001:00037b87       ?validate_and_store_parameter_data@?$positional_parameter_base@_WV?$string_output_adapter@_W@__crt_stdio_output@@@__crt_stdio_output@@AAE_NAAUparameter_data@12@W4parameter_type@12@_WW4length_modifier@2@@Z 10038b87 f i libucrt:output.obj
 0001:00037be7       ?validate_and_update_state_at_beginning_of_format_character@?$positional_parameter_base@DV?$stream_output_adapter@D@__crt_stdio_output@@@__crt_stdio_output@@IAE_NXZ 10038be7 f i libucrt:output.obj
 0001:00037d1f       ?validate_and_update_state_at_beginning_of_format_character@?$positional_parameter_base@DV?$string_output_adapter@D@__crt_stdio_output@@@__crt_stdio_output@@IAE_NXZ 10038d1f f i libucrt:output.obj
 0001:00037e57       ?validate_and_update_state_at_beginning_of_format_character@?$positional_parameter_base@_WV?$stream_output_adapter@_W@__crt_stdio_output@@@__crt_stdio_output@@IAE_NXZ 10038e57 f i libucrt:output.obj
 0001:00037f9a       ?validate_and_update_state_at_beginning_of_format_character@?$positional_parameter_base@_WV?$string_output_adapter@_W@__crt_stdio_output@@@__crt_stdio_output@@IAE_NXZ 10038f9a f i libucrt:output.obj
 0001:000380dd       ?validate_and_update_state_at_beginning_of_format_character@?$standard_base@DV?$stream_output_adapter@D@__crt_stdio_output@@@__crt_stdio_output@@IAE_NXZ 100390dd f i libucrt:output.obj
 0001:000380e0       ?validate_and_update_state_at_beginning_of_format_character@?$standard_base@DV?$string_output_adapter@D@__crt_stdio_output@@@__crt_stdio_output@@IAE_NXZ 100390e0 f i libucrt:output.obj
 0001:000380e3       ?validate_and_update_state_at_beginning_of_format_character@?$standard_base@_WV?$stream_output_adapter@_W@__crt_stdio_output@@@__crt_stdio_output@@IAE_NXZ 100390e3 f i libucrt:output.obj
 0001:000380e6       ?validate_and_update_state_at_beginning_of_format_character@?$standard_base@_WV?$string_output_adapter@_W@__crt_stdio_output@@@__crt_stdio_output@@IAE_NXZ 100390e6 f i libucrt:output.obj
 0001:000380e9       ?validate_and_update_state_at_end_of_format_string@?$format_validation_base@DV?$stream_output_adapter@D@__crt_stdio_output@@@__crt_stdio_output@@IBE_NXZ 100390e9 f i libucrt:output.obj
 0001:00038113       ?validate_and_update_state_at_end_of_format_string@?$format_validation_base@DV?$string_output_adapter@D@__crt_stdio_output@@@__crt_stdio_output@@IBE_NXZ 10039113 f i libucrt:output.obj
 0001:0003813d       ?validate_and_update_state_at_end_of_format_string@?$format_validation_base@_WV?$stream_output_adapter@_W@__crt_stdio_output@@@__crt_stdio_output@@IBE_NXZ 1003913d f i libucrt:output.obj
 0001:00038167       ?validate_and_update_state_at_end_of_format_string@?$format_validation_base@_WV?$string_output_adapter@_W@__crt_stdio_output@@@__crt_stdio_output@@IBE_NXZ 10039167 f i libucrt:output.obj
 0001:00038191       ?validate_and_update_state_at_end_of_format_string@?$positional_parameter_base@DV?$stream_output_adapter@D@__crt_stdio_output@@@__crt_stdio_output@@IAE_NXZ 10039191 f i libucrt:output.obj
 0001:00038237       ?validate_and_update_state_at_end_of_format_string@?$positional_parameter_base@DV?$string_output_adapter@D@__crt_stdio_output@@@__crt_stdio_output@@IAE_NXZ 10039237 f i libucrt:output.obj
 0001:000382dd       ?validate_and_update_state_at_end_of_format_string@?$positional_parameter_base@_WV?$stream_output_adapter@_W@__crt_stdio_output@@@__crt_stdio_output@@IAE_NXZ 100392dd f i libucrt:output.obj
 0001:00038383       ?validate_and_update_state_at_end_of_format_string@?$positional_parameter_base@_WV?$string_output_adapter@_W@__crt_stdio_output@@@__crt_stdio_output@@IAE_NXZ 10039383 f i libucrt:output.obj
 0001:00038429       ?validate_and_update_state_at_end_of_format_string@?$standard_base@DV?$stream_output_adapter@D@__crt_stdio_output@@@__crt_stdio_output@@IBE_NXZ 10039429 f i libucrt:output.obj
 0001:0003842c       ?validate_and_update_state_at_end_of_format_string@?$standard_base@DV?$string_output_adapter@D@__crt_stdio_output@@@__crt_stdio_output@@IBE_NXZ 1003942c f i libucrt:output.obj
 0001:0003842f       ?validate_and_update_state_at_end_of_format_string@?$standard_base@_WV?$stream_output_adapter@_W@__crt_stdio_output@@@__crt_stdio_output@@IBE_NXZ 1003942f f i libucrt:output.obj
 0001:00038432       ?validate_and_update_state_at_end_of_format_string@?$standard_base@_WV?$string_output_adapter@_W@__crt_stdio_output@@@__crt_stdio_output@@IBE_NXZ 10039432 f i libucrt:output.obj
 0001:00038435       ?validate_state_for_type_case_a@?$positional_parameter_base@DV?$stream_output_adapter@D@__crt_stdio_output@@@__crt_stdio_output@@IAE_NXZ 10039435 f i libucrt:output.obj
 0001:00038497       ?validate_state_for_type_case_a@?$positional_parameter_base@DV?$string_output_adapter@D@__crt_stdio_output@@@__crt_stdio_output@@IAE_NXZ 10039497 f i libucrt:output.obj
 0001:000384f9       ?validate_state_for_type_case_a@?$positional_parameter_base@_WV?$stream_output_adapter@_W@__crt_stdio_output@@@__crt_stdio_output@@IAE_NXZ 100394f9 f i libucrt:output.obj
 0001:0003855b       ?validate_state_for_type_case_a@?$positional_parameter_base@_WV?$string_output_adapter@_W@__crt_stdio_output@@@__crt_stdio_output@@IAE_NXZ 1003955b f i libucrt:output.obj
 0001:000385bd       ?validate_state_for_type_case_a@?$standard_base@DV?$stream_output_adapter@D@__crt_stdio_output@@@__crt_stdio_output@@IBE_NXZ 100395bd f i libucrt:output.obj
 0001:000385c0       ?validate_state_for_type_case_a@?$standard_base@DV?$string_output_adapter@D@__crt_stdio_output@@@__crt_stdio_output@@IBE_NXZ 100395c0 f i libucrt:output.obj
 0001:000385c3       ?validate_state_for_type_case_a@?$standard_base@_WV?$stream_output_adapter@_W@__crt_stdio_output@@@__crt_stdio_output@@IBE_NXZ 100395c3 f i libucrt:output.obj
 0001:000385c6       ?validate_state_for_type_case_a@?$standard_base@_WV?$string_output_adapter@_W@__crt_stdio_output@@@__crt_stdio_output@@IBE_NXZ 100395c6 f i libucrt:output.obj
 0001:000385c9       ?validate_stream_is_ansi_if_required@?$__acrt_stdio_char_traits@D@@SA_NQAU_iobuf@@@Z 100395c9 f i libucrt:output.obj
 0001:00038670       ?validate_stream_is_ansi_if_required@?$__acrt_stdio_char_traits@_W@@SA_NQAU_iobuf@@@Z 10039670 f i libucrt:output.obj
 0001:00038673       ?wide_null_string@?$output_processor@DV?$stream_output_adapter@D@__crt_stdio_output@@V?$format_validation_base@DV?$stream_output_adapter@D@__crt_stdio_output@@@2@@__crt_stdio_output@@CAPA_WXZ 10039673 f i libucrt:output.obj
 0001:00038679       ?wide_null_string@?$output_processor@DV?$stream_output_adapter@D@__crt_stdio_output@@V?$positional_parameter_base@DV?$stream_output_adapter@D@__crt_stdio_output@@@2@@__crt_stdio_output@@CAPA_WXZ 10039679 f i libucrt:output.obj
 0001:0003867f       ?wide_null_string@?$output_processor@DV?$stream_output_adapter@D@__crt_stdio_output@@V?$standard_base@DV?$stream_output_adapter@D@__crt_stdio_output@@@2@@__crt_stdio_output@@CAPA_WXZ 1003967f f i libucrt:output.obj
 0001:00038685       ?wide_null_string@?$output_processor@DV?$string_output_adapter@D@__crt_stdio_output@@V?$format_validation_base@DV?$string_output_adapter@D@__crt_stdio_output@@@2@@__crt_stdio_output@@CAPA_WXZ 10039685 f i libucrt:output.obj
 0001:0003868b       ?wide_null_string@?$output_processor@DV?$string_output_adapter@D@__crt_stdio_output@@V?$positional_parameter_base@DV?$string_output_adapter@D@__crt_stdio_output@@@2@@__crt_stdio_output@@CAPA_WXZ 1003968b f i libucrt:output.obj
 0001:00038691       ?wide_null_string@?$output_processor@DV?$string_output_adapter@D@__crt_stdio_output@@V?$standard_base@DV?$string_output_adapter@D@__crt_stdio_output@@@2@@__crt_stdio_output@@CAPA_WXZ 10039691 f i libucrt:output.obj
 0001:00038697       ?wide_null_string@?$output_processor@_WV?$stream_output_adapter@_W@__crt_stdio_output@@V?$format_validation_base@_WV?$stream_output_adapter@_W@__crt_stdio_output@@@2@@__crt_stdio_output@@CAPA_WXZ 10039697 f i libucrt:output.obj
 0001:0003869d       ?wide_null_string@?$output_processor@_WV?$stream_output_adapter@_W@__crt_stdio_output@@V?$positional_parameter_base@_WV?$stream_output_adapter@_W@__crt_stdio_output@@@2@@__crt_stdio_output@@CAPA_WXZ 1003969d f i libucrt:output.obj
 0001:000386a3       ?wide_null_string@?$output_processor@_WV?$stream_output_adapter@_W@__crt_stdio_output@@V?$standard_base@_WV?$stream_output_adapter@_W@__crt_stdio_output@@@2@@__crt_stdio_output@@CAPA_WXZ 100396a3 f i libucrt:output.obj
 0001:000386a9       ?wide_null_string@?$output_processor@_WV?$string_output_adapter@_W@__crt_stdio_output@@V?$format_validation_base@_WV?$string_output_adapter@_W@__crt_stdio_output@@@2@@__crt_stdio_output@@CAPA_WXZ 100396a9 f i libucrt:output.obj
 0001:000386af       ?wide_null_string@?$output_processor@_WV?$string_output_adapter@_W@__crt_stdio_output@@V?$positional_parameter_base@_WV?$string_output_adapter@_W@__crt_stdio_output@@@2@@__crt_stdio_output@@CAPA_WXZ 100396af f i libucrt:output.obj
 0001:000386b5       ?wide_null_string@?$output_processor@_WV?$string_output_adapter@_W@__crt_stdio_output@@V?$standard_base@_WV?$string_output_adapter@_W@__crt_stdio_output@@@2@@__crt_stdio_output@@CAPA_WXZ 100396b5 f i libucrt:output.obj
 0001:000386bb       ?write_character@?$output_adapter_common@DV?$stream_output_adapter@D@__crt_stdio_output@@@__crt_stdio_output@@QBEXDQAH@Z 100396bb f i libucrt:output.obj
 0001:000386e1       ?write_character@?$output_adapter_common@_WV?$stream_output_adapter@_W@__crt_stdio_output@@@__crt_stdio_output@@QBEX_WQAH@Z 100396e1 f i libucrt:output.obj
 0001:00038707       ?write_character@?$string_output_adapter@D@__crt_stdio_output@@QBE_NDQAH@Z 10039707 f i libucrt:output.obj
 0001:00038759       ?write_character@?$string_output_adapter@_W@__crt_stdio_output@@QBE_N_WQAH@Z 10039759 f i libucrt:output.obj
 0001:000387af       ?write_character_without_count_update@?$stream_output_adapter@D@__crt_stdio_output@@QBE_ND@Z 100397af f i libucrt:output.obj
 0001:000387f1       ?write_character_without_count_update@?$stream_output_adapter@_W@__crt_stdio_output@@QBE_N_W@Z 100397f1 f i libucrt:output.obj
 0001:00038837       ?write_stored_string_tchar@?$output_processor@DV?$stream_output_adapter@D@__crt_stdio_output@@V?$format_validation_base@DV?$stream_output_adapter@D@__crt_stdio_output@@@2@@__crt_stdio_output@@AAE_ND@Z 10039837 f i libucrt:output.obj
 0001:0003890a       ?write_stored_string_tchar@?$output_processor@DV?$stream_output_adapter@D@__crt_stdio_output@@V?$positional_parameter_base@DV?$stream_output_adapter@D@__crt_stdio_output@@@2@@__crt_stdio_output@@AAE_ND@Z 1003990a f i libucrt:output.obj
 0001:000389dd       ?write_stored_string_tchar@?$output_processor@DV?$stream_output_adapter@D@__crt_stdio_output@@V?$standard_base@DV?$stream_output_adapter@D@__crt_stdio_output@@@2@@__crt_stdio_output@@AAE_ND@Z 100399dd f i libucrt:output.obj
 0001:00038ab0       ?write_stored_string_tchar@?$output_processor@DV?$string_output_adapter@D@__crt_stdio_output@@V?$format_validation_base@DV?$string_output_adapter@D@__crt_stdio_output@@@2@@__crt_stdio_output@@AAE_ND@Z 10039ab0 f i libucrt:output.obj
 0001:00038b83       ?write_stored_string_tchar@?$output_processor@DV?$string_output_adapter@D@__crt_stdio_output@@V?$positional_parameter_base@DV?$string_output_adapter@D@__crt_stdio_output@@@2@@__crt_stdio_output@@AAE_ND@Z 10039b83 f i libucrt:output.obj
 0001:00038c56       ?write_stored_string_tchar@?$output_processor@DV?$string_output_adapter@D@__crt_stdio_output@@V?$standard_base@DV?$string_output_adapter@D@__crt_stdio_output@@@2@@__crt_stdio_output@@AAE_ND@Z 10039c56 f i libucrt:output.obj
 0001:00038d29       ?write_stored_string_tchar@?$output_processor@_WV?$stream_output_adapter@_W@__crt_stdio_output@@V?$format_validation_base@_WV?$stream_output_adapter@_W@__crt_stdio_output@@@2@@__crt_stdio_output@@AAE_N_W@Z 10039d29 f i libucrt:output.obj
 0001:00038de3       ?write_stored_string_tchar@?$output_processor@_WV?$stream_output_adapter@_W@__crt_stdio_output@@V?$positional_parameter_base@_WV?$stream_output_adapter@_W@__crt_stdio_output@@@2@@__crt_stdio_output@@AAE_N_W@Z 10039de3 f i libucrt:output.obj
 0001:00038e9d       ?write_stored_string_tchar@?$output_processor@_WV?$stream_output_adapter@_W@__crt_stdio_output@@V?$standard_base@_WV?$stream_output_adapter@_W@__crt_stdio_output@@@2@@__crt_stdio_output@@AAE_N_W@Z 10039e9d f i libucrt:output.obj
 0001:00038f57       ?write_stored_string_tchar@?$output_processor@_WV?$string_output_adapter@_W@__crt_stdio_output@@V?$format_validation_base@_WV?$string_output_adapter@_W@__crt_stdio_output@@@2@@__crt_stdio_output@@AAE_N_W@Z 10039f57 f i libucrt:output.obj
 0001:00039011       ?write_stored_string_tchar@?$output_processor@_WV?$string_output_adapter@_W@__crt_stdio_output@@V?$positional_parameter_base@_WV?$string_output_adapter@_W@__crt_stdio_output@@@2@@__crt_stdio_output@@AAE_N_W@Z 1003a011 f i libucrt:output.obj
 0001:000390cb       ?write_stored_string_tchar@?$output_processor@_WV?$string_output_adapter@_W@__crt_stdio_output@@V?$standard_base@_WV?$string_output_adapter@_W@__crt_stdio_output@@@2@@__crt_stdio_output@@AAE_N_W@Z 1003a0cb f i libucrt:output.obj
 0001:00039185       ?write_string@?$stream_output_adapter@D@__crt_stdio_output@@QBEXQBDHQAHAAV__crt_deferred_errno_cache@@@Z 1003a185 f i libucrt:output.obj
 0001:000391ba       ?write_string@?$stream_output_adapter@_W@__crt_stdio_output@@QBEXQB_WHQAHAAV__crt_deferred_errno_cache@@@Z 1003a1ba f i libucrt:output.obj
 0001:000391ef       ?write_string@?$string_output_adapter@D@__crt_stdio_output@@QBEXQBDHQAHAAV__crt_deferred_errno_cache@@@Z 1003a1ef f i libucrt:output.obj
 0001:0003926f       ?write_string@?$string_output_adapter@_W@__crt_stdio_output@@QBEXQB_WHQAHAAV__crt_deferred_errno_cache@@@Z 1003a26f f i libucrt:output.obj
 0001:000392fe       ?write_string_impl@?$output_adapter_common@DV?$stream_output_adapter@D@__crt_stdio_output@@@__crt_stdio_output@@IBEXQBDHQAHAAV__crt_deferred_errno_cache@@@Z 1003a2fe f i libucrt:output.obj
 0001:000393c6       ?write_string_impl@?$output_adapter_common@_WV?$stream_output_adapter@_W@__crt_stdio_output@@@__crt_stdio_output@@IBEXQB_WHQAHAAV__crt_deferred_errno_cache@@@Z 1003a3c6 f i libucrt:output.obj
 0001:00039491       ___acrt_isleadbyte_l_noupdate 1003a491 f i libucrt:output.obj
 0001:000394b2       ___acrt_locale_changed     1003a4b2 f i libucrt:output.obj
 0001:000394bf       ___stdio_common_vfprintf   1003a4bf f   libucrt:output.obj
 0001:00039565       ___stdio_common_vfprintf_p 1003a565 f   libucrt:output.obj
 0001:0003960b       ___stdio_common_vfprintf_s 1003a60b f   libucrt:output.obj
 0001:000396b1       ___stdio_common_vfwprintf  1003a6b1 f   libucrt:output.obj
 0001:00039757       ___stdio_common_vfwprintf_p 1003a757 f   libucrt:output.obj
 0001:000397fd       ___stdio_common_vfwprintf_s 1003a7fd f   libucrt:output.obj
 0001:000398a3       ___stdio_common_vsnprintf_s 1003a8a3 f   libucrt:output.obj
 0001:000398d3       ___stdio_common_vsnwprintf_s 1003a8d3 f   libucrt:output.obj
 0001:00039903       ___stdio_common_vsprintf   1003a903 f   libucrt:output.obj
 0001:00039930       ___stdio_common_vsprintf_p 1003a930 f   libucrt:output.obj
 0001:0003995d       ___stdio_common_vsprintf_s 1003a95d f   libucrt:output.obj
 0001:0003998a       ___stdio_common_vswprintf  1003a98a f   libucrt:output.obj
 0001:000399b7       ___stdio_common_vswprintf_p 1003a9b7 f   libucrt:output.obj
 0001:000399e4       ___stdio_common_vswprintf_s 1003a9e4 f   libucrt:output.obj
 0001:00039a11       _calloc                    1003aa11 f   libucrt:calloc.obj
 0001:00039a1e       _free                      1003aa1e f   libucrt:free.obj
 0001:00039a42       _realloc                   1003aa42 f   libucrt:realloc.obj
 0001:00039a4f       ??$?B$$A6GXPAXK0@Z@__crt_fast_encoded_nullptr_t@@QBEP6GXPAXK0@ZXZ 1003aa4f f i libucrt:exit.obj
 0001:00039af2       ??$__crt_fast_decode_pointer@P6GXPAXK0@Z@@YAP6GXPAXK0@ZQ6GX0K0@Z@Z 1003aaf2 f i libucrt:exit.obj
 0001:00039b0d       ??$__crt_fast_encode_pointer@P6GXPAXK0@Z@@YAP6GXPAXK0@ZQ6GX0K0@Z@Z 1003ab0d f i libucrt:exit.obj
 0001:00039b33       ??$__crt_get_proc_address@P6GXI@Z@@YAP6GXI@ZQAUHINSTANCE__@@QBD@Z 1003ab33 f i libucrt:exit.obj
 0001:00039b99       ??0?$__crt_unique_handle_t@U__crt_hmodule_traits@@@@QAE@QAUHINSTANCE__@@@Z 1003ab99 f i libucrt:exit.obj
 0001:00039bad       ??1?$__crt_unique_handle_t@U__crt_hmodule_traits@@@@QAE@XZ 1003abad f i libucrt:exit.obj
 0001:00039cf2       ?__acrt_select_exit_lock@@YA?AW4__acrt_lock_id@@XZ 1003acf2 f i libucrt:exit.obj
 0001:00039d0d       ?close@?$__crt_unique_handle_t@U__crt_hmodule_traits@@@@QAEXXZ 1003ad0d f i libucrt:exit.obj
 0001:00039d29       ?close@__crt_hmodule_traits@@SA_NPAUHINSTANCE__@@@Z 1003ad29 f i libucrt:exit.obj
 0001:00039e14       ?get@?$__crt_unique_handle_t@U__crt_hmodule_traits@@@@QBEPAUHINSTANCE__@@XZ 1003ae14 f i libucrt:exit.obj
 0001:00039e17       ?get_address_of@?$__crt_unique_handle_t@U__crt_hmodule_traits@@@@QAEPAPAUHINSTANCE__@@XZ 1003ae17 f i libucrt:exit.obj
 0001:00039e1a       ?get_invalid_value@__crt_hmodule_traits@@SAPAUHINSTANCE__@@XZ 1003ae1a f i libucrt:exit.obj
 0001:00039f1b       __Exit                     1003af1b f   libucrt:exit.obj
 0001:00039f36       ___acrt_initialize_thread_local_exit_callback 1003af36 f   libucrt:exit.obj
 0001:00039f48       __c_exit                   1003af48 f   libucrt:exit.obj
 0001:00039f5a       __cexit                    1003af5a f   libucrt:exit.obj
 0001:00039f6c       __exit                     1003af6c f   libucrt:exit.obj
 0001:00039f87       __is_c_termination_complete 1003af87 f   libucrt:exit.obj
 0001:00039f8d       __register_thread_local_exe_atexit_callback 1003af8d f   libucrt:exit.obj
 0001:00039fd3       _exit                      1003afd3 f   libucrt:exit.obj
 0001:00039fee       _quick_exit                1003afee f   libucrt:exit.obj
 0001:0003a010       _strncat                   1003b010 f   libucrt:strncat.obj
 0001:0003a1a0       _strncpy                   1003b1a0 f   libucrt:strncpy.obj
 0001:0003a30d       ?is_in_use@__crt_stdio_stream@@QBE_NXZ 1003b30d f i libucrt:fclose.obj
 0001:0003a31a       __fclose_nolock            1003b31a f   libucrt:fclose.obj
 0001:0003a3ad       _fclose                    1003b3ad f   libucrt:fclose.obj
 0001:0003a6a3       ??$open_file@ABQBDABQBDABHPAU_iobuf@@@?$__crt_char_traits@D@@SAPAU_iobuf@@ABQBD0ABH$$QAPAU1@@Z 1003b6a3 f i libucrt:fopen.obj
 0001:0003a6ce       ??$open_file@ABQB_WABQB_WABHPAU_iobuf@@@?$__crt_char_traits@_W@@SAPAU_iobuf@@ABQB_W0ABH$$QAPAU1@@Z 1003b6ce f i libucrt:fopen.obj
 0001:0003a6f9       ?unlock@__crt_stdio_stream@@QBEXXZ 1003b6f9 f i libucrt:fopen.obj
 0001:0003a704       __fsopen                   1003b704 f   libucrt:fopen.obj
 0001:0003a711       __wfopen                   1003b711 f   libucrt:fopen.obj
 0001:0003a72d       __wfopen_s                 1003b72d f   libucrt:fopen.obj
 0001:0003a785       __wfsopen                  1003b785 f   libucrt:fopen.obj
 0001:0003a792       _fopen                     1003b792 f   libucrt:fopen.obj
 0001:0003a7ae       _fopen_s                   1003b7ae f   libucrt:fopen.obj
 0001:0003a806       ?__acrt_stdio_reset_buffer@@YAXV__crt_stdio_stream@@@Z 1003b806 f i libucrt:fread.obj
 0001:0003a821       ?has_any_buffer@__crt_stdio_stream@@QBE_NXZ 1003b821 f i libucrt:fread.obj
 0001:0003a832       ?has_any_of@__crt_stdio_stream@@QBE_NJ@Z 1003b832 f i libucrt:fread.obj
 0001:0003a84b       ?set_flags@__crt_stdio_stream@@QBE_NJ@Z 1003b84b f i libucrt:fread.obj
 0001:0003a878       __fread_nolock             1003b878 f   libucrt:fread.obj
 0001:0003a89c       __fread_nolock_s           1003b89c f   libucrt:fread.obj
 0001:0003aaeb       _fread                     1003baeb f   libucrt:fread.obj
 0001:0003ab0f       _fread_s                   1003bb0f f   libucrt:fread.obj
 0001:0003adc0       ?has_big_buffer@__crt_stdio_stream@@QBE_NXZ 1003bdc0 f i libucrt:fwrite.obj
 0001:0003adcd       __fwrite_nolock            1003bdcd f   libucrt:fwrite.obj
 0001:0003afa6       _fwrite                    1003bfa6 f   libucrt:fwrite.obj
 0001:0003b0c9       ??$__acrt_mbs_to_wcs_cp@U__crt_win32_buffer_internal_dynamic_resizing@@@@YAHQBDAAV?$__crt_win32_buffer@_WU__crt_win32_buffer_internal_dynamic_resizing@@@@I@Z 1003c0c9 f i libucrt:unlink.obj
 0001:0003b0ef       ??0?$__crt_win32_buffer@_WU__crt_win32_buffer_internal_dynamic_resizing@@@@QAE@XZ 1003c0ef f i libucrt:unlink.obj
 0001:0003b10a       ??1?$__crt_win32_buffer@_WU__crt_win32_buffer_internal_dynamic_resizing@@@@QAE@XZ 1003c10a f i libucrt:unlink.obj
 0001:0003b138       ?__acrt_get_utf8_acp_compatibility_codepage@@YAIXZ 1003c138 f i libucrt:unlink.obj
 0001:0003b189       ?_deallocate@?$__crt_win32_buffer@_WU__crt_win32_buffer_internal_dynamic_resizing@@@@AAEXXZ 1003c189 f i libucrt:unlink.obj
 0001:0003b1a9       ?allocate@?$__crt_win32_buffer@_WU__crt_win32_buffer_internal_dynamic_resizing@@@@QAEHI@Z 1003c1a9 f i libucrt:unlink.obj
 0001:0003b1f7       ?allocate@__crt_win32_buffer_internal_dynamic_resizing@@SAHQAPAXIABV__crt_win32_buffer_empty_debug_info@@@Z 1003c1f7 f i libucrt:unlink.obj
 0001:0003b21d       ?capacity@?$__crt_win32_buffer@_WU__crt_win32_buffer_internal_dynamic_resizing@@@@QBEIXZ 1003c21d f i libucrt:unlink.obj
 0001:0003b221       ?data@?$__crt_win32_buffer@_WU__crt_win32_buffer_internal_dynamic_resizing@@@@QAEPA_WXZ 1003c221 f i libucrt:unlink.obj
 0001:0003b225       ?deallocate@__crt_win32_buffer_internal_dynamic_resizing@@SAXQAXABV__crt_win32_buffer_empty_debug_info@@@Z 1003c225 f i libucrt:unlink.obj
 0001:0003b239       ?debug_info@?$__crt_win32_buffer@_WU__crt_win32_buffer_internal_dynamic_resizing@@@@QBEABV__crt_win32_buffer_empty_debug_info@@XZ 1003c239 f i libucrt:unlink.obj
 0001:0003b23c       ?size@?$__crt_win32_buffer@_WU__crt_win32_buffer_internal_dynamic_resizing@@@@QAEXI@Z 1003c23c f i libucrt:unlink.obj
 0001:0003b24e       __unlink                   1003c24e f   libucrt:unlink.obj
 0001:0003b25b       _remove                    1003c25b f   libucrt:unlink.obj
 0001:0003b2e2       ?has_all_of@__crt_stdio_stream@@QBE_NJ@Z 1003c2e2 f i libucrt:rewind.obj
 0001:0003b2fe       ?unset_flags@__crt_stdio_stream@@QBE_NJ@Z 1003c2fe f i libucrt:rewind.obj
 0001:0003b331       _rewind                    1003c331 f   libucrt:rewind.obj
 0001:0003b423       _ldexp                     1003c423 f   libucrt:ldexp.obj
 0001:0003b69c       ??$__vcrt_va_start_verify_argument_type@QBD@@YAXXZ 1003c69c f i libucrt:assert.obj
 0001:0003b69d       ??$__vcrt_va_start_verify_argument_type@QB_W@@YAXXZ 1003c69d f i libucrt:assert.obj
 0001:0003c63f       ??$ftprintf@PAU_iobuf@@PBDABQBDABQBDABI@?$__crt_char_traits@D@@SAH$$QAPAU_iobuf@@$$QAPBDABQBD2ABI@Z 1003d63f f i libucrt:assert.obj
 0001:0003c671       ??$ftprintf@PAU_iobuf@@PB_WABQB_WABQB_WABI@?$__crt_char_traits@_W@@SAH$$QAPAU_iobuf@@$$QAPB_WABQB_W2ABI@Z 1003d671 f i libucrt:assert.obj
 0001:0003c6a3       ??$get_module_file_name@AAPAUHINSTANCE__@@AAY0BAF@DK@?$__crt_char_traits@D@@SAKAAPAUHINSTANCE__@@AAY0BAF@D$$QAK@Z 1003d6a3 f i libucrt:assert.obj
 0001:0003c6c6       ??$get_module_file_name@AAPAUHINSTANCE__@@AAY0BAF@_WK@?$__crt_char_traits@_W@@SAKAAPAUHINSTANCE__@@AAY0BAF@_W$$QAK@Z 1003d6c6 f i libucrt:assert.obj
 0001:0003c6e6       ??$itot_s@ABIPADIH@?$__crt_char_traits@D@@SAHABI$$QAPAD$$QAI$$QAH@Z 1003d6e6 f i libucrt:assert.obj
 0001:0003c711       ??$itot_s@ABIPA_WIH@?$__crt_char_traits@_W@@SAHABI$$QAPA_W$$QAI$$QAH@Z 1003d711 f i libucrt:assert.obj
 0001:0003c73c       ??$show_message_box@AAY0CEA@DPBDJ@?$__crt_char_traits@D@@SAHAAY0CEA@D$$QAPBD$$QAJ@Z 1003d73c f i libucrt:assert.obj
 0001:0003c75f       ??$show_message_box@AAY0CEA@_WPB_WJ@?$__crt_char_traits@_W@@SAHAAY0CEA@_W$$QAPB_W$$QAJ@Z 1003d75f f i libucrt:assert.obj
 0001:0003c782       ??$tcscat_s@ABQADABIAAPAD@?$__crt_char_traits@D@@SAHABQADABIAAPAD@Z 1003d782 f i libucrt:assert.obj
 0001:0003c7a7       ??$tcscat_s@ABQADABIABQBD@?$__crt_char_traits@D@@SAHABQADABIABQBD@Z 1003d7a7 f i libucrt:assert.obj
 0001:0003c7cc       ??$tcscat_s@ABQADABIPBD@?$__crt_char_traits@D@@SAHABQADABI$$QAPBD@Z 1003d7cc f i libucrt:assert.obj
 0001:0003c7f1       ??$tcscat_s@ABQA_WABIAAPA_W@?$__crt_char_traits@_W@@SAHABQA_WABIAAPA_W@Z 1003d7f1 f i libucrt:assert.obj
 0001:0003c816       ??$tcscat_s@ABQA_WABIABQB_W@?$__crt_char_traits@_W@@SAHABQA_WABIABQB_W@Z 1003d816 f i libucrt:assert.obj
 0001:0003c83b       ??$tcscat_s@ABQA_WABIPB_W@?$__crt_char_traits@_W@@SAHABQA_WABI$$QAPB_W@Z 1003d83b f i libucrt:assert.obj
 0001:0003c860       ??$tcscpy_s@AAY0BAF@DIPBD@?$__crt_char_traits@D@@SAHAAY0BAF@D$$QAI$$QAPBD@Z 1003d860 f i libucrt:assert.obj
 0001:0003c883       ??$tcscpy_s@AAY0BAF@_WIPB_W@?$__crt_char_traits@_W@@SAHAAY0BAF@_W$$QAI$$QAPB_W@Z 1003d883 f i libucrt:assert.obj
 0001:0003c8a6       ??$tcscpy_s@ABQADABIPBD@?$__crt_char_traits@D@@SAHABQADABI$$QAPBD@Z 1003d8a6 f i libucrt:assert.obj
 0001:0003c8cb       ??$tcscpy_s@ABQA_WABIPB_W@?$__crt_char_traits@_W@@SAHABQA_WABI$$QAPB_W@Z 1003d8cb f i libucrt:assert.obj
 0001:0003c8f0       ??$tcslen@AAY0BAF@D@?$__crt_char_traits@D@@SAIAAY0BAF@D@Z 1003d8f0 f i libucrt:assert.obj
 0001:0003c90b       ??$tcslen@AAY0BAF@_W@?$__crt_char_traits@_W@@SAIAAY0BAF@_W@Z 1003d90b f i libucrt:assert.obj
 0001:0003c92e       ??$tcslen@ABQAD@?$__crt_char_traits@D@@SAIABQAD@Z 1003d92e f i libucrt:assert.obj
 0001:0003c94c       ??$tcslen@ABQA_W@?$__crt_char_traits@_W@@SAIABQA_W@Z 1003d94c f i libucrt:assert.obj
 0001:0003c971       ??$tcslen@ABQBD@?$__crt_char_traits@D@@SAIABQBD@Z 1003d971 f i libucrt:assert.obj
 0001:0003c98f       ??$tcslen@ABQB_W@?$__crt_char_traits@_W@@SAIABQB_W@Z 1003d98f f i libucrt:assert.obj
 0001:0003c9b4       ??$tcsncat_s@ABQADABIAAPBDI@?$__crt_char_traits@D@@SAHABQADABIAAPBD$$QAI@Z 1003d9b4 f i libucrt:assert.obj
 0001:0003c9df       ??$tcsncat_s@ABQADABIABQBDABI@?$__crt_char_traits@D@@SAHABQADABIABQBD1@Z 1003d9df f i libucrt:assert.obj
 0001:0003ca0a       ??$tcsncat_s@ABQADABIPBDI@?$__crt_char_traits@D@@SAHABQADABI$$QAPBD$$QAI@Z 1003da0a f i libucrt:assert.obj
 0001:0003ca35       ??$tcsncat_s@ABQA_WABIAAPB_WI@?$__crt_char_traits@_W@@SAHABQA_WABIAAPB_W$$QAI@Z 1003da35 f i libucrt:assert.obj
 0001:0003ca60       ??$tcsncat_s@ABQA_WABIABQB_WABI@?$__crt_char_traits@_W@@SAHABQA_WABIABQB_W1@Z 1003da60 f i libucrt:assert.obj
 0001:0003ca8b       ??$tcsncat_s@ABQA_WABIPB_WI@?$__crt_char_traits@_W@@SAHABQA_WABI$$QAPB_W$$QAI@Z 1003da8b f i libucrt:assert.obj
 0001:0003cc30       __assert                   1003dc30 f   libucrt:assert.obj
 0001:0003cc8a       __invoke_watson_if_error   1003dc8a f i libucrt:assert.obj
 0001:0003ccb4       __vfwprintf_l              1003dcb4 f i libucrt:assert.obj
 0001:0003cce2       __vswprintf_c_l            1003dce2 f i libucrt:assert.obj
 0001:0003cd1c       __wassert                  1003dd1c f   libucrt:assert.obj
 0001:0003cd76       _fwprintf                  1003dd76 f i libucrt:assert.obj
 0001:0003ce38       _swprintf                  1003de38 f i libucrt:assert.obj
 0001:0003ce5d       __errcode                  1003de5d f   libucrt:fpexcept.obj
 0001:0003ce9e       __except1                  1003de9e f   libucrt:fpexcept.obj
 0001:0003cf9f       __except2                  1003df9f f   libucrt:fpexcept.obj
 0001:0003d0e8       __handle_exc               1003e0e8 f   libucrt:fpexcept.obj
 0001:0003d350       __handle_qnan2             1003e350 f   libucrt:fpexcept.obj
 0001:0003d360       __raise_exc                1003e360 f   libucrt:fpexcept.obj
 0001:0003d38b       __raise_exc_ex             1003e38b f   libucrt:fpexcept.obj
 0001:0003d73e       __raise_excf               1003e73e f   libucrt:fpexcept.obj
 0001:0003d769       __set_errno_from_matherr   1003e769 f   libucrt:fpexcept.obj
 0001:0003d7a3       __umatherr                 1003e7a3 f   libucrt:fpexcept.obj
 0001:0003d86d       __initterm                 1003e86d f   libucrt:initterm.obj
 0001:0003d8e0       __initterm_e               1003e8e0 f   libucrt:initterm.obj
 0001:0003d963       __seh_filter_dll           1003e963 f   libucrt:exception_filter.obj
 0001:0003d98b       __seh_filter_exe           1003e98b f   libucrt:exception_filter.obj
 0001:0003db4a       ??$?RE@__crt_internal_free_policy@@QBEXQBE@Z 1003eb4a f i libucrt:argv_parsing.obj
 0001:0003db60       ??$?RPAD@__crt_internal_free_policy@@QBEXQBQAD@Z 1003eb60 f i libucrt:argv_parsing.obj
 0001:0003db76       ??$?RPA_W@__crt_internal_free_policy@@QBEXQBQA_W@Z 1003eb76 f i libucrt:argv_parsing.obj
 0001:0003de8f       ??$get_module_file_name@$$TAAY0BAF@DH@?$__crt_char_traits@D@@SAK$$QA$$TAAY0BAF@D$$QAH@Z 1003ee8f f i libucrt:argv_parsing.obj
 0001:0003deb2       ??$get_module_file_name@$$TAAY0BAF@_WH@?$__crt_char_traits@_W@@SAK$$QA$$TAAY0BAF@_W$$QAH@Z 1003eeb2 f i libucrt:argv_parsing.obj
 0001:0003e2a5       ??$set_program_name@PAD@?$__crt_char_traits@D@@SAX$$QAPAD@Z 1003f2a5 f i libucrt:argv_parsing.obj
 0001:0003e2ba       ??$set_program_name@PA_W@?$__crt_char_traits@_W@@SAX$$QAPA_W@Z 1003f2ba f i libucrt:argv_parsing.obj
 0001:0003e2f7       ??0?$__crt_unique_heap_ptr@EU__crt_internal_free_policy@@@@QAE@QAE@Z 1003f2f7 f i libucrt:argv_parsing.obj
 0001:0003e30b       ??0?$__crt_unique_heap_ptr@PADU__crt_internal_free_policy@@@@QAE@QAPAD@Z 1003f30b f i libucrt:argv_parsing.obj
 0001:0003e31f       ??0?$__crt_unique_heap_ptr@PA_WU__crt_internal_free_policy@@@@QAE@QAPA_W@Z 1003f31f f i libucrt:argv_parsing.obj
 0001:0003e333       ??1?$__crt_unique_heap_ptr@EU__crt_internal_free_policy@@@@QAE@XZ 1003f333 f i libucrt:argv_parsing.obj
 0001:0003e349       ??1?$__crt_unique_heap_ptr@PADU__crt_internal_free_policy@@@@QAE@XZ 1003f349 f i libucrt:argv_parsing.obj
 0001:0003e35f       ??1?$__crt_unique_heap_ptr@PA_WU__crt_internal_free_policy@@@@QAE@XZ 1003f35f f i libucrt:argv_parsing.obj
 0001:0003e375       ??B?$__crt_unique_heap_ptr@EU__crt_internal_free_policy@@@@QBE_NXZ 1003f375 f i libucrt:argv_parsing.obj
 0001:0003e3b2       ?detach@?$__crt_unique_heap_ptr@EU__crt_internal_free_policy@@@@QAEPAEXZ 1003f3b2 f i libucrt:argv_parsing.obj
 0001:0003e3b8       ?detach@?$__crt_unique_heap_ptr@PADU__crt_internal_free_policy@@@@QAEPAPADXZ 1003f3b8 f i libucrt:argv_parsing.obj
 0001:0003e3be       ?detach@?$__crt_unique_heap_ptr@PA_WU__crt_internal_free_policy@@@@QAEPAPA_WXZ 1003f3be f i libucrt:argv_parsing.obj
 0001:0003e3e4       ?get@?$__crt_unique_heap_ptr@EU__crt_internal_free_policy@@@@QBEPAEXZ 1003f3e4 f i libucrt:argv_parsing.obj
 0001:0003e3e7       ?get@?$__crt_unique_heap_ptr@PADU__crt_internal_free_policy@@@@QBEPAPADXZ 1003f3e7 f i libucrt:argv_parsing.obj
 0001:0003e3ea       ?get@?$__crt_unique_heap_ptr@PA_WU__crt_internal_free_policy@@@@QBEPAPA_WXZ 1003f3ea f i libucrt:argv_parsing.obj
 0001:0003e3ed       ?get_address_of@?$__crt_unique_heap_ptr@PADU__crt_internal_free_policy@@@@QAEPAPAPADXZ 1003f3ed f i libucrt:argv_parsing.obj
 0001:0003e3f0       ?get_address_of@?$__crt_unique_heap_ptr@PA_WU__crt_internal_free_policy@@@@QAEPAPAPA_WXZ 1003f3f0 f i libucrt:argv_parsing.obj
 0001:0003e40b       ?is_valid@?$__crt_unique_heap_ptr@EU__crt_internal_free_policy@@@@QBE_NXZ 1003f40b f i libucrt:argv_parsing.obj
 0001:0003e412       ?release@?$__crt_unique_heap_ptr@EU__crt_internal_free_policy@@@@QAEXXZ 1003f412 f i libucrt:argv_parsing.obj
 0001:0003e428       ?release@?$__crt_unique_heap_ptr@PADU__crt_internal_free_policy@@@@QAEXXZ 1003f428 f i libucrt:argv_parsing.obj
 0001:0003e43e       ?release@?$__crt_unique_heap_ptr@PA_WU__crt_internal_free_policy@@@@QAEXXZ 1003f43e f i libucrt:argv_parsing.obj
 0001:0003e473       ___acrt_allocate_buffer_for_argv 1003f473 f   libucrt:argv_parsing.obj
 0001:0003e4d5       __configure_narrow_argv    1003f4d5 f   libucrt:argv_parsing.obj
 0001:0003e4e2       __configure_wide_argv      1003f4e2 f   libucrt:argv_parsing.obj
 0001:0003e4ef       __set_pgmptr               1003f4ef f i libucrt:argv_parsing.obj
 0001:0003e501       __set_wpgmptr              1003f501 f i libucrt:argv_parsing.obj
 0001:0003e513       ??$?R_W@__crt_internal_free_policy@@QBEXQB_W@Z 1003f513 f i libucrt:environment_initialization.obj
 0001:0003e9f9       ??$get_environment_from_os@$$V@?$__crt_char_traits@D@@SAPADXZ 1003f9f9 f i libucrt:environment_initialization.obj
 0001:0003e9fe       ??$get_environment_from_os@$$V@?$__crt_char_traits@_W@@SAPA_WXZ 1003f9fe f i libucrt:environment_initialization.obj
 0001:0003eb4f       ??$set_variable_in_environment_nolock@PADH@?$__crt_char_traits@D@@SAH$$QAPAD$$QAH@Z 1003fb4f f i libucrt:environment_initialization.obj
 0001:0003eb6d       ??$set_variable_in_environment_nolock@PA_WH@?$__crt_char_traits@_W@@SAH$$QAPA_W$$QAH@Z 1003fb6d f i libucrt:environment_initialization.obj
 0001:0003eb8b       ??$tcscpy_s@PADABIAAPAD@?$__crt_char_traits@D@@SAH$$QAPADABIAAPAD@Z 1003fb8b f i libucrt:environment_initialization.obj
 0001:0003ebb0       ??$tcscpy_s@PA_WABIAAPA_W@?$__crt_char_traits@_W@@SAH$$QAPA_WABIAAPA_W@Z 1003fbb0 f i libucrt:environment_initialization.obj
 0001:0003ebd5       ??$tcslen@AAPAD@?$__crt_char_traits@D@@SAIAAPAD@Z 1003fbd5 f i libucrt:environment_initialization.obj
 0001:0003ebf3       ??$tcslen@AAPA_W@?$__crt_char_traits@_W@@SAIAAPA_W@Z 1003fbf3 f i libucrt:environment_initialization.obj
 0001:0003ec18       ??$uninitialize@A6AXAAPAPAD@Z@?$dual_state_global@PAPAD@__crt_state_management@@QAEXA6AXAAPAPAD@Z@Z 1003fc18 f i libucrt:environment_initialization.obj
 0001:0003ec68       ??$uninitialize@A6AXAAPAPA_W@Z@?$dual_state_global@PAPA_W@__crt_state_management@@QAEXA6AXAAPAPA_W@Z@Z 1003fc68 f i libucrt:environment_initialization.obj
 0001:0003ecfa       ??0?$__crt_unique_heap_ptr@_WU__crt_internal_free_policy@@@@QAE@QA_W@Z 1003fcfa f i libucrt:environment_initialization.obj
 0001:0003ed0e       ??1?$__crt_unique_heap_ptr@_WU__crt_internal_free_policy@@@@QAE@XZ 1003fd0e f i libucrt:environment_initialization.obj
 0001:0003ed24       ??B?$__crt_unique_heap_ptr@PADU__crt_internal_free_policy@@@@QBE_NXZ 1003fd24 f i libucrt:environment_initialization.obj
 0001:0003ed2b       ??B?$__crt_unique_heap_ptr@PA_WU__crt_internal_free_policy@@@@QBE_NXZ 1003fd2b f i libucrt:environment_initialization.obj
 0001:0003ed32       ??B?$__crt_unique_heap_ptr@_WU__crt_internal_free_policy@@@@QBE_NXZ 1003fd32 f i libucrt:environment_initialization.obj
 0001:0003ed39       ?__crt_compute_required_transform_buffer_count@@YAIIQBD@Z 1003fd39 f i libucrt:environment_initialization.obj
 0001:0003ed5c       ?__crt_compute_required_transform_buffer_count@@YAIIQB_W@Z 1003fd5c f i libucrt:environment_initialization.obj
 0001:0003ed81       ?__crt_transform_string@@YAIIQBDQA_WI@Z 1003fd81 f i libucrt:environment_initialization.obj
 0001:0003eda7       ?__crt_transform_string@@YAIIQB_WQADI@Z 1003fda7 f i libucrt:environment_initialization.obj
 0001:0003edd1       ?detach@?$__crt_unique_heap_ptr@DU__crt_internal_free_policy@@@@QAEPADXZ 1003fdd1 f i libucrt:environment_initialization.obj
 0001:0003edd7       ?detach@?$__crt_unique_heap_ptr@_WU__crt_internal_free_policy@@@@QAEPA_WXZ 1003fdd7 f i libucrt:environment_initialization.obj
 0001:0003eddd       ?get@?$__crt_unique_heap_ptr@_WU__crt_internal_free_policy@@@@QBEPA_WXZ 1003fddd f i libucrt:environment_initialization.obj
 0001:0003ede0       ?get_current_state_index@__crt_state_management@@YAIXZ 1003fde0 f i libucrt:environment_initialization.obj
 0001:0003ee07       ?initialize@?$dual_state_global@PAPAD@__crt_state_management@@QAEXQAPAD@Z 1003fe07 f i libucrt:environment_initialization.obj
 0001:0003ee36       ?initialize@?$dual_state_global@PAPA_W@__crt_state_management@@QAEXQAPA_W@Z 1003fe36 f i libucrt:environment_initialization.obj
 0001:0003ee65       ?is_valid@?$__crt_unique_heap_ptr@PADU__crt_internal_free_policy@@@@QBE_NXZ 1003fe65 f i libucrt:environment_initialization.obj
 0001:0003ee6c       ?is_valid@?$__crt_unique_heap_ptr@PA_WU__crt_internal_free_policy@@@@QBE_NXZ 1003fe6c f i libucrt:environment_initialization.obj
 0001:0003ee73       ?is_valid@?$__crt_unique_heap_ptr@_WU__crt_internal_free_policy@@@@QBE_NXZ 1003fe73 f i libucrt:environment_initialization.obj
 0001:0003ee80       ?release@?$__crt_unique_heap_ptr@_WU__crt_internal_free_policy@@@@QAEXXZ 1003fe80 f i libucrt:environment_initialization.obj
 0001:0003ee96       ?value@?$dual_state_global@PAPAD@__crt_state_management@@QAEAAPAPADXZ 1003fe96 f i libucrt:environment_initialization.obj
 0001:0003ee99       ?value@?$dual_state_global@PAPA_W@__crt_state_management@@QAEAAPAPA_WXZ 1003fe99 f i libucrt:environment_initialization.obj
 0001:0003ee9c       ___dcrt_get_or_create_narrow_environment_nolock 1003fe9c f   libucrt:environment_initialization.obj
 0001:0003eea1       ___dcrt_get_or_create_wide_environment_nolock 1003fea1 f   libucrt:environment_initialization.obj
 0001:0003eea6       ___dcrt_uninitialize_environments_nolock 1003fea6 f   libucrt:environment_initialization.obj
 0001:0003eeea       ___p__environ              1003feea f   libucrt:environment_initialization.obj
 0001:0003eef0       ___p__wenviron             1003fef0 f   libucrt:environment_initialization.obj
 0001:0003eef6       __get_initial_narrow_environment 1003fef6 f   libucrt:environment_initialization.obj
 0001:0003ef0f       __get_initial_wide_environment 1003ff0f f   libucrt:environment_initialization.obj
 0001:0003ef28       __initialize_narrow_environment 1003ff28 f   libucrt:environment_initialization.obj
 0001:0003ef2d       __initialize_wide_environment 1003ff2d f   libucrt:environment_initialization.obj
 0001:0003ef32       ??$?BP6AXXZ@__crt_fast_encoded_nullptr_t@@QBEPAP6AXXZXZ 1003ff32 f i libucrt:onexit.obj
 0001:0003ef50       ??$?RP6AXXZ@__crt_internal_free_policy@@QBEXQBQ6AXXZ@Z 1003ff50 f i libucrt:onexit.obj
 0001:0003f094       ??$__crt_fast_encode_pointer@P6AHXZ@@YAP6AHXZQ6AHXZ@Z 10040094 f i libucrt:onexit.obj
 0001:0003f141       ??0?$__crt_unique_heap_ptr@P6AXXZU__crt_internal_free_policy@@@@QAE@QAP6AXXZ@Z 10040141 f i libucrt:onexit.obj
 0001:0003f155       ??1?$__crt_unique_heap_ptr@P6AXXZU__crt_internal_free_policy@@@@QAE@XZ 10040155 f i libucrt:onexit.obj
 0001:0003f16b       ??1scoped_global_state_reset@__crt_state_management@@QAE@XZ 1004016b f i libucrt:onexit.obj
 0001:0003f496       ?detach@?$__crt_unique_heap_ptr@P6AXXZU__crt_internal_free_policy@@@@QAEPAP6AXXZXZ 10040496 f i libucrt:onexit.obj
 0001:0003f49c       ?release@?$__crt_unique_heap_ptr@P6AXXZU__crt_internal_free_policy@@@@QAEXXZ 1004049c f i libucrt:onexit.obj
 0001:0003f4b2       __crt_at_quick_exit        100404b2 f   libucrt:onexit.obj
 0001:0003f4cd       __crt_atexit               100404cd f   libucrt:onexit.obj
 0001:0003f4e8       __execute_onexit_table     100404e8 f   libucrt:onexit.obj
 0001:0003f522       __initialize_onexit_table  10040522 f   libucrt:onexit.obj
 0001:0003f56e       __register_onexit_function 1004056e f   libucrt:onexit.obj
 0001:0003f739       ?__acrt_stdio_is_initialized@@YA_NXZ 10040739 f i libucrt:initialization.obj
 0001:0003f746       ?initialize@?$dual_state_global@PAU__crt_locale_data@@@__crt_state_management@@QAEXQAU__crt_locale_data@@@Z 10040746 f i libucrt:initialization.obj
 0001:0003f775       ___acrt_initialize         10040775 f   libucrt:initialization.obj
 0001:0003f78b       ___acrt_thread_attach      1004078b f   libucrt:initialization.obj
 0001:0003f798       ___acrt_thread_detach      10040798 f   libucrt:initialization.obj
 0001:0003f7a2       ___acrt_uninitialize       100407a2 f   libucrt:initialization.obj
 0001:0003f7de       ___acrt_uninitialize_critical 100407de f   libucrt:initialization.obj
 0001:0003f80f       __get_terminate            1004080f f   libucrt:terminate.obj
 0001:0003f825       _set_terminate             10040825 f   libucrt:terminate.obj
 0001:0003f84d       _terminate                 1004084d f   libucrt:terminate.obj
 0001:0003f908       _strcpy_s                  10040908 f   libucrt:strcpy_s.obj
 0001:0003f978       ??$is_overflow_condition@K@__crt_strtox@@YA_NIK@Z 10040978 f i libucrt:atox.obj
 0001:0003f9b5       ??$is_overflow_condition@_K@__crt_strtox@@YA_NI_K@Z 100409b5 f i libucrt:atox.obj
 0001:0003fa06       ??$make_c_string_character_source@D$$T@__crt_strtox@@YA?AV?$c_string_character_source@D@0@QBD$$T@Z 10040a06 f i libucrt:atox.obj
 0001:0003fa27       ??$make_c_string_character_source@_W$$T@__crt_strtox@@YA?AV?$c_string_character_source@_W@0@QB_W$$T@Z 10040a27 f i libucrt:atox.obj
 0001:0003fa48       ??$parse_integer@KV?$c_string_character_source@D@__crt_strtox@@@__crt_strtox@@YAKQAU__crt_locale_pointers@@V?$c_string_character_source@D@0@H_N@Z 10040a48 f i libucrt:atox.obj
 0001:0003fcfb       ??$parse_integer@KV?$c_string_character_source@_W@__crt_strtox@@@__crt_strtox@@YAKQAU__crt_locale_pointers@@V?$c_string_character_source@_W@0@H_N@Z 10040cfb f i libucrt:atox.obj
 0001:000404cc       ??$parse_integer@_KV?$c_string_character_source@D@__crt_strtox@@@__crt_strtox@@YA_KQAU__crt_locale_pointers@@V?$c_string_character_source@D@0@H_N@Z 100414cc f i libucrt:atox.obj
 0001:0004081c       ??$parse_integer@_KV?$c_string_character_source@_W@__crt_strtox@@@__crt_strtox@@YA_KQAU__crt_locale_pointers@@V?$c_string_character_source@_W@0@H_N@Z 1004181c f i libucrt:atox.obj
 0001:000410e9       ??$parse_integer_from_string@JD$$T@__crt_strtox@@YAJQBD$$THQAU__crt_locale_pointers@@@Z 100420e9 f i libucrt:atox.obj
 0001:00041121       ??$parse_integer_from_string@J_W$$T@__crt_strtox@@YAJQB_W$$THQAU__crt_locale_pointers@@@Z 10042121 f i libucrt:atox.obj
 0001:00041159       ??$parse_integer_from_string@_JD$$T@__crt_strtox@@YA_JQBD$$THQAU__crt_locale_pointers@@@Z 10042159 f i libucrt:atox.obj
 0001:00041191       ??$parse_integer_from_string@_J_W$$T@__crt_strtox@@YA_JQB_W$$THQAU__crt_locale_pointers@@@Z 10042191 f i libucrt:atox.obj
 0001:000411c9       ??0?$c_string_character_source@D@__crt_strtox@@QAE@QBDQAPBD@Z 100421c9 f i libucrt:atox.obj
 0001:000411ec       ??0?$c_string_character_source@_W@__crt_strtox@@QAE@QB_WQAPB_W@Z 100421ec f i libucrt:atox.obj
 0001:0004120f       ??1?$c_string_character_source@D@__crt_strtox@@QAE@XZ 1004220f f i libucrt:atox.obj
 0001:0004121e       ??1?$c_string_character_source@_W@__crt_strtox@@QAE@XZ 1004221e f i libucrt:atox.obj
 0001:0004122d       ?get@?$c_string_character_source@D@__crt_strtox@@QAEDXZ 1004222d f i libucrt:atox.obj
 0001:00041237       ?get@?$c_string_character_source@_W@__crt_strtox@@QAE_WXZ 10042237 f i libucrt:atox.obj
 0001:00041244       ?is_space@__crt_strtox@@YA_NDQAU__crt_locale_pointers@@@Z 10042244 f i libucrt:atox.obj
 0001:00041269       ?is_space@__crt_strtox@@YA_N_WPAU__crt_locale_pointers@@@Z 10042269 f i libucrt:atox.obj
 0001:00041287       ?maximum_signed_value@__crt_strtox@@YAJK@Z 10042287 f i libucrt:atox.obj
 0001:0004128d       ?maximum_signed_value@__crt_strtox@@YA_J_K@Z 1004228d f i libucrt:atox.obj
 0001:00041298       ?minimum_signed_value@__crt_strtox@@YAJK@Z 10042298 f i libucrt:atox.obj
 0001:0004129e       ?minimum_signed_value@__crt_strtox@@YA_J_K@Z 1004229e f i libucrt:atox.obj
 0001:000412a8       ?parse_digit@__crt_strtox@@YAID@Z 100422a8 f i libucrt:atox.obj
 0001:000412f0       ?parse_digit@__crt_strtox@@YAI_W@Z 100422f0 f i libucrt:atox.obj
 0001:00041561       ?restore_state@?$c_string_character_source@D@__crt_strtox@@QAE_NQBD@Z 10042561 f i libucrt:atox.obj
 0001:00041575       ?restore_state@?$c_string_character_source@_W@__crt_strtox@@QAE_NQB_W@Z 10042575 f i libucrt:atox.obj
 0001:00041589       ?save_state@?$c_string_character_source@D@__crt_strtox@@QBEPBDXZ 10042589 f i libucrt:atox.obj
 0001:0004158c       ?save_state@?$c_string_character_source@_W@__crt_strtox@@QBEPB_WXZ 1004258c f i libucrt:atox.obj
 0001:0004158f       ?unget@?$c_string_character_source@D@__crt_strtox@@QAEXD@Z 1004258f f i libucrt:atox.obj
 0001:000415c2       ?unget@?$c_string_character_source@_W@__crt_strtox@@QAEX_W@Z 100425c2 f i libucrt:atox.obj
 0001:000415fb       ?validate@?$c_string_character_source@D@__crt_strtox@@QBE_NXZ 100425fb f i libucrt:atox.obj
 0001:0004161c       ?validate@?$c_string_character_source@_W@__crt_strtox@@QBE_NXZ 1004261c f i libucrt:atox.obj
 0001:0004163d       ?wide_character_to_digit@__crt_strtox@@YAH_W@Z 1004263d f i libucrt:atox.obj
 0001:00041846       ___acrt_get_locale_data_prefix 10042846 f i libucrt:atox.obj
 0001:00041855       __atoi64                   10042855 f   libucrt:atox.obj
 0001:00041883       __atoi64_l                 10042883 f   libucrt:atox.obj
 0001:000418b2       __atoi_l                   100428b2 f   libucrt:atox.obj
 0001:000418e1       __atol_l                   100428e1 f   libucrt:atox.obj
 0001:00041910       __atoll_l                  10042910 f   libucrt:atox.obj
 0001:0004193f       __chvalidchk_l             1004293f f i libucrt:atox.obj
 0001:0004196e       __ischartype_l             1004296e f i libucrt:atox.obj
 0001:000419ad       __wtoi                     100429ad f   libucrt:atox.obj
 0001:000419db       __wtoi64                   100429db f   libucrt:atox.obj
 0001:00041a09       __wtoi64_l                 10042a09 f   libucrt:atox.obj
 0001:00041a38       __wtoi_l                   10042a38 f   libucrt:atox.obj
 0001:00041a67       __wtol                     10042a67 f   libucrt:atox.obj
 0001:00041a95       __wtol_l                   10042a95 f   libucrt:atox.obj
 0001:00041ac4       __wtoll                    10042ac4 f   libucrt:atox.obj
 0001:00041af2       __wtoll_l                  10042af2 f   libucrt:atox.obj
 0001:00041b21       _atoi                      10042b21 f   libucrt:atox.obj
 0001:00041b4f       _atol                      10042b4f f   libucrt:atox.obj
 0001:00041b7d       _atoll                     10042b7d f   libucrt:atox.obj
 0001:00041bb0       _strncmp                   10042bb0 f   libucrt:strncmp.obj
 0001:00041c46       __set_abort_behavior       10042c46 f   libucrt:abort.obj
 0001:00041c6f       _abort                     10042c6f f   libucrt:abort.obj
 0001:00041cc4       _wcsncmp                   10042cc4 f   libucrt:wcsncmp.obj
 0001:00041d0c       __malloc_base              10042d0c f   libucrt:malloc_base.obj
 0001:00041d6d       ??$__crt_fast_decode_pointer@P6AXPB_W00II@Z@@YAP6AXPB_W00II@ZQ6AX000II@Z@Z 10042d6d f i libucrt:invalid_parameter.obj
 0001:00041d88       ??$__crt_fast_encode_pointer@P6AXPB_W00II@Z@@YAP6AXPB_W00II@ZQ6AX000II@Z@Z 10042d88 f i libucrt:invalid_parameter.obj
 0001:00041dae       ??$initialize_from_array@$$BY00Q6AXPB_W00II@Z@?$dual_state_global@P6AXPB_W00II@Z@__crt_state_management@@QAAXAAY00Q6AXPB_W00II@Z@Z 10042dae f i libucrt:invalid_parameter.obj
 0001:00041dc3       ?dangerous_get_state_array@?$dual_state_global@P6AXPB_W00II@Z@__crt_state_management@@QAEPAP6AXPB_W00II@ZXZ 10042dc3 f i libucrt:invalid_parameter.obj
 0001:00041dc6       ?value@?$dual_state_global@P6AXPB_W00II@Z@__crt_state_management@@QAEAAP6AXPB_W00II@ZXZ 10042dc6 f i libucrt:invalid_parameter.obj
 0001:00041dc9       ___acrt_call_reportfault   10042dc9 f   libucrt:invalid_parameter.obj
 0001:00041f52       ___acrt_initialize_invalid_parameter_handler 10042f52 f   libucrt:invalid_parameter.obj
 0001:00041f64       __get_invalid_parameter_handler 10042f64 f   libucrt:invalid_parameter.obj
 0001:00041f7b       __get_thread_local_invalid_parameter_handler 10042f7b f   libucrt:invalid_parameter.obj
 0001:00041f90       __invalid_parameter        10042f90 f   libucrt:invalid_parameter.obj
 0001:00042029       __invalid_parameter_noinfo 10043029 f   libucrt:invalid_parameter.obj
 0001:0004203d       __invalid_parameter_noinfo_noreturn 1004303d f   libucrt:invalid_parameter.obj
 0001:00042061       __invoke_watson            10043061 f   libucrt:invalid_parameter.obj
 0001:000420a2       __set_invalid_parameter_handler 100430a2 f   libucrt:invalid_parameter.obj
 0001:000420de       __set_thread_local_invalid_parameter_handler 100430de f   libucrt:invalid_parameter.obj
 0001:00042102       ___acrt_errno_from_os_error 10043102 f   libucrt:errno.obj
 0001:00042155       ___acrt_errno_map_os_error 10043155 f   libucrt:errno.obj
 0001:00042180       ___doserrno                10043180 f   libucrt:errno.obj
 0001:00042197       __errno                    10043197 f   libucrt:errno.obj
 0001:000421ae       __get_doserrno             100431ae f   libucrt:errno.obj
 0001:000421dc       __get_errno                100431dc f   libucrt:errno.obj
 0001:0004220a       __set_doserrno             1004320a f   libucrt:errno.obj
 0001:00042233       __set_errno                10043233 f   libucrt:errno.obj
 0001:0004225c       __calloc_base              1004325c f   libucrt:calloc_base.obj
 0001:000422d6       __free_base                100432d6 f   libucrt:free_base.obj
 0001:0004232e       ??$?B$$A6GHPA_WKJ@Z@__crt_fast_encoded_nullptr_t@@QBEP6GHPA_WKJ@ZXZ 1004332e f i libucrt:winapi_thunks.obj
 0001:00042428       ??$__crt_fast_decode_pointer@P6GHPA_WKJ@Z@@YAP6GHPA_WKJ@ZQ6GH0KJ@Z@Z 10043428 f i libucrt:winapi_thunks.obj
 0001:00042443       ??$__crt_fast_encode_pointer@P6GHPA_WKJ@Z@@YAP6GHPA_WKJ@ZQ6GH0KJ@Z@Z 10043443 f i libucrt:winapi_thunks.obj
 0001:00042ca2       _GetCurrentThreadEffectiveToken 10043ca2 f i libucrt:winapi_thunks.obj
 0001:00042ca6       ___acrt_AppPolicyGetProcessTerminationMethodInternal@4 10043ca6 f   libucrt:winapi_thunks.obj
 0001:00042d12       ___acrt_AppPolicyGetShowDeveloperDiagnosticInternal@4 10043d12 f   libucrt:winapi_thunks.obj
 0001:00042d7e       ___acrt_AppPolicyGetThreadInitializationTypeInternal@4 10043d7e f   libucrt:winapi_thunks.obj
 0001:00042dea       ___acrt_AppPolicyGetWindowingModelInternal@4 10043dea f   libucrt:winapi_thunks.obj
 0001:00042e56       ___acrt_AreFileApisANSI@0  10043e56 f   libucrt:winapi_thunks.obj
 0001:00042e9e       ___acrt_CompareStringEx@36 10043e9e f   libucrt:winapi_thunks.obj
 0001:00042f2f       ___acrt_EnumSystemLocalesEx@16 10043f2f f   libucrt:winapi_thunks.obj
 0001:00042fb3       ___acrt_FlsAlloc@4         10043fb3 f   libucrt:winapi_thunks.obj
 0001:0004301e       ___acrt_FlsFree@4          1004401e f   libucrt:winapi_thunks.obj
 0001:00043089       ___acrt_FlsGetValue@4      10044089 f   libucrt:winapi_thunks.obj
 0001:000430f4       ___acrt_FlsSetValue@8      100440f4 f   libucrt:winapi_thunks.obj
 0001:00043163       ___acrt_GetDateFormatEx@28 10044163 f   libucrt:winapi_thunks.obj
 0001:000431ec       ___acrt_GetEnabledXStateFeatures@0 100441ec f   libucrt:winapi_thunks.obj
 0001:0004324e       ___acrt_GetLocaleInfoEx@16 1004424e f   libucrt:winapi_thunks.obj
 0001:000432b9       ___acrt_GetSystemTimePreciseAsFileTime@4 100442b9 f   libucrt:winapi_thunks.obj
 0001:00043324       ___acrt_GetTimeFormatEx@24 10044324 f   libucrt:winapi_thunks.obj
 0001:00043397       ___acrt_GetUserDefaultLocaleName@8 10044397 f   libucrt:winapi_thunks.obj
 0001:000433fe       ___acrt_GetXStateFeaturesMask@8 100443fe f   libucrt:winapi_thunks.obj
 0001:0004346a       ___acrt_InitializeCriticalSectionEx@12 1004446a f   libucrt:winapi_thunks.obj
 0001:000434e4       ___acrt_IsValidLocaleName@4 100444e4 f   libucrt:winapi_thunks.obj
 0001:00043546       ___acrt_LCIDToLocaleName@16 10044546 f   libucrt:winapi_thunks.obj
 0001:000435b1       ___acrt_LCMapStringEx@36   100445b1 f   libucrt:winapi_thunks.obj
 0001:00043642       ___acrt_LocaleNameToLCID@8 10044642 f   libucrt:winapi_thunks.obj
 0001:0004369c       ___acrt_LocateXStateFeature@12 1004469c f   libucrt:winapi_thunks.obj
 0001:000436f3       ___acrt_MessageBoxA@16     100446f3 f   libucrt:winapi_thunks.obj
 0001:0004374e       ___acrt_MessageBoxW@16     1004474e f   libucrt:winapi_thunks.obj
 0001:000437a9       ___acrt_RoInitialize@4     100447a9 f   libucrt:winapi_thunks.obj
 0001:0004380f       ___acrt_RoUninitialize@0   1004480f f   libucrt:winapi_thunks.obj
 0001:0004386a       ___acrt_RtlGenRandom@8     1004486a f   libucrt:winapi_thunks.obj
 0001:000438d6       ___acrt_SetThreadStackGuarantee@4 100448d6 f   libucrt:winapi_thunks.obj
 0001:0004393c       ___acrt_can_show_message_box 1004493c f   libucrt:winapi_thunks.obj
 0001:0004396c       ___acrt_can_use_vista_locale_apis 1004496c f   libucrt:winapi_thunks.obj
 0001:00043979       ___acrt_can_use_xstate_apis 10044979 f   libucrt:winapi_thunks.obj
 0001:00043986       ___acrt_eagerly_load_locale_apis 10044986 f   libucrt:winapi_thunks.obj
 0001:000439ca       ___acrt_get_parent_window  100449ca f   libucrt:winapi_thunks.obj
 0001:00043a68       ___acrt_initialize_winapi_thunks 10044a68 f   libucrt:winapi_thunks.obj
 0001:00043ab3       ___acrt_is_interactive     10044ab3 f   libucrt:winapi_thunks.obj
 0001:00043b82       ___acrt_uninitialize_winapi_thunks 10044b82 f   libucrt:winapi_thunks.obj
 0001:00043bc5       ??0__crt_stdio_stream@@QAE@QAU__crt_stdio_stream_data@@@Z 10044bc5 f i libucrt:closeall.obj
 0001:00043bd9       __fcloseall                10044bd9 f   libucrt:closeall.obj
 0001:00044247       ___acrt_stdio_flush_nolock 10045247 f   libucrt:fflush.obj
 0001:000442c2       __fflush_nolock            100452c2 f   libucrt:fflush.obj
 0001:0004431a       __flushall                 1004531a f   libucrt:fflush.obj
 0001:00044325       _fflush                    10045325 f   libucrt:fflush.obj
 0001:0004438e       ?has_crt_buffer@__crt_stdio_stream@@QBE_NXZ 1004538e f i libucrt:_freebuf.obj
 0001:0004439b       ___acrt_stdio_free_buffer_nolock 1004539b f   libucrt:_freebuf.obj
 0001:000445d9       ___acrt_initialize_lowio   100455d9 f   libucrt:ioinit.obj
 0001:00044644       ___acrt_uninitialize_lowio 10045644 f   libucrt:ioinit.obj
 0001:00044697       ___isascii                 10045697 f i libucrt:_ctype.obj
 0001:000446ad       ___iscsym                  100456ad f i libucrt:_ctype.obj
 0001:000446d7       ___iscsymf                 100456d7 f i libucrt:_ctype.obj
 0001:000446fd       ___toascii                 100456fd f i libucrt:_ctype.obj
 0001:0004470d       __isalnum_l                1004570d f i libucrt:_ctype.obj
 0001:00044756       __isalpha_l                10045756 f i libucrt:_ctype.obj
 0001:0004479f       __isblank_l                1004579f f i libucrt:_ctype.obj
 0001:000447f2       __iscntrl_l                100457f2 f i libucrt:_ctype.obj
 0001:00044838       __iscsym_l                 10045838 f i libucrt:_ctype.obj
 0001:00044863       __iscsymf_l                10045863 f i libucrt:_ctype.obj
 0001:0004488e       __isdigit_l                1004588e f i libucrt:_ctype.obj
 0001:000448d4       __isgraph_l                100458d4 f i libucrt:_ctype.obj
 0001:0004491d       __islower_l                1004591d f i libucrt:_ctype.obj
 0001:00044963       __isprint_l                10045963 f i libucrt:_ctype.obj
 0001:000449ac       __ispunct_l                100459ac f i libucrt:_ctype.obj
 0001:000449f2       __isspace_l                100459f2 f i libucrt:_ctype.obj
 0001:00044a38       __isupper_l                10045a38 f i libucrt:_ctype.obj
 0001:00044a7e       __isxdigit_l               10045a7e f i libucrt:_ctype.obj
 0001:00044ac7       _isalnum                   10045ac7 f i libucrt:_ctype.obj
 0001:00044b03       _isalpha                   10045b03 f i libucrt:_ctype.obj
 0001:00044b3f       _isblank                   10045b3f f i libucrt:_ctype.obj
 0001:00044b87       _iscntrl                   10045b87 f i libucrt:_ctype.obj
 0001:00044bc0       _isdigit                   10045bc0 f i libucrt:_ctype.obj
 0001:00044bf9       _isgraph                   10045bf9 f i libucrt:_ctype.obj
 0001:00044c35       _islower                   10045c35 f i libucrt:_ctype.obj
 0001:00044c6e       _isprint                   10045c6e f i libucrt:_ctype.obj
 0001:00044caa       _ispunct                   10045caa f i libucrt:_ctype.obj
 0001:00044ce3       _isspace                   10045ce3 f i libucrt:_ctype.obj
 0001:00044d1c       _isupper                   10045d1c f i libucrt:_ctype.obj
 0001:00044d55       _isxdigit                  10045d55 f i libucrt:_ctype.obj
 0001:0004514d       __tolower                  1004614d f   libucrt:tolower_toupper.obj
 0001:0004515d       __tolower_l                1004615d f   libucrt:tolower_toupper.obj
 0001:0004517d       __toupper                  1004617d f   libucrt:tolower_toupper.obj
 0001:0004518d       __toupper_l                1004618d f   libucrt:tolower_toupper.obj
 0001:000451ad       _tolower                   100461ad f   libucrt:tolower_toupper.obj
 0001:000451e9       _toupper                   100461e9 f   libucrt:tolower_toupper.obj
 0001:00045225       ??$make_c_string_character_source@DPAPAD@__crt_strtox@@YA?AV?$c_string_character_source@D@0@QBDQAPAD@Z 10046225 f i libucrt:strtox.obj
 0001:00045246       ??$make_c_string_character_source@_WPAPA_W@__crt_strtox@@YA?AV?$c_string_character_source@_W@0@QB_WQAPA_W@Z 10046246 f i libucrt:strtox.obj
 0001:00045267       ??$parse_integer_from_string@JDPAPAD@__crt_strtox@@YAJQBDQAPADHQAU__crt_locale_pointers@@@Z 10046267 f i libucrt:strtox.obj
 0001:0004529f       ??$parse_integer_from_string@J_WPAPA_W@__crt_strtox@@YAJQB_WQAPA_WHQAU__crt_locale_pointers@@@Z 1004629f f i libucrt:strtox.obj
 0001:000452d7       ??$parse_integer_from_string@KDPAPAD@__crt_strtox@@YAKQBDQAPADHQAU__crt_locale_pointers@@@Z 100462d7 f i libucrt:strtox.obj
 0001:0004530f       ??$parse_integer_from_string@K_WPAPA_W@__crt_strtox@@YAKQB_WQAPA_WHQAU__crt_locale_pointers@@@Z 1004630f f i libucrt:strtox.obj
 0001:00045347       ??$parse_integer_from_string@_JDPAPAD@__crt_strtox@@YA_JQBDQAPADHQAU__crt_locale_pointers@@@Z 10046347 f i libucrt:strtox.obj
 0001:0004537f       ??$parse_integer_from_string@_J_WPAPA_W@__crt_strtox@@YA_JQB_WQAPA_WHQAU__crt_locale_pointers@@@Z 1004637f f i libucrt:strtox.obj
 0001:000453b7       ??$parse_integer_from_string@_KDPAPAD@__crt_strtox@@YA_KQBDQAPADHQAU__crt_locale_pointers@@@Z 100463b7 f i libucrt:strtox.obj
 0001:000453ef       ??$parse_integer_from_string@_K_WPAPA_W@__crt_strtox@@YA_KQB_WQAPA_WHQAU__crt_locale_pointers@@@Z 100463ef f i libucrt:strtox.obj
 0001:00045427       __strtoi64                 10046427 f   libucrt:strtox.obj
 0001:0004545e       __strtoi64_l               1004645e f   libucrt:strtox.obj
 0001:00045496       __strtoimax_l              10046496 f   libucrt:strtox.obj
 0001:000454ce       __strtol_l                 100464ce f   libucrt:strtox.obj
 0001:00045506       __strtoll_l                10046506 f   libucrt:strtox.obj
 0001:0004553e       __strtoui64                1004653e f   libucrt:strtox.obj
 0001:00045575       __strtoui64_l              10046575 f   libucrt:strtox.obj
 0001:000455ad       __strtoul_l                100465ad f   libucrt:strtox.obj
 0001:000455e5       __strtoull_l               100465e5 f   libucrt:strtox.obj
 0001:0004561d       __strtoumax_l              1004661d f   libucrt:strtox.obj
 0001:00045655       __wcstoi64                 10046655 f   libucrt:strtox.obj
 0001:0004568c       __wcstoi64_l               1004668c f   libucrt:strtox.obj
 0001:000456c4       __wcstoimax_l              100466c4 f   libucrt:strtox.obj
 0001:000456fc       __wcstol_l                 100466fc f   libucrt:strtox.obj
 0001:00045734       __wcstoll_l                10046734 f   libucrt:strtox.obj
 0001:0004576c       __wcstoui64                1004676c f   libucrt:strtox.obj
 0001:000457a3       __wcstoui64_l              100467a3 f   libucrt:strtox.obj
 0001:000457db       __wcstoul_l                100467db f   libucrt:strtox.obj
 0001:00045813       __wcstoull_l               10046813 f   libucrt:strtox.obj
 0001:0004584b       __wcstoumax_l              1004684b f   libucrt:strtox.obj
 0001:00045883       _strtoimax                 10046883 f   libucrt:strtox.obj
 0001:000458ba       _strtol                    100468ba f   libucrt:strtox.obj
 0001:000458f1       _strtoll                   100468f1 f   libucrt:strtox.obj
 0001:00045928       _strtoul                   10046928 f   libucrt:strtox.obj
 0001:0004595f       _strtoull                  1004695f f   libucrt:strtox.obj
 0001:00045996       _strtoumax                 10046996 f   libucrt:strtox.obj
 0001:000459cd       _wcstoimax                 100469cd f   libucrt:strtox.obj
 0001:00045a04       _wcstol                    10046a04 f   libucrt:strtox.obj
 0001:00045a3b       _wcstoll                   10046a3b f   libucrt:strtox.obj
 0001:00045a72       _wcstoul                   10046a72 f   libucrt:strtox.obj
 0001:00045aa9       _wcstoull                  10046aa9 f   libucrt:strtox.obj
 0001:00045ae0       _wcstoumax                 10046ae0 f   libucrt:strtox.obj
 0001:00045b17       __mbtowc_l                 10046b17 f   libucrt:mbtowc.obj
 0001:00045cac       _mbtowc                    10046cac f   libucrt:mbtowc.obj
 0001:00045ccc       __wctomb_l                 10046ccc f   libucrt:wctomb.obj
 0001:00045d33       __wctomb_s_l               10046d33 f   libucrt:wctomb.obj
 0001:00045e9e       _wctomb                    10046e9e f   libucrt:wctomb.obj
 0001:00045edf       _wctomb_s                  10046edf f   libucrt:wctomb.obj
 0001:000468fc       ??1?$__crt_simd_cleanup_guard@$00@@QAE@XZ 100478fc f i libucrt:strnlen.obj
 0001:00046900       ??1?$__crt_simd_cleanup_guard@$0A@@@QAE@XZ 10047900 f i libucrt:strnlen.obj
 0001:00046901       ?compare_equals@?$__crt_simd_traits@$00E@@SA?AT__m256i@@T2@0@Z 10047901 f i libucrt:strnlen.obj
 0001:00046906       ?compare_equals@?$__crt_simd_traits@$00G@@SA?AT__m256i@@T2@0@Z 10047906 f i libucrt:strnlen.obj
 0001:0004690b       ?compare_equals@?$__crt_simd_traits@$0A@E@@SA?AT__m128i@@T2@0@Z 1004790b f i libucrt:strnlen.obj
 0001:00046910       ?compare_equals@?$__crt_simd_traits@$0A@G@@SA?AT__m128i@@T2@0@Z 10047910 f i libucrt:strnlen.obj
 0001:00046915       ?compute_byte_mask@?$__crt_simd_pack_traits@$00@@SAHT__m256i@@@Z 10047915 f i libucrt:strnlen.obj
 0001:0004691a       ?compute_byte_mask@?$__crt_simd_pack_traits@$0A@@@SAHT__m128i@@@Z 1004791a f i libucrt:strnlen.obj
 0001:0004691f       ?get_zero_pack@?$__crt_simd_pack_traits@$00@@SA?AT__m256i@@XZ 1004791f f i libucrt:strnlen.obj
 0001:00046924       ?get_zero_pack@?$__crt_simd_pack_traits@$0A@@@SA?AT__m128i@@XZ 10047924 f i libucrt:strnlen.obj
 0001:00046928       _strnlen                   10047928 f   libucrt:strnlen.obj
 0001:00046a92       _wcslen                    10047a92 f   libucrt:strnlen.obj
 0001:00046c04       _wcsnlen                   10047c04 f   libucrt:strnlen.obj
 0001:00046e20       ??$?RU__acrt_ptd@@@__crt_internal_free_policy@@QBEXQBU__acrt_ptd@@@Z 10047e20 f i libucrt:per_thread_data.obj
 0001:00047199       ??0?$__crt_unique_heap_ptr@U__acrt_ptd@@U__crt_internal_free_policy@@@@QAE@QAU__acrt_ptd@@@Z 10048199 f i libucrt:per_thread_data.obj
 0001:000471ad       ??0__crt_scoped_get_last_error_reset@@QAE@XZ 100481ad f i libucrt:per_thread_data.obj
 0001:000471c2       ??1?$__crt_unique_heap_ptr@U__acrt_ptd@@U__crt_internal_free_policy@@@@QAE@XZ 100481c2 f i libucrt:per_thread_data.obj
 0001:000471d8       ??1__crt_scoped_get_last_error_reset@@QAE@XZ 100481d8 f i libucrt:per_thread_data.obj
 0001:000471e3       ??B?$__crt_unique_heap_ptr@U__acrt_ptd@@U__crt_internal_free_policy@@@@QBE_NXZ 100481e3 f i libucrt:per_thread_data.obj
 0001:00047380       ?dangerous_get_state_array@?$dual_state_global@PAU__crt_locale_data@@@__crt_state_management@@QAEPAPAU__crt_locale_data@@XZ 10048380 f i libucrt:per_thread_data.obj
 0001:000474b3       ?detach@?$__crt_unique_heap_ptr@U__acrt_ptd@@U__crt_internal_free_policy@@@@QAEPAU__acrt_ptd@@XZ 100484b3 f i libucrt:per_thread_data.obj
 0001:000474b9       ?get@?$__crt_unique_heap_ptr@U__acrt_ptd@@U__crt_internal_free_policy@@@@QBEPAU__acrt_ptd@@XZ 100484b9 f i libucrt:per_thread_data.obj
 0001:000474bc       ?get_current_state_index@__crt_state_management@@YAIABV__crt_scoped_get_last_error_reset@@@Z 100484bc f i libucrt:per_thread_data.obj
 0001:00047642       ?is_valid@?$__crt_unique_heap_ptr@U__acrt_ptd@@U__crt_internal_free_policy@@@@QBE_NXZ 10048642 f i libucrt:per_thread_data.obj
 0001:00047649       ?release@?$__crt_unique_heap_ptr@U__acrt_ptd@@U__crt_internal_free_policy@@@@QAEXXZ 10048649 f i libucrt:per_thread_data.obj
 0001:000476d5       ?value@?$dual_state_global@PAU__crt_locale_data@@@__crt_state_management@@QAEAAPAU__crt_locale_data@@XZ 100486d5 f i libucrt:per_thread_data.obj
 0001:000476d8       ___acrt_freeptd            100486d8 f   libucrt:per_thread_data.obj
 0001:0004770f       ___acrt_getptd             1004870f f   libucrt:per_thread_data.obj
 0001:000477f3       ___acrt_getptd_head        100487f3 f   libucrt:per_thread_data.obj
 0001:000478b3       ___acrt_getptd_noexit      100488b3 f   libucrt:per_thread_data.obj
 0001:0004798b       ___acrt_initialize_ptd     1004898b f   libucrt:per_thread_data.obj
 0001:000479c2       ___acrt_uninitialize_ptd   100489c2 f   libucrt:per_thread_data.obj
 0001:000479e2       ___threadhandle            100489e2 f   libucrt:per_thread_data.obj
 0001:000479e8       ___threadid                100489e8 f   libucrt:per_thread_data.obj
 0001:000479ee       ?value@?$dual_state_global@PAU__crt_multibyte_data@@@__crt_state_management@@QAEAAPAU__crt_multibyte_data@@XZ 100489ee f i libucrt:locale_update.obj
 0001:000479f1       ___acrt_update_locale_info 100489f1 f   libucrt:locale_update.obj
 0001:00047a29       ___acrt_update_multibyte_info 10048a29 f   libucrt:locale_update.obj
 0001:00047a61       ?__acrt_fp_classify@@YA?AW4__acrt_fp_class@@ABN@Z 10048a61 f i libucrt:cvt.obj
 0001:00047adb       ?__acrt_fp_is_negative@@YA_NABN@Z 10048adb f i libucrt:cvt.obj
 0001:00048560       ?strrchr@@YAPADQADH@Z      10049560 f i libucrt:cvt.obj
 0001:0004856d       ___acrt_fp_format          1004956d f   libucrt:cvt.obj
 0001:00048735       __fputwc_nolock            10049735 f   libucrt:fputwc.obj
 0001:000488a9       __fputwchar                100498a9 f   libucrt:fputwc.obj
 0001:000488c9       __putwc_nolock             100498c9 f   libucrt:fputwc.obj
 0001:000488d6       _fputwc                    100498d6 f   libucrt:fputwc.obj
 0001:00048967       _putwc                     10049967 f   libucrt:fputwc.obj
 0001:00048974       _putwchar                  10049974 f   libucrt:fputwc.obj
 0001:00048981       ?lowio_handle@__crt_stdio_stream@@QBEHXZ 10049981 f i libucrt:fileno.obj
 0001:00048987       __fileno                   10049987 f   libucrt:fileno.obj
 0001:000489b6       __fputc_nolock             100499b6 f   libucrt:fputc.obj
 0001:000489e9       __fputchar                 100499e9 f   libucrt:fputc.obj
 0001:00048a09       __putc_nolock              10049a09 f   libucrt:fputc.obj
 0001:00048a16       _fputc                     10049a16 f   libucrt:fputc.obj
 0001:00048b54       _putc                      10049b54 f   libucrt:fputc.obj
 0001:00048b61       _putchar                   10049b61 f   libucrt:fputc.obj
 0001:00048b6e       __get_printf_count_output  10049b6e f   libucrt:printf_count_output.obj
 0001:00048b88       __set_printf_count_output  10049b88 f   libucrt:printf_count_output.obj
 0001:00048bbc       ?has_temporary_buffer@__crt_stdio_stream@@QBE_NXZ 10049bbc f i libucrt:_sftbuf.obj
 0001:00048bc9       ___acrt_stdio_begin_temporary_buffering_nolock 10049bc9 f   libucrt:_sftbuf.obj
 0001:00048cab       ___acrt_stdio_end_temporary_buffering_nolock 10049cab f   libucrt:_sftbuf.obj
 0001:00048cf5       ??$?RU__crt_locale_data@@@__crt_internal_free_policy@@QBEXQBU__crt_locale_data@@@Z 10049cf5 f i libucrt:wsetlocale.obj
 0001:00048d0b       ??$?RU__crt_locale_pointers@@@__crt_internal_free_policy@@QBEXQBU__crt_locale_pointers@@@Z 10049d0b f i libucrt:wsetlocale.obj
 0001:00048d21       ??$?RU__crt_multibyte_data@@@__crt_internal_free_policy@@QBEXQBU__crt_multibyte_data@@@Z 10049d21 f i libucrt:wsetlocale.obj
 0001:00048ff1       ??$__vcrt_va_start_verify_argument_type@H@@YAXXZ 10049ff1 f i libucrt:wsetlocale.obj
 0001:0004917c       ??0?$__crt_unique_heap_ptr@U__crt_locale_data@@U__crt_internal_free_policy@@@@QAE@QAU__crt_locale_data@@@Z 1004a17c f i libucrt:wsetlocale.obj
 0001:00049190       ??0?$__crt_unique_heap_ptr@U__crt_locale_pointers@@U__crt_internal_free_policy@@@@QAE@QAU__crt_locale_pointers@@@Z 1004a190 f i libucrt:wsetlocale.obj
 0001:000491a4       ??0?$__crt_unique_heap_ptr@U__crt_multibyte_data@@U__crt_internal_free_policy@@@@QAE@QAU__crt_multibyte_data@@@Z 1004a1a4 f i libucrt:wsetlocale.obj
 0001:000491b8       ??1?$__crt_unique_heap_ptr@U__crt_locale_data@@U__crt_internal_free_policy@@@@QAE@XZ 1004a1b8 f i libucrt:wsetlocale.obj
 0001:000491ce       ??1?$__crt_unique_heap_ptr@U__crt_locale_pointers@@U__crt_internal_free_policy@@@@QAE@XZ 1004a1ce f i libucrt:wsetlocale.obj
 0001:000491e4       ??1?$__crt_unique_heap_ptr@U__crt_multibyte_data@@U__crt_internal_free_policy@@@@QAE@XZ 1004a1e4 f i libucrt:wsetlocale.obj
 0001:000491fa       ??B?$__crt_unique_heap_ptr@U__crt_locale_data@@U__crt_internal_free_policy@@@@QBE_NXZ 1004a1fa f i libucrt:wsetlocale.obj
 0001:00049201       ??B?$__crt_unique_heap_ptr@U__crt_locale_pointers@@U__crt_internal_free_policy@@@@QBE_NXZ 1004a201 f i libucrt:wsetlocale.obj
 0001:00049208       ??B?$__crt_unique_heap_ptr@U__crt_multibyte_data@@U__crt_internal_free_policy@@@@QBE_NXZ 1004a208 f i libucrt:wsetlocale.obj
 0001:000494aa       ?detach@?$__crt_unique_heap_ptr@U__crt_locale_data@@U__crt_internal_free_policy@@@@QAEPAU__crt_locale_data@@XZ 1004a4aa f i libucrt:wsetlocale.obj
 0001:000494b0       ?detach@?$__crt_unique_heap_ptr@U__crt_locale_pointers@@U__crt_internal_free_policy@@@@QAEPAU__crt_locale_pointers@@XZ 1004a4b0 f i libucrt:wsetlocale.obj
 0001:000494b6       ?detach@?$__crt_unique_heap_ptr@U__crt_multibyte_data@@U__crt_internal_free_policy@@@@QAEPAU__crt_multibyte_data@@XZ 1004a4b6 f i libucrt:wsetlocale.obj
 0001:000494bc       ?get@?$__crt_unique_heap_ptr@U__crt_locale_data@@U__crt_internal_free_policy@@@@QBEPAU__crt_locale_data@@XZ 1004a4bc f i libucrt:wsetlocale.obj
 0001:000494bf       ?get@?$__crt_unique_heap_ptr@U__crt_locale_pointers@@U__crt_internal_free_policy@@@@QBEPAU__crt_locale_pointers@@XZ 1004a4bf f i libucrt:wsetlocale.obj
 0001:000494c2       ?get@?$__crt_unique_heap_ptr@U__crt_multibyte_data@@U__crt_internal_free_policy@@@@QBEPAU__crt_multibyte_data@@XZ 1004a4c2 f i libucrt:wsetlocale.obj
 0001:000494c5       ?is_valid@?$__crt_unique_heap_ptr@U__crt_locale_data@@U__crt_internal_free_policy@@@@QBE_NXZ 1004a4c5 f i libucrt:wsetlocale.obj
 0001:000494cc       ?is_valid@?$__crt_unique_heap_ptr@U__crt_locale_pointers@@U__crt_internal_free_policy@@@@QBE_NXZ 1004a4cc f i libucrt:wsetlocale.obj
 0001:000494d3       ?is_valid@?$__crt_unique_heap_ptr@U__crt_multibyte_data@@U__crt_internal_free_policy@@@@QBE_NXZ 1004a4d3 f i libucrt:wsetlocale.obj
 0001:000494da       ?release@?$__crt_unique_heap_ptr@U__crt_locale_data@@U__crt_internal_free_policy@@@@QAEXXZ 1004a4da f i libucrt:wsetlocale.obj
 0001:000494f0       ?release@?$__crt_unique_heap_ptr@U__crt_locale_pointers@@U__crt_internal_free_policy@@@@QAEXXZ 1004a4f0 f i libucrt:wsetlocale.obj
 0001:00049506       ?release@?$__crt_unique_heap_ptr@U__crt_multibyte_data@@U__crt_internal_free_policy@@@@QAEXXZ 1004a506 f i libucrt:wsetlocale.obj
 0001:0004951c       ___acrt_copy_locale_name   1004a51c f   libucrt:wsetlocale.obj
 0001:0004959b       ___acrt_set_locale_changed 1004a59b f   libucrt:wsetlocale.obj
 0001:000495a8       ___acrt_uninitialize_locale 1004a5a8 f   libucrt:wsetlocale.obj
 0001:000495db       ___lc_lctowcs              1004a5db f   libucrt:wsetlocale.obj
 0001:00049667       ___lc_wcstolc              1004a667 f   libucrt:wsetlocale.obj
 0001:00049807       __configthreadlocale       1004a807 f   libucrt:wsetlocale.obj
 0001:000498bb       __create_locale            1004a8bb f   libucrt:wsetlocale.obj
 0001:0004993a       __expandlocale             1004a93a f   libucrt:wsetlocale.obj
 0001:00049e0e       __free_locale              1004ae0e f   libucrt:wsetlocale.obj
 0001:00049ef4       __get_current_locale       1004aef4 f   libucrt:wsetlocale.obj
 0001:00049fb8       __wcreate_locale           1004afb8 f   libucrt:wsetlocale.obj
 0001:0004a103       __wcscats                  1004b103 f   libucrt:wsetlocale.obj
 0001:0004a154       __wsetlocale               1004b154 f   libucrt:wsetlocale.obj
 0001:0004ac8b       ___p___mb_cur_max          1004bc8b f   libucrt:nlsdata.obj
 0001:0004acbb       __realloc_base             1004bcbb f   libucrt:realloc_base.obj
 0001:0004ad3e       ___acrt_initialize_locks   1004bd3e f   libucrt:locks.obj
 0001:0004ad8f       ___acrt_lock               1004bd8f f   libucrt:locks.obj
 0001:0004adab       ___acrt_uninitialize_locks 1004bdab f   libucrt:locks.obj
 0001:0004ade8       ___acrt_unlock             1004bde8 f   libucrt:locks.obj
 0001:0004ae04       __lock_locales             1004be04 f   libucrt:locks.obj
 0001:0004ae15       __unlock_locales           1004be15 f   libucrt:locks.obj
 0001:0004b033       ___acrt_get_begin_thread_init_policy 1004c033 f   libucrt:win_policies.obj
 0001:0004b089       ___acrt_get_developer_information_policy 1004c089 f   libucrt:win_policies.obj
 0001:0004b0df       ___acrt_get_process_end_policy 1004c0df f   libucrt:win_policies.obj
 0001:0004b11e       ___acrt_get_windowing_model_policy 1004c11e f   libucrt:win_policies.obj
 0001:0004b387       __close                    1004c387 f   libucrt:close.obj
 0001:0004b439       __close_nolock             1004c439 f   libucrt:close.obj
 0001:0004b4fc       ??$?RU__crt_stdio_stream_data@@@__crt_internal_free_policy@@QBEXQBU__crt_stdio_stream_data@@@Z 1004c4fc f i libucrt:stream.obj
 0001:0004b512       ??0?$__crt_unique_heap_ptr@U__crt_stdio_stream_data@@U__crt_internal_free_policy@@@@QAE@QAU__crt_stdio_stream_data@@@Z 1004c512 f i libucrt:stream.obj
 0001:0004b526       ??0__crt_stdio_stream@@QAE@XZ 1004c526 f i libucrt:stream.obj
 0001:0004b52c       ??1?$__crt_unique_heap_ptr@U__crt_stdio_stream_data@@U__crt_internal_free_policy@@@@QAE@XZ 1004c52c f i libucrt:stream.obj
 0001:0004b542       ?__acrt_stdio_allocate_stream@@YA?AV__crt_stdio_stream@@XZ 1004c542 f   libucrt:stream.obj
 0001:0004b5b8       ?__acrt_stdio_free_stream@@YAXV__crt_stdio_stream@@@Z 1004c5b8 f   libucrt:stream.obj
 0001:0004b601       ?deallocate@__crt_stdio_stream@@QAEXXZ 1004c601 f i libucrt:stream.obj
 0001:0004b60d       ?detach@?$__crt_unique_heap_ptr@U__crt_stdio_stream_data@@U__crt_internal_free_policy@@@@QAEPAU__crt_stdio_stream_data@@XZ 1004c60d f i libucrt:stream.obj
 0001:0004b706       ?lock@__crt_stdio_stream@@QBEXXZ 1004c706 f i libucrt:stream.obj
 0001:0004b711       ?release@?$__crt_unique_heap_ptr@U__crt_stdio_stream_data@@U__crt_internal_free_policy@@@@QAEXXZ 1004c711 f i libucrt:stream.obj
 0001:0004b727       ?try_allocate@__crt_stdio_stream@@QAE_NXZ 1004c727 f i libucrt:stream.obj
 0001:0004b74f       ??$__acrt_stdio_parse_mode@D@@YA?AU__acrt_stdio_stream_mode@@QBD@Z 1004c74f f i libucrt:openfile.obj
 0001:0004ba09       ??$__acrt_stdio_parse_mode@_W@@YA?AU__acrt_stdio_stream_mode@@QB_W@Z 1004ca09 f i libucrt:openfile.obj
 0001:0004be5e       ??$tcsncmp@AAPBDAAY02$$CBDI@?$__crt_char_traits@D@@SAHAAPBDAAY02$$CBD$$QAI@Z 1004ce5e f i libucrt:openfile.obj
 0001:0004be81       ??$tcsncmp@AAPB_WAAY02$$CB_WI@?$__crt_char_traits@_W@@SAHAAPB_WAAY02$$CB_W$$QAI@Z 1004ce81 f i libucrt:openfile.obj
 0001:0004bea4       ??$tcsnicmp@AAPBDAAY04$$CBDI@?$__crt_char_traits@D@@SAHAAPBDAAY04$$CBD$$QAI@Z 1004cea4 f i libucrt:openfile.obj
 0001:0004bec7       ??$tcsnicmp@AAPBDAAY06$$CBDI@?$__crt_char_traits@D@@SAHAAPBDAAY06$$CBD$$QAI@Z 1004cec7 f i libucrt:openfile.obj
 0001:0004beea       ??$tcsnicmp@AAPBDAAY07$$CBDI@?$__crt_char_traits@D@@SAHAAPBDAAY07$$CBD$$QAI@Z 1004ceea f i libucrt:openfile.obj
 0001:0004bf0d       ??$tcsnicmp@AAPB_WAAY04$$CB_WI@?$__crt_char_traits@_W@@SAHAAPB_WAAY04$$CB_W$$QAI@Z 1004cf0d f i libucrt:openfile.obj
 0001:0004bf30       ??$tcsnicmp@AAPB_WAAY06$$CB_WI@?$__crt_char_traits@_W@@SAHAAPB_WAAY06$$CB_W$$QAI@Z 1004cf30 f i libucrt:openfile.obj
 0001:0004bf53       ??$tcsnicmp@AAPB_WAAY07$$CB_WI@?$__crt_char_traits@_W@@SAHAAPB_WAAY07$$CB_W$$QAI@Z 1004cf53 f i libucrt:openfile.obj
 0001:0004bf76       ??$tsopen_s@PAHABQBDABHABHH@?$__crt_char_traits@D@@SAH$$QAPAHABQBDABH2$$QAH@Z 1004cf76 f i libucrt:openfile.obj
 0001:0004bfa8       ??$tsopen_s@PAHABQB_WABHABHH@?$__crt_char_traits@_W@@SAH$$QAPAHABQB_WABH2$$QAH@Z 1004cfa8 f i libucrt:openfile.obj
 0001:0004bfda       ?__acrt_stdio_parse_mode_D@@YA_NAAU__acrt_stdio_stream_mode@@@Z 1004cfda f i libucrt:openfile.obj
 0001:0004bffb       ?__acrt_stdio_parse_mode_N@@YA_NAAU__acrt_stdio_stream_mode@@@Z 1004cffb f i libucrt:openfile.obj
 0001:0004c011       ?__acrt_stdio_parse_mode_R@@YA_NAAU__acrt_stdio_stream_mode@@AA_N@Z 1004d011 f i libucrt:openfile.obj
 0001:0004c036       ?__acrt_stdio_parse_mode_S@@YA_NAAU__acrt_stdio_stream_mode@@AA_N@Z 1004d036 f i libucrt:openfile.obj
 0001:0004c05b       ?__acrt_stdio_parse_mode_T@@YA_NAAU__acrt_stdio_stream_mode@@@Z 1004d05b f i libucrt:openfile.obj
 0001:0004c081       ?__acrt_stdio_parse_mode_b@@YA_NAAU__acrt_stdio_stream_mode@@@Z 1004d081 f i libucrt:openfile.obj
 0001:0004c0a9       ?__acrt_stdio_parse_mode_c@@YA_NAAU__acrt_stdio_stream_mode@@AA_N@Z 1004d0a9 f i libucrt:openfile.obj
 0001:0004c0d3       ?__acrt_stdio_parse_mode_n@@YA_NAAU__acrt_stdio_stream_mode@@AA_N@Z 1004d0d3 f i libucrt:openfile.obj
 0001:0004c0fd       ?__acrt_stdio_parse_mode_plus@@YA_NAAU__acrt_stdio_stream_mode@@AA_N@Z 1004d0fd f i libucrt:openfile.obj
 0001:0004c13f       ?__acrt_stdio_parse_mode_t@@YA_NAAU__acrt_stdio_stream_mode@@@Z 1004d13f f i libucrt:openfile.obj
 0001:0004c167       ?__acrt_stdio_parse_mode_x@@YA_NAAU__acrt_stdio_stream_mode@@@Z 1004d167 f i libucrt:openfile.obj
 0001:0004c18f       __openfile                 1004d18f f   libucrt:openfile.obj
 0001:0004c19c       __wopenfile                1004d19c f   libucrt:openfile.obj
 0001:0004c86f       __read                     1004d86f f   libucrt:read.obj
 0001:0004c9bb       __read_nolock              1004d9bb f   libucrt:read.obj
 0001:0004ce59       __utf8_no_of_trailbytes    1004de59 f i libucrt:read.obj
 0001:0004d378       ___acrt_stdio_refill_and_read_narrow_nolock 1004e378 f   libucrt:_filbuf.obj
 0001:0004d385       ___acrt_stdio_refill_and_read_wide_nolock 1004e385 f   libucrt:_filbuf.obj
 0001:0004db07       __write                    1004eb07 f   libucrt:write.obj
 0001:0004dc29       __write_nolock             1004ec29 f   libucrt:write.obj
 0001:0004e36b       ___acrt_stdio_flush_and_write_narrow_nolock 1004f36b f   libucrt:_flsbuf.obj
 0001:0004e378       ___acrt_stdio_flush_and_write_wide_nolock 1004f378 f   libucrt:_flsbuf.obj
 0001:0004e407       ___acrt_MultiByteToWideChar 1004f407 f   libucrt:multibytetowidechar.obj
 0001:0004e4a2       __wremove                  1004f4a2 f   libucrt:wunlink.obj
 0001:0004e4d4       __wunlink                  1004f4d4 f   libucrt:wunlink.obj
 0001:0004e941       __lseek                    1004f941 f   libucrt:lseek.obj
 0001:0004e94e       __lseek_nolock             1004f94e f   libucrt:lseek.obj
 0001:0004e95b       __lseeki64                 1004f95b f   libucrt:lseek.obj
 0001:0004e97c       __lseeki64_nolock          1004f97c f   libucrt:lseek.obj
 0001:0004e99d       __chgsign                  1004f99d f   libucrt:ieeemisc.obj
 0001:0004e9d7       __chgsignf                 1004f9d7 f   libucrt:ieeemisc.obj
 0001:0004ea02       __copysign                 1004fa02 f   libucrt:ieeemisc.obj
 0001:0004ea36       __copysignf                1004fa36 f   libucrt:ieeemisc.obj
 0001:0004ea5b       __finite                   1004fa5b f   libucrt:ieeemisc.obj
 0001:0004ea7b       __fpclass                  1004fa7b f   libucrt:ieeemisc.obj
 0001:0004eb48       __isnan                    1004fb48 f   libucrt:ieeemisc.obj
 0001:0004eb8b       __logb                     1004fb8b f   libucrt:ieeemisc.obj
 0001:0004ec90       __nextafter                1004fc90 f   libucrt:ieeemisc.obj
 0001:0004ecb6       __scalb                    1004fcb6 f   libucrt:ieeemisc.obj
 0001:0004ecd6       __add_exp                  1004fcd6 f   libucrt:util.obj
 0001:0004ed10       __decomp                   1004fd10 f   libucrt:util.obj
 0001:0004ee25       __get_exp                  1004fe25 f   libucrt:util.obj
 0001:0004ee43       __set_bexp                 1004fe43 f   libucrt:util.obj
 0001:0004ee76       __set_exp                  1004fe76 f   libucrt:util.obj
 0001:0004eeb0       __sptype                   1004feb0 f   libucrt:util.obj
 0001:0004ef25       ___clrfp_sse2              1004ff25 f   libucrt:fpctrl.obj
 0001:0004ef4e       ___ctrlfp_sse2             1004ff4e f   libucrt:fpctrl.obj
 0001:0004ef97       ___fclrf_sse2              1004ff97 f   libucrt:fpctrl.obj
 0001:0004efbd       ___get_fpsr_sse2           1004ffbd f   libucrt:fpctrl.obj
 0001:0004efe2       ___set_fpsr_sse2           1004ffe2 f   libucrt:fpctrl.obj
 0001:0004f075       ___set_statfp_sse2         10050075 f   libucrt:fpctrl.obj
 0001:0004f096       ___statfp_sse2             10050096 f   libucrt:fpctrl.obj
 0001:0004f0b0       __clrfp                    100500b0 f   libucrt:fpctrl.obj
 0001:0004f0c7       __ctrlfp                   100500c7 f   libucrt:fpctrl.obj
 0001:0004f0fe       __set_statfp               100500fe f   libucrt:fpctrl.obj
 0001:0004f16f       __statfp                   1005016f f   libucrt:fpctrl.obj
 0001:0004f24c       ___acrt_report_runtime_error 1005024c f   libucrt:report_runtime_error.obj
 0001:0004f3a6       __query_app_type           100503a6 f   libucrt:report_runtime_error.obj
 0001:0004f3ac       __set_app_type             100503ac f   libucrt:report_runtime_error.obj
 0001:0004f9c3       __i64toa                   100509c3 f   libucrt:xtoa.obj
 0001:0004fa16       __i64toa_s                 10050a16 f   libucrt:xtoa.obj
 0001:0004fa67       __i64tow                   10050a67 f   libucrt:xtoa.obj
 0001:0004faba       __i64tow_s                 10050aba f   libucrt:xtoa.obj
 0001:0004fb0b       __itoa                     10050b0b f   libucrt:xtoa.obj
 0001:0004fb4f       __itoa_s                   10050b4f f   libucrt:xtoa.obj
 0001:0004fb91       __itow                     10050b91 f   libucrt:xtoa.obj
 0001:0004fbd5       __itow_s                   10050bd5 f   libucrt:xtoa.obj
 0001:0004fc17       __ltoa                     10050c17 f   libucrt:xtoa.obj
 0001:0004fc5b       __ltoa_s                   10050c5b f   libucrt:xtoa.obj
 0001:0004fc9d       __ltow                     10050c9d f   libucrt:xtoa.obj
 0001:0004fce1       __ltow_s                   10050ce1 f   libucrt:xtoa.obj
 0001:0004fd23       __ui64toa                  10050d23 f   libucrt:xtoa.obj
 0001:0004fd4d       __ui64toa_s                10050d4d f   libucrt:xtoa.obj
 0001:0004fd75       __ui64tow                  10050d75 f   libucrt:xtoa.obj
 0001:0004fd9f       __ui64tow_s                10050d9f f   libucrt:xtoa.obj
 0001:0004fdc7       __ultoa                    10050dc7 f   libucrt:xtoa.obj
 0001:0004fded       __ultoa_s                  10050ded f   libucrt:xtoa.obj
 0001:0004fe11       __ultow                    10050e11 f   libucrt:xtoa.obj
 0001:0004fe37       __ultow_s                  10050e37 f   libucrt:xtoa.obj
 0001:0004fe5b       __set_error_mode           10050e5b f   libucrt:set_error_mode.obj
 0001:0004ff37       _wcscat_s                  10050f37 f   libucrt:wcscat_s.obj
 0001:00050041       _wcscpy_s                  10051041 f   libucrt:wcscpy_s.obj
 0001:000501e1       _wcsncat_s                 100511e1 f   libucrt:wcsncat_s.obj
 0001:00050271       _strcat_s                  10051271 f   libucrt:strcat_s.obj
 0001:000503f8       _strncat_s                 100513f8 f   libucrt:strncat_s.obj
 0001:00050405       ___acrt_GetModuleFileNameA 10051405 f   libucrt:getmodulefilenamea.obj
 0001:000505bd       ??$message_box@$$TABQBDABQBDK@?$__crt_char_traits@D@@SAH$$QA$$TABQBD1$$QAK@Z 100515bd f i libucrt:crtmbox.obj
 0001:000505e5       ??$message_box@$$TABQB_WABQB_WK@?$__crt_char_traits@_W@@SAH$$QA$$TABQB_W1$$QAK@Z 100515e5 f i libucrt:crtmbox.obj
 0001:0005060d       ??$message_box@PAUHWND__@@ABQBDABQBDABI@?$__crt_char_traits@D@@SAH$$QAPAUHWND__@@ABQBD1ABI@Z 1005160d f i libucrt:crtmbox.obj
 0001:00050635       ??$message_box@PAUHWND__@@ABQB_WABQB_WABI@?$__crt_char_traits@_W@@SAH$$QAPAUHWND__@@ABQB_W1ABI@Z 10051635 f i libucrt:crtmbox.obj
 0001:0005065d       ??$output_debug_string@ABQBD@?$__crt_char_traits@D@@SAXABQBD@Z 1005165d f i libucrt:crtmbox.obj
 0001:00050672       ??$output_debug_string@ABQB_W@?$__crt_char_traits@_W@@SAXABQB_W@Z 10051672 f i libucrt:crtmbox.obj
 0001:00050688       ___acrt_show_narrow_message_box 10051688 f   libucrt:crtmbox.obj
 0001:00050695       ___acrt_show_wide_message_box 10051695 f   libucrt:crtmbox.obj
 0001:000508a4       _setvbuf                   100518a4 f   libucrt:setvbuf.obj
 0001:00050949       ??$?B$$A6AXH@Z@__crt_fast_encoded_nullptr_t@@QBEP6AXH@ZXZ 10051949 f i libucrt:signal.obj
 0001:00050a09       ??$__crt_fast_decode_pointer@P6AXH@Z@@YAP6AXH@ZQ6AXH@Z@Z 10051a09 f i libucrt:signal.obj
 0001:00050a24       ??$__crt_fast_encode_pointer@P6AXH@Z@@YAP6AXH@ZQ6AXH@Z@Z 10051a24 f i libucrt:signal.obj
 0001:00050bce       ?initialize@?$dual_state_global@P6AXH@Z@__crt_state_management@@QAEXQ6AXH@Z@Z 10051bce f i libucrt:signal.obj
 0001:00050cac       ?value@?$dual_state_global@P6AXH@Z@__crt_state_management@@QAEAAP6AXH@ZXZ 10051cac f i libucrt:signal.obj
 0001:00050caf       ___acrt_get_sigabrt_handler 10051caf f   libucrt:signal.obj
 0001:00050ce2       ___acrt_initialize_signal_handlers 10051ce2 f   libucrt:signal.obj
 0001:00050d07       ___fpecode                 10051d07 f   libucrt:signal.obj
 0001:00050d12       ___pxcptinfoptrs           10051d12 f   libucrt:signal.obj
 0001:00050d1d       _raise                     10051d1d f   libucrt:signal.obj
 0001:00050f9f       _signal                    10051f9f f   libucrt:signal.obj
 0001:000511bc       ??$__crt_fast_decode_pointer@P6AHPAU_exception@@@Z@@YAP6AHPAU_exception@@@ZQ6AH0@Z@Z 100521bc f i libucrt:matherr.obj
 0001:000511d7       ??$__crt_fast_encode_pointer@P6AHPAU_exception@@@Z@@YAP6AHPAU_exception@@@ZQ6AH0@Z@Z 100521d7 f i libucrt:matherr.obj
 0001:000511fd       ?initialize@?$dual_state_global@P6AHPAU_exception@@@Z@__crt_state_management@@QAEXQ6AHPAU_exception@@@Z@Z 100521fd f i libucrt:matherr.obj
 0001:0005122c       ?value@?$dual_state_global@P6AHPAU_exception@@@Z@__crt_state_management@@QAEAAP6AHPAU_exception@@@ZXZ 1005222c f i libucrt:matherr.obj
 0001:0005122f       ___acrt_has_user_matherr   1005222f f   libucrt:matherr.obj
 0001:0005124d       ___acrt_initialize_user_matherr 1005224d f   libucrt:matherr.obj
 0001:0005125f       ___acrt_invoke_user_matherr 1005225f f   libucrt:matherr.obj
 0001:000512ba       ___setusermatherr          100522ba f   libucrt:matherr.obj
 0001:00051dc5       ??$find_first_file_ex@ABQADW4_FINDEX_INFO_LEVELS@@PAU_WIN32_FIND_DATAA@@W4_FINDEX_SEARCH_OPS@@$$TH@?$__crt_char_traits@D@@SAPAXABQAD$$QAW4_FINDEX_INFO_LEVELS@@$$QAPAU_WIN32_FIND_DATAA@@$$QAW4_FINDEX_SEARCH_OPS@@$$QA$$T$$QAH@Z 10052dc5 f i libucrt:argv_wildcards.obj
 0001:00051dfd       ??$find_first_file_ex@ABQA_WW4_FINDEX_INFO_LEVELS@@PAU_WIN32_FIND_DATAW@@W4_FINDEX_SEARCH_OPS@@$$TH@?$__crt_char_traits@_W@@SAPAXABQA_W$$QAW4_FINDEX_INFO_LEVELS@@$$QAPAU_WIN32_FIND_DATAW@@$$QAW4_FINDEX_SEARCH_OPS@@$$QA$$T$$QAH@Z 10052dfd f i libucrt:argv_wildcards.obj
 0001:00051e32       ??$find_next_file@PAXPAU_WIN32_FIND_DATAA@@@?$__crt_char_traits@D@@SAH$$QAPAX$$QAPAU_WIN32_FIND_DATAA@@@Z 10052e32 f i libucrt:argv_wildcards.obj
 0001:00051e50       ??$find_next_file@PAXPAU_WIN32_FIND_DATAW@@@?$__crt_char_traits@_W@@SAH$$QAPAX$$QAPAU_WIN32_FIND_DATAW@@@Z 10052e50 f i libucrt:argv_wildcards.obj
 0001:00051e6c       ??$tcsncpy_s@AAPADIAAPADABI@?$__crt_char_traits@D@@SAHAAPAD$$QAI0ABI@Z 10052e6c f i libucrt:argv_wildcards.obj
 0001:00051e97       ??$tcsncpy_s@AAPA_WIAAPA_WABI@?$__crt_char_traits@_W@@SAHAAPA_W$$QAI0ABI@Z 10052e97 f i libucrt:argv_wildcards.obj
 0001:00051ec2       ??$tcsncpy_s@PADABIABQBDABI@?$__crt_char_traits@D@@SAH$$QAPADABIABQBD1@Z 10052ec2 f i libucrt:argv_wildcards.obj
 0001:00051eed       ??$tcsncpy_s@PADIABQBDABI@?$__crt_char_traits@D@@SAH$$QAPAD$$QAIABQBDABI@Z 10052eed f i libucrt:argv_wildcards.obj
 0001:00051f18       ??$tcsncpy_s@PA_WABIABQB_WABI@?$__crt_char_traits@_W@@SAH$$QAPA_WABIABQB_W1@Z 10052f18 f i libucrt:argv_wildcards.obj
 0001:00051f43       ??$tcsncpy_s@PA_WIABQB_WABI@?$__crt_char_traits@_W@@SAH$$QAPA_W$$QAIABQB_WABI@Z 10052f43 f i libucrt:argv_wildcards.obj
 0001:00051f6e       ??$tcspbrk@AAPADAAY02$$CBD@?$__crt_char_traits@D@@SAPADAAPADAAY02$$CBD@Z 10052f6e f i libucrt:argv_wildcards.obj
 0001:00051f89       ??$tcspbrk@AAPA_WAAY02$$CB_W@?$__crt_char_traits@_W@@SAPA_WAAPA_WAAY02$$CB_W@Z 10052f89 f i libucrt:argv_wildcards.obj
 0001:00051fa4       ??0?$__crt_unique_handle_t@U__crt_findfile_traits@@@@QAE@QAX@Z 10052fa4 f i libucrt:argv_wildcards.obj
 0001:00051fd8       ??1?$__crt_unique_handle_t@U__crt_findfile_traits@@@@QAE@XZ 10052fd8 f i libucrt:argv_wildcards.obj
 0001:00052182       ?close@?$__crt_unique_handle_t@U__crt_findfile_traits@@@@QAEXXZ 10053182 f i libucrt:argv_wildcards.obj
 0001:0005219e       ?close@__crt_findfile_traits@@SA_NPAX@Z 1005319e f i libucrt:argv_wildcards.obj
 0001:00052310       ?get@?$__crt_unique_handle_t@U__crt_findfile_traits@@@@QBEPAXXZ 10053310 f i libucrt:argv_wildcards.obj
 0001:00052313       ?get_invalid_value@__crt_findfile_traits@@SAPAXXZ 10053313 f i libucrt:argv_wildcards.obj
 0001:0005234a       ?strpbrk@@YAPADQADQBD@Z    1005334a f i libucrt:argv_wildcards.obj
 0001:00052357       ?wcspbrk@@YAPA_WPA_WPB_W@Z 10053357 f i libucrt:argv_wildcards.obj
 0001:00052364       ___acrt_expand_narrow_argv_wildcards 10053364 f   libucrt:argv_wildcards.obj
 0001:00052371       ___acrt_expand_wide_argv_wildcards 10053371 f   libucrt:argv_wildcards.obj
 0001:00052403       ??$initialize_from_array@$$BY10BAA@E@?$dual_state_global@PAE@__crt_state_management@@QAAXAAY10BAA@E@Z 10053403 f i libucrt:mbctype.obj
 0001:00052415       ??$initialize_from_array@$$BY10BAB@E@?$dual_state_global@PAE@__crt_state_management@@QAAXAAY10BAB@E@Z 10053415 f i libucrt:mbctype.obj
 0001:00052574       ?dangerous_get_state_array@?$dual_state_global@PAE@__crt_state_management@@QAEPAPAEXZ 10053574 f i libucrt:mbctype.obj
 0001:00052577       ?dangerous_get_state_array@?$dual_state_global@PAU__crt_multibyte_data@@@__crt_state_management@@QAEPAPAU__crt_multibyte_data@@XZ 10053577 f i libucrt:mbctype.obj
 0001:00052609       ?initialize@?$dual_state_global@PAU__crt_multibyte_data@@@__crt_state_management@@QAEXQAU__crt_multibyte_data@@@Z 10053609 f i libucrt:mbctype.obj
 0001:00052af8       ?value@?$dual_state_global@PAE@__crt_state_management@@QAEAAPAEXZ 10053af8 f i libucrt:mbctype.obj
 0001:00052afb       ___acrt_initialize_multibyte 10053afb f   libucrt:mbctype.obj
 0001:00052b55       ___acrt_update_thread_multibyte_data 10053b55 f   libucrt:mbctype.obj
 0001:00052b6c       ___p__mbcasemap            10053b6c f   libucrt:mbctype.obj
 0001:00052b72       ___p__mbctype              10053b72 f   libucrt:mbctype.obj
 0001:00052b78       __getmbcp                  10053b78 f   libucrt:mbctype.obj
 0001:00052bbb       __setmbcp                  10053bbb f   libucrt:mbctype.obj
 0001:00052be1       __setmbcp_nolock           10053be1 f   libucrt:mbctype.obj
 0001:00052f6a       __ismbbalnum               10053f6a f   libucrt:ismbbyte.obj
 0001:00052f8b       __ismbbalnum_l             10053f8b f   libucrt:ismbbyte.obj
 0001:00052fae       __ismbbalpha               10053fae f   libucrt:ismbbyte.obj
 0001:00052fcf       __ismbbalpha_l             10053fcf f   libucrt:ismbbyte.obj
 0001:00052ff2       __ismbbblank               10053ff2 f   libucrt:ismbbyte.obj
 0001:0005301d       __ismbbblank_l             1005401d f   libucrt:ismbbyte.obj
 0001:0005304a       __ismbbgraph               1005404a f   libucrt:ismbbyte.obj
 0001:0005306b       __ismbbgraph_l             1005406b f   libucrt:ismbbyte.obj
 0001:0005308e       __ismbbkalnum              1005408e f   libucrt:ismbbyte.obj
 0001:000530ac       __ismbbkalnum_l            100540ac f   libucrt:ismbbyte.obj
 0001:000530cb       __ismbbkana                100540cb f   libucrt:ismbbyte.obj
 0001:000530e2       __ismbbkana_l              100540e2 f   libucrt:ismbbyte.obj
 0001:00053147       __ismbbkprint              10054147 f   libucrt:ismbbyte.obj
 0001:00053165       __ismbbkprint_l            10054165 f   libucrt:ismbbyte.obj
 0001:00053184       __ismbbkpunct              10054184 f   libucrt:ismbbyte.obj
 0001:000531a2       __ismbbkpunct_l            100541a2 f   libucrt:ismbbyte.obj
 0001:000531c1       __ismbblead                100541c1 f   libucrt:ismbbyte.obj
 0001:000531df       __ismbblead_l              100541df f   libucrt:ismbbyte.obj
 0001:000531fe       __ismbbprint               100541fe f   libucrt:ismbbyte.obj
 0001:0005321f       __ismbbprint_l             1005421f f   libucrt:ismbbyte.obj
 0001:00053242       __ismbbpunct               10054242 f   libucrt:ismbbyte.obj
 0001:00053260       __ismbbpunct_l             10054260 f   libucrt:ismbbyte.obj
 0001:0005327f       __ismbbtrail               1005427f f   libucrt:ismbbyte.obj
 0001:0005329d       __ismbbtrail_l             1005429d f   libucrt:ismbbyte.obj
 0001:000532bc       ___acrt_initialize_command_line 100542bc f   libucrt:argv_data.obj
 0001:000532db       ___acrt_uninitialize_command_line 100542db f   libucrt:argv_data.obj
 0001:000532de       ___p___argc                100542de f   libucrt:argv_data.obj
 0001:000532e4       ___p___argv                100542e4 f   libucrt:argv_data.obj
 0001:000532ea       ___p___wargv               100542ea f   libucrt:argv_data.obj
 0001:000532f0       ___p__acmdln               100542f0 f   libucrt:argv_data.obj
 0001:000532f6       ___p__pgmptr               100542f6 f   libucrt:argv_data.obj
 0001:000532fc       ___p__wcmdln               100542fc f   libucrt:argv_data.obj
 0001:00053302       ___p__wpgmptr              10054302 f   libucrt:argv_data.obj
 0001:00053308       __get_pgmptr               10054308 f   libucrt:argv_data.obj
 0001:00053345       __get_wpgmptr              10054345 f   libucrt:argv_data.obj
 0001:00053400       ___acrt_WideCharToMultiByte 10054400 f   libucrt:widechartomultibyte.obj
 0001:00053592       ___dcrt_get_narrow_environment_from_os 10054592 f   libucrt:get_environment_from_os.obj
 0001:00053639       ___dcrt_get_wide_environment_from_os 10054639 f   libucrt:get_environment_from_os.obj
 0001:00053f3d       ??$get_or_create_environment_nolock@$$V@?$__crt_char_traits@D@@SAPAPADXZ 10054f3d f i libucrt:setenv.obj
 0001:00053f42       ??$get_or_create_environment_nolock@$$V@?$__crt_char_traits@_W@@SAPAPA_WXZ 10054f42 f i libucrt:setenv.obj
 0001:00053f47       ??$set_environment_variable@ABQADQAD@?$__crt_char_traits@D@@SAHABQAD$$QBQAD@Z 10054f47 f i libucrt:setenv.obj
 0001:00053f65       ??$set_environment_variable@ABQA_WQA_W@?$__crt_char_traits@_W@@SAHABQA_W$$QBQA_W@Z 10054f65 f i libucrt:setenv.obj
 0001:00053f81       ??$tcschr@ABQADD@?$__crt_char_traits@D@@SAPADABQAD$$QAD@Z 10054f81 f i libucrt:setenv.obj
 0001:00053fa1       ??$tcschr@ABQA_WD@?$__crt_char_traits@_W@@SAPA_WABQA_W$$QAD@Z 10054fa1 f i libucrt:setenv.obj
 0001:00053fc6       ??$tcscpy_s@AAPADABIAAPAD@?$__crt_char_traits@D@@SAHAAPADABI0@Z 10054fc6 f i libucrt:setenv.obj
 0001:00053feb       ??$tcscpy_s@AAPA_WABIAAPA_W@?$__crt_char_traits@_W@@SAHAAPA_WABI0@Z 10054feb f i libucrt:setenv.obj
 0001:00054010       ??$tcscpy_s@ABQADABIABQAD@?$__crt_char_traits@D@@SAHABQADABI0@Z 10055010 f i libucrt:setenv.obj
 0001:00054035       ??$tcscpy_s@ABQA_WABIABQA_W@?$__crt_char_traits@_W@@SAHABQA_WABI0@Z 10055035 f i libucrt:setenv.obj
 0001:0005405a       ??$tcsnicoll@ABQBDAAPADABI@?$__crt_char_traits@D@@SAHABQBDAAPADABI@Z 1005505a f i libucrt:setenv.obj
 0001:0005407f       ??$tcsnicoll@ABQB_WAAPA_WABI@?$__crt_char_traits@_W@@SAHABQB_WAAPA_WABI@Z 1005507f f i libucrt:setenv.obj
 0001:000540c8       ?strchr@@YAPADQADH@Z       100550c8 f i libucrt:setenv.obj
 0001:000540d5       ?wcschr@@YAPA_WPA_W_W@Z    100550d5 f i libucrt:setenv.obj
 0001:000540e2       ___dcrt_set_variable_in_narrow_environment_nolock 100550e2 f   libucrt:setenv.obj
 0001:000540ef       ___dcrt_set_variable_in_wide_environment_nolock 100550ef f   libucrt:setenv.obj
 0001:000540fc       __recalloc                 100550fc f   libucrt:recalloc.obj
 0001:00054109       __recalloc_base            10055109 f   libucrt:recalloc.obj
 0001:00054191       ___acrt_getheap            10055191 f   libucrt:heap_handle.obj
 0001:00054197       ___acrt_initialize_heap    10055197 f   libucrt:heap_handle.obj
 0001:000541ac       ___acrt_uninitialize_heap  100551ac f   libucrt:heap_handle.obj
 0001:000541b8       __get_heap_handle          100551b8 f   libucrt:heap_handle.obj
 0001:000541be       ___acrt_execute_initializers 100551be f   libucrt:shared_initialization.obj
 0001:00054261       ___acrt_execute_uninitializers 10055261 f   libucrt:shared_initialization.obj
 0001:000542bb       ??$?B$$A6AHI@Z@__crt_fast_encoded_nullptr_t@@QBEP6AHI@ZXZ 100552bb f i libucrt:new_handler.obj
 0001:000542d9       ??$__crt_fast_decode_pointer@P6AHI@Z@@YAP6AHI@ZQ6AHI@Z@Z 100552d9 f i libucrt:new_handler.obj
 0001:000542f4       ??$__crt_fast_encode_pointer@P6AHI@Z@@YAP6AHI@ZQ6AHI@Z@Z 100552f4 f i libucrt:new_handler.obj
 0001:0005431a       ?_set_new_handler@@YAP6AHI@ZH@Z 1005531a f   libucrt:new_handler.obj
 0001:00054340       ?initialize@?$dual_state_global@P6AHI@Z@__crt_state_management@@QAEXQ6AHI@Z@Z 10055340 f i libucrt:new_handler.obj
 0001:0005436f       ?value@?$dual_state_global@P6AHI@Z@__crt_state_management@@QAEAAP6AHI@ZXZ 1005536f f i libucrt:new_handler.obj
 0001:00054372       ___acrt_initialize_new_handler 10055372 f   libucrt:new_handler.obj
 0001:00054384       __callnewh                 10055384 f   libucrt:new_handler.obj
 0001:000543d9       __query_new_handler        100553d9 f   libucrt:new_handler.obj
 0001:0005443f       __set_new_handler          1005543f f   libucrt:new_handler.obj
 0001:000544b7       ___pctype_func             100554b7 f   libucrt:ctype.obj
 0001:000544e6       ___pwctype_func            100554e6 f   libucrt:ctype.obj
 0001:000544ec       __iswctype_l               100554ec f   libucrt:iswctype.obj
 0001:00054505       _iswctype                  10055505 f   libucrt:iswctype.obj
 0001:0005458a       __isctype                  1005558a f   libucrt:isctype.obj
 0001:000545c8       __isctype_l                100555c8 f   libucrt:isctype.obj
 0001:000546d6       ?value@?$dual_state_global@J@__crt_state_management@@QAEAAJXZ 100556d6 f i libucrt:new_mode.obj
 0001:000546d9       __query_new_mode           100556d9 f   libucrt:new_mode.obj
 0001:000546df       __set_new_mode             100556df f   libucrt:new_mode.obj
 0001:000548c5       ___acrt_DownlevelLCIDToLocaleName 100558c5 f   libucrt:lcidtoname_downlevel.obj
 0001:00054999       ___acrt_DownlevelLocaleNameToLCID 10055999 f   libucrt:lcidtoname_downlevel.obj
 0001:00054b80       __commit                   10055b80 f   libucrt:commit.obj
 0001:00054c1e       ??$?RU__crt_lowio_handle_data@@@__crt_internal_free_policy@@QBEXQBU__crt_lowio_handle_data@@@Z 10055c1e f i libucrt:osfinfo.obj
 0001:00054c34       ??0?$__crt_unique_heap_ptr@U__crt_lowio_handle_data@@U__crt_internal_free_policy@@@@QAE@QAU__crt_lowio_handle_data@@@Z 10055c34 f i libucrt:osfinfo.obj
 0001:00054c48       ??1?$__crt_unique_heap_ptr@U__crt_lowio_handle_data@@U__crt_internal_free_policy@@@@QAE@XZ 10055c48 f i libucrt:osfinfo.obj
 0001:00054c5e       ??B?$__crt_unique_heap_ptr@U__crt_lowio_handle_data@@U__crt_internal_free_policy@@@@QBE_NXZ 10055c5e f i libucrt:osfinfo.obj
 0001:00054c65       ?detach@?$__crt_unique_heap_ptr@U__crt_lowio_handle_data@@U__crt_internal_free_policy@@@@QAEPAU__crt_lowio_handle_data@@XZ 10055c65 f i libucrt:osfinfo.obj
 0001:00054c6b       ?get@?$__crt_unique_heap_ptr@U__crt_lowio_handle_data@@U__crt_internal_free_policy@@@@QBEPAU__crt_lowio_handle_data@@XZ 10055c6b f i libucrt:osfinfo.obj
 0001:00054c6e       ?is_valid@?$__crt_unique_heap_ptr@U__crt_lowio_handle_data@@U__crt_internal_free_policy@@@@QBE_NXZ 10055c6e f i libucrt:osfinfo.obj
 0001:00054c75       ?release@?$__crt_unique_heap_ptr@U__crt_lowio_handle_data@@U__crt_internal_free_policy@@@@QAEXXZ 10055c75 f i libucrt:osfinfo.obj
 0001:00054c8b       ___acrt_lowio_create_handle_array 10055c8b f   libucrt:osfinfo.obj
 0001:00054d23       ___acrt_lowio_destroy_handle_array 10055d23 f   libucrt:osfinfo.obj
 0001:00054d65       ___acrt_lowio_ensure_fh_exists 10055d65 f   libucrt:osfinfo.obj
 0001:00054e1e       ___acrt_lowio_lock_fh      10055e1e f   libucrt:osfinfo.obj
 0001:00054e49       ___acrt_lowio_set_os_handle 10055e49 f   libucrt:osfinfo.obj
 0001:00054f02       ___acrt_lowio_unlock_fh    10055f02 f   libucrt:osfinfo.obj
 0001:00054f2d       __alloc_osfhnd             10055f2d f   libucrt:osfinfo.obj
 0001:00055078       __free_osfhnd              10056078 f   libucrt:osfinfo.obj
 0001:0005512d       __get_osfhandle            1005612d f   libucrt:osfinfo.obj
 0001:000551b1       __open_osfhandle           100561b1 f   libucrt:osfinfo.obj
 0001:00055300       ___iswcsym                 10056300 f i libucrt:_wctype.obj
 0001:0005532f       ___iswcsymf                1005632f f i libucrt:_wctype.obj
 0001:0005535e       __isleadbyte_l             1005635e f i libucrt:_wctype.obj
 0001:000553a5       __iswalnum_l               100563a5 f i libucrt:_wctype.obj
 0001:000553c0       __iswalpha_l               100563c0 f i libucrt:_wctype.obj
 0001:000553db       __iswblank_l               100563db f i libucrt:_wctype.obj
 0001:000553ff       __iswcntrl_l               100563ff f i libucrt:_wctype.obj
 0001:00055416       __iswcsym_l                10056416 f i libucrt:_wctype.obj
 0001:00055445       __iswcsymf_l               10056445 f i libucrt:_wctype.obj
 0001:00055474       __iswdigit_l               10056474 f i libucrt:_wctype.obj
 0001:0005548b       __iswgraph_l               1005648b f i libucrt:_wctype.obj
 0001:000554a6       __iswlower_l               100564a6 f i libucrt:_wctype.obj
 0001:000554bd       __iswprint_l               100564bd f i libucrt:_wctype.obj
 0001:000554d8       __iswpunct_l               100564d8 f i libucrt:_wctype.obj
 0001:000554ef       __iswspace_l               100564ef f i libucrt:_wctype.obj
 0001:00055506       __iswupper_l               10056506 f i libucrt:_wctype.obj
 0001:0005551d       __iswxdigit_l              1005651d f i libucrt:_wctype.obj
 0001:00055538       _isleadbyte                10056538 f i libucrt:_wctype.obj
 0001:0005554f       _iswalnum                  1005654f f i libucrt:_wctype.obj
 0001:0005556a       _iswalpha                  1005656a f i libucrt:_wctype.obj
 0001:00055585       _iswascii                  10056585 f i libucrt:_wctype.obj
 0001:0005559e       _iswblank                  1005659e f i libucrt:_wctype.obj
 0001:000555c2       _iswcntrl                  100565c2 f i libucrt:_wctype.obj
 0001:000555d9       _iswdigit                  100565d9 f i libucrt:_wctype.obj
 0001:000555f0       _iswgraph                  100565f0 f i libucrt:_wctype.obj
 0001:0005560b       _iswlower                  1005660b f i libucrt:_wctype.obj
 0001:00055622       _iswprint                  10056622 f i libucrt:_wctype.obj
 0001:0005563d       _iswpunct                  1005663d f i libucrt:_wctype.obj
 0001:00055654       _iswspace                  10056654 f i libucrt:_wctype.obj
 0001:0005566b       _iswupper                  1005666b f i libucrt:_wctype.obj
 0001:00055682       _iswxdigit                 10056682 f i libucrt:_wctype.obj
 0001:0005569d       ??0?$__crt_scoped_stack_ptr@_W@@QAE@U?$__crt_scoped_stack_ptr_tag@_W@@@Z 1005669d f i libucrt:lcmapstringa.obj
 0001:000556b1       ??0?$__crt_scoped_stack_ptr_tag@_W@@QAE@QA_W@Z 100566b1 f i libucrt:lcmapstringa.obj
 0001:000556c5       ??1?$__crt_scoped_stack_ptr@_W@@QAE@XZ 100566c5 f i libucrt:lcmapstringa.obj
 0001:000556d0       ??B?$__crt_scoped_stack_ptr@_W@@QBE_NXZ 100566d0 f i libucrt:lcmapstringa.obj
 0001:0005593e       ?get@?$__crt_scoped_stack_ptr@_W@@QBEPA_WXZ 1005693e f i libucrt:lcmapstringa.obj
 0001:00055941       __MallocaComputeSize       10056941 f i libucrt:lcmapstringa.obj
 0001:00055958       __MarkAllocaS              10056958 f i libucrt:lcmapstringa.obj
 0001:00055973       ___acrt_LCMapStringA       10056973 f   libucrt:lcmapstringa.obj
 0001:000559d0       __freea_crt                100569d0 f i libucrt:lcmapstringa.obj
 0001:00055a2f       ?__mbrtowc_utf8@__crt_mbstring@@YAIPA_WPBDIPAU_Mbstatet@@@Z 10056a2f f   libucrt:mbrtowc.obj
 0001:00055a81       ?__mbsrtowcs_utf8@__crt_mbstring@@YAIPA_WPAPBDIPAU_Mbstatet@@@Z 10056a81 f   libucrt:mbrtowc.obj
 0001:00055f9e       _btowc                     10056f9e f   libucrt:mbrtowc.obj
 0001:0005600e       _mbrlen                    1005700e f   libucrt:mbrtowc.obj
 0001:0005604f       _mbrtowc                   1005704f f   libucrt:mbrtowc.obj
 0001:000560b6       _mbsrtowcs                 100570b6 f   libucrt:mbrtowc.obj
 0001:000560c3       _mbsrtowcs_s               100570c3 f   libucrt:mbrtowc.obj
 0001:0005618e       ??$?RG@__crt_internal_free_policy@@QBEXQBG@Z 1005718e f i libucrt:initctype.obj
 0001:000561a4       ??$?RJ@__crt_internal_free_policy@@QBEXQBJ@Z 100571a4 f i libucrt:initctype.obj
 0001:000561ba       ??0?$__crt_unique_heap_ptr@GU__crt_internal_free_policy@@@@QAE@QAG@Z 100571ba f i libucrt:initctype.obj
 0001:000561ce       ??0?$__crt_unique_heap_ptr@JU__crt_internal_free_policy@@@@QAE@QAJ@Z 100571ce f i libucrt:initctype.obj
 0001:000561e2       ??1?$__crt_unique_heap_ptr@GU__crt_internal_free_policy@@@@QAE@XZ 100571e2 f i libucrt:initctype.obj
 0001:000561f8       ??1?$__crt_unique_heap_ptr@JU__crt_internal_free_policy@@@@QAE@XZ 100571f8 f i libucrt:initctype.obj
 0001:0005620e       ?detach@?$__crt_unique_heap_ptr@GU__crt_internal_free_policy@@@@QAEPAGXZ 1005720e f i libucrt:initctype.obj
 0001:00056214       ?detach@?$__crt_unique_heap_ptr@JU__crt_internal_free_policy@@@@QAEPAJXZ 10057214 f i libucrt:initctype.obj
 0001:0005621a       ?release@?$__crt_unique_heap_ptr@GU__crt_internal_free_policy@@@@QAEXXZ 1005721a f i libucrt:initctype.obj
 0001:00056230       ?release@?$__crt_unique_heap_ptr@JU__crt_internal_free_policy@@@@QAEXXZ 10057230 f i libucrt:initctype.obj
 0001:00056246       ____lc_codepage_func       10057246 f   libucrt:initctype.obj
 0001:00056276       ____lc_collate_cp_func     10057276 f   libucrt:initctype.obj
 0001:000562a6       ____lc_locale_name_func    100572a6 f   libucrt:initctype.obj
 0001:000562d9       ____mb_cur_max_func        100572d9 f   libucrt:initctype.obj
 0001:00056309       ____mb_cur_max_l_func      10057309 f   libucrt:initctype.obj
 0001:00056328       ___acrt_locale_initialize_ctype 10057328 f   libucrt:initctype.obj
 0001:00056869       ___acrt_add_locale_ref     10057869 f   libucrt:locale_refcounting.obj
 0001:00056905       ___acrt_free_locale        10057905 f   libucrt:locale_refcounting.obj
 0001:00056aa1       ___acrt_locale_add_lc_time_reference 10057aa1 f   libucrt:locale_refcounting.obj
 0001:00056ad4       ___acrt_locale_free_lc_time_if_unreferenced 10057ad4 f   libucrt:locale_refcounting.obj
 0001:00056b10       ___acrt_locale_release_lc_time_reference 10057b10 f   libucrt:locale_refcounting.obj
 0001:00056b43       ___acrt_release_locale_ref 10057b43 f   libucrt:locale_refcounting.obj
 0001:00056be4       ___acrt_update_thread_locale_data 10057be4 f   libucrt:locale_refcounting.obj
 0001:00056c78       __updatetlocinfoEx_nolock  10057c78 f   libucrt:locale_refcounting.obj
 0001:00056cdc       ___acrt_fp_strflt_to_string 10057cdc f   libucrt:_fptostr.obj
 0001:00058600       ??0big_integer@__crt_strtox@@QAE@ABU01@@Z 10059600 f i libucrt:cfout.obj
 0001:00058640       ??0big_integer@__crt_strtox@@QAE@XZ 10059640 f i libucrt:cfout.obj
 0001:000586a0       ??4big_integer@__crt_strtox@@QAEAAU01@ABU01@@Z 100596a0 f i libucrt:cfout.obj
 0001:000586e0       ??8__crt_strtox@@YA_NABUbig_integer@0@0@Z 100596e0 f i libucrt:cfout.obj
 0001:00058730       ??9__crt_strtox@@YA_NABUbig_integer@0@0@Z 10059730 f i libucrt:cfout.obj
 0001:00058780       ?add_carry@__crt_strtox@@YAIAAIII@Z 10059780 f i libucrt:cfout.obj
 0001:000587b0       ?add_multiply_carry@__crt_strtox@@YAIAAIIII@Z 100597b0 f i libucrt:cfout.obj
 0001:000587e0       ?bit_scan_reverse@__crt_strtox@@YAII@Z 100597e0 f i libucrt:cfout.obj
 0001:00058810       ?count_sequential_high_zeroes@__crt_strtox@@YAII@Z 10059810 f i libucrt:cfout.obj
 0001:00058840       ?divide@__crt_strtox@@YA_KAAUbig_integer@1@ABU21@@Z 10059840 f i libucrt:cfout.obj
 0001:00058df0       ?is_zero@__crt_strtox@@YA_NABUbig_integer@1@@Z 10059df0 f i libucrt:cfout.obj
 0001:00058e10       ?make_big_integer@__crt_strtox@@YA?AUbig_integer@1@_K@Z 10059e10 f i libucrt:cfout.obj
 0001:00058e40       ?make_big_integer_power_of_two@__crt_strtox@@YA?AUbig_integer@1@I@Z 10059e40 f i libucrt:cfout.obj
 0001:00058ea0       ?multiply@__crt_strtox@@YA_NAAUbig_integer@1@ABU21@@Z 10059ea0 f i libucrt:cfout.obj
 0001:000592b0       ?multiply@__crt_strtox@@YA_NAAUbig_integer@1@I@Z 1005a2b0 f i libucrt:cfout.obj
 0001:000593b0       ?multiply_64_32@__crt_strtox@@YA_K_KI@Z 1005a3b0 f i libucrt:cfout.obj
 0001:000593d0       ?multiply_by_power_of_ten@__crt_strtox@@YA_NAAUbig_integer@1@I@Z 1005a3d0 f i libucrt:cfout.obj
 0001:00059a40       ?multiply_core@__crt_strtox@@YAIQAIII@Z 1005aa40 f i libucrt:cfout.obj
 0001:00059a90       ?shift_left@__crt_strtox@@YA_NAAUbig_integer@1@I@Z 1005aa90 f i libucrt:cfout.obj
 0001:00059c3b       ___acrt_fltout             1005ac3b f   libucrt:cfout.obj
 0001:0005b526       __isatty                   1005c526 f   libucrt:isatty.obj
 0001:0005b591       ??$?RUlconv@@@__crt_internal_free_policy@@QBEXQBUlconv@@@Z 1005c591 f i libucrt:initmon.obj
 0001:0005b5a7       ??0?$__crt_unique_heap_ptr@Ulconv@@U__crt_internal_free_policy@@@@QAE@QAUlconv@@@Z 1005c5a7 f i libucrt:initmon.obj
 0001:0005b5bb       ??1?$__crt_unique_heap_ptr@Ulconv@@U__crt_internal_free_policy@@@@QAE@XZ 1005c5bb f i libucrt:initmon.obj
 0001:0005b5d1       ?detach@?$__crt_unique_heap_ptr@Ulconv@@U__crt_internal_free_policy@@@@QAEPAUlconv@@XZ 1005c5d1 f i libucrt:initmon.obj
 0001:0005b5d7       ?release@?$__crt_unique_heap_ptr@Ulconv@@U__crt_internal_free_policy@@@@QAEXXZ 1005c5d7 f i libucrt:initmon.obj
 0001:0005b5ed       ___acrt_locale_free_monetary 1005c5ed f   libucrt:initmon.obj
 0001:0005b72a       ___acrt_locale_initialize_monetary 1005c72a f   libucrt:initmon.obj
 0001:0005bc17       ___acrt_locale_free_numeric 1005cc17 f   libucrt:initnum.obj
 0001:0005bc9a       ___acrt_locale_initialize_numeric 1005cc9a f   libucrt:initnum.obj
 0001:0005bf75       ??$?RU__crt_lc_time_data@@@__crt_internal_free_policy@@QBEXQBU__crt_lc_time_data@@@Z 1005cf75 f i libucrt:inittime.obj
 0001:0005c015       ??0?$__crt_unique_heap_ptr@U__crt_lc_time_data@@U__crt_internal_free_policy@@@@QAE@QAU__crt_lc_time_data@@@Z 1005d015 f i libucrt:inittime.obj
 0001:0005c029       ??1?$__crt_unique_heap_ptr@U__crt_lc_time_data@@U__crt_internal_free_policy@@@@QAE@XZ 1005d029 f i libucrt:inittime.obj
 0001:0005c03f       ??B?$__crt_unique_heap_ptr@U__crt_lc_time_data@@U__crt_internal_free_policy@@@@QBE_NXZ 1005d03f f i libucrt:inittime.obj
 0001:0005c046       ?detach@?$__crt_unique_heap_ptr@U__crt_lc_time_data@@U__crt_internal_free_policy@@@@QAEPAU__crt_lc_time_data@@XZ 1005d046 f i libucrt:inittime.obj
 0001:0005c092       ?get@?$__crt_unique_heap_ptr@U__crt_lc_time_data@@U__crt_internal_free_policy@@@@QBEPAU__crt_lc_time_data@@XZ 1005d092 f i libucrt:inittime.obj
 0001:0005c42b       ?is_valid@?$__crt_unique_heap_ptr@U__crt_lc_time_data@@U__crt_internal_free_policy@@@@QBE_NXZ 1005d42b f i libucrt:inittime.obj
 0001:0005c432       ?release@?$__crt_unique_heap_ptr@U__crt_lc_time_data@@U__crt_internal_free_policy@@@@QAEXXZ 1005d432 f i libucrt:inittime.obj
 0001:0005c448       ___acrt_locale_free_time   1005d448 f   libucrt:inittime.obj
 0001:0005c565       ___acrt_locale_initialize_time 1005d565 f   libucrt:inittime.obj
 0001:0005c6fd       _wcsncpy_s                 1005d6fd f   libucrt:wcsncpy_s.obj
 0001:0005c70a       _wcscspn                   1005d70a f   libucrt:wcscspn.obj
 0001:0005c77b       _wcspbrk                   1005d77b f   libucrt:wcspbrk.obj
 0001:0005c7dc       __wcsicmp                  1005d7dc f   libucrt:wcsicmp.obj
 0001:0005c88d       __wcsicmp_l                1005d88d f   libucrt:wcsicmp.obj
 0001:0005c9a1       ___acrt_GetStringTypeA     1005d9a1 f   libucrt:getstringtypea.obj
 0001:0005d416       ___acrt_get_qualified_locale 1005e416 f   libucrt:get_qualified_locale.obj
 0001:0005e004       ___acrt_get_qualified_locale_downlevel 1005f004 f   libucrt:getqloc_downlevel.obj
 0001:0005e278       _localeconv                1005f278 f   libucrt:localeconv.obj
 0001:0005e2ac       __wcsnicmp                 1005f2ac f   libucrt:wcsnicmp.obj
 0001:0005e389       __wcsnicmp_l               1005f389 f   libucrt:wcsnicmp.obj
 0001:0005e4c5       __strnicmp                 1005f4c5 f   libucrt:strnicmp.obj
 0001:0005e54d       __strnicmp_l               1005f54d f   libucrt:strnicmp.obj
 0001:0005e6d6       ??$__vcrt_va_start_verify_argument_type@$$CBH@@YAXXZ 1005f6d6 f i libucrt:open.obj
 0001:0005ea47       ??$tsopen_nolock@PAHABQAHABQBDABHABHABHABH@?$__crt_char_traits@D@@SAH$$QAPAHABQAHABQBDABH333@Z 1005fa47 f i libucrt:open.obj
 0001:0005ea85       ??$tsopen_nolock@PAHABQAHABQB_WABHABHABHABH@?$__crt_char_traits@_W@@SAH$$QAPAHABQAHABQB_WABH333@Z 1005fa85 f i libucrt:open.obj
 0001:0005eac3       ??$tsopen_nolock@PAHPAHABQBDABHHABHH@?$__crt_char_traits@D@@SAH$$QAPAH0ABQBDABH$$QAH23@Z 1005fac3 f i libucrt:open.obj
 0001:0005eb01       ??$tsopen_nolock@PAHPAHABQB_WABHHABHH@?$__crt_char_traits@_W@@SAH$$QAPAH0ABQB_WABH$$QAH23@Z 1005fb01 f i libucrt:open.obj
 0001:0005f2f3       __open                     100602f3 f   libucrt:open.obj
 0001:0005f311       __sopen                    10060311 f   libucrt:open.obj
 0001:0005f353       __sopen_dispatch           10060353 f   libucrt:open.obj
 0001:0005f360       __sopen_nolock             10060360 f   libucrt:open.obj
 0001:0005f3ec       __sopen_s                  100603ec f   libucrt:open.obj
 0001:0005f414       __wopen                    10060414 f   libucrt:open.obj
 0001:0005f432       __wsopen                   10060432 f   libucrt:open.obj
 0001:0005f474       __wsopen_dispatch          10060474 f   libucrt:open.obj
 0001:0005f481       __wsopen_nolock            10060481 f   libucrt:open.obj
 0001:0005f878       __wsopen_s                 10060878 f   libucrt:open.obj
 0001:0005f8a0       ___p__commode              100608a0 f   libucrt:ncommode.obj
 0001:0005f8a6       ___acrt_stdio_allocate_buffer_nolock 100608a6 f   libucrt:_getbuf.obj
 0001:0005fa22       __putwch                   10060a22 f   libucrt:putwch.obj
 0001:0005fa5c       __putwch_nolock            10060a5c f   libucrt:putwch.obj
 0001:0005fa9d       _nextafter                 10060a9d f   libucrt:nextafter.obj
 0001:0005fcd1       __mbstowcs_l               10060cd1 f   libucrt:mbstowcs.obj
 0001:0005fcde       __mbstowcs_s_l             10060cde f   libucrt:mbstowcs.obj
 0001:0005fdf8       _mbstowcs                  10060df8 f   libucrt:mbstowcs.obj
 0001:0005fe2c       _mbstowcs_s                10060e2c f   libucrt:mbstowcs.obj
 0001:0005fe54       ___acrt_OutputDebugStringA@4 10060e54 f   libucrt:outputdebugstringa.obj
 0001:00060000       _qsort                     10061000 f   libucrt:qsort.obj
 0001:00060631       _strncpy_s                 10061631 f   libucrt:strncpy_s.obj
 0001:00060640       _strpbrk                   10061640 f   libucrt:strpbrk.obj
 0001:00060690       ??$__acrt_convert_wcs_mbs@D_W$$A6AIPA_WPBDIPAU__crt_locale_pointers@@@ZU__crt_win32_buffer_internal_dynamic_resizing@@@@YAHQBDAAV?$__crt_win32_buffer@_WU__crt_win32_buffer_internal_dynamic_resizing@@@@A6AIPA_WPBDIPAU__crt_locale_pointers@@@Z4@Z 10061690 f i libucrt:findfirstfileexa.obj
 0001:00060759       ??$__acrt_mbs_to_wcs@U__crt_win32_buffer_internal_dynamic_resizing@@@@YAHQBDAAV?$__crt_win32_buffer@_WU__crt_win32_buffer_internal_dynamic_resizing@@@@PAU__crt_locale_pointers@@@Z 10061759 f i libucrt:findfirstfileexa.obj
 0001:0006077d       ?set_to_nullptr@?$__crt_win32_buffer@_WU__crt_win32_buffer_internal_dynamic_resizing@@@@QAEXXZ 1006177d f i libucrt:findfirstfileexa.obj
 0001:00060799       ___acrt_FindFirstFileExA   10061799 f   libucrt:findfirstfileexa.obj
 0001:00060818       ??$?0$0BAE@@?$__crt_win32_buffer@DU__crt_win32_buffer_no_resizing@@@@QAE@AAY0BAE@D@Z 10061818 f i libucrt:findnextfilea.obj
 0001:00060847       ??$?0$0O@@?$__crt_win32_buffer@DU__crt_win32_buffer_no_resizing@@@@QAE@AAY0O@D@Z 10061847 f i libucrt:findnextfilea.obj
 0001:00060874       ??$__acrt_convert_wcs_mbs@_WD$$A6AIPADPB_WIPAU__crt_locale_pointers@@@ZU__crt_win32_buffer_no_resizing@@@@YAHQB_WAAV?$__crt_win32_buffer@DU__crt_win32_buffer_no_resizing@@@@A6AIPADPB_WIPAU__crt_locale_pointers@@@Z4@Z 10061874 f i libucrt:findnextfilea.obj
 0001:0006093e       ??$__acrt_wcs_to_mbs@U__crt_win32_buffer_no_resizing@@@@YAHQB_WAAV?$__crt_win32_buffer@DU__crt_win32_buffer_no_resizing@@@@PAU__crt_locale_pointers@@@Z 1006193e f i libucrt:findnextfilea.obj
 0001:00060962       ??1?$__crt_win32_buffer@DU__crt_win32_buffer_no_resizing@@@@QAE@XZ 10061962 f i libucrt:findnextfilea.obj
 0001:0006096f       ?_deallocate@?$__crt_win32_buffer@DU__crt_win32_buffer_no_resizing@@@@AAEXXZ 1006196f f i libucrt:findnextfilea.obj
 0001:0006097c       ?allocate@?$__crt_win32_buffer@DU__crt_win32_buffer_no_resizing@@@@QAEHI@Z 1006197c f i libucrt:findnextfilea.obj
 0001:000609ac       ?allocate@__crt_win32_buffer_no_resizing@@SAHQAPAXIABV__crt_win32_buffer_empty_debug_info@@@Z 100619ac f i libucrt:findnextfilea.obj
 0001:000609bc       ?capacity@?$__crt_win32_buffer@DU__crt_win32_buffer_no_resizing@@@@QBEIXZ 100619bc f i libucrt:findnextfilea.obj
 0001:000609c0       ?data@?$__crt_win32_buffer@DU__crt_win32_buffer_no_resizing@@@@QAEPADXZ 100619c0 f i libucrt:findnextfilea.obj
 0001:000609c4       ?deallocate@__crt_win32_buffer_no_resizing@@SAXQAXABV__crt_win32_buffer_empty_debug_info@@@Z 100619c4 f i libucrt:findnextfilea.obj
 0001:000609c5       ?debug_info@?$__crt_win32_buffer@DU__crt_win32_buffer_no_resizing@@@@QBEABV__crt_win32_buffer_empty_debug_info@@XZ 100619c5 f i libucrt:findnextfilea.obj
 0001:000609c8       ?set_to_nullptr@?$__crt_win32_buffer@DU__crt_win32_buffer_no_resizing@@@@QAEXXZ 100619c8 f i libucrt:findnextfilea.obj
 0001:000609e1       ?size@?$__crt_win32_buffer@DU__crt_win32_buffer_no_resizing@@@@QAEXI@Z 100619e1 f i libucrt:findnextfilea.obj
 0001:000609f3       ___acrt_FindNextFileA      100619f3 f   libucrt:findnextfilea.obj
 0001:00060b84       __mbsdec                   10061b84 f   libucrt:mbsdec.obj
 0001:00060ba0       __mbsdec_l                 10061ba0 f   libucrt:mbsdec.obj
 0001:00060c64       __wcsnicoll                10061c64 f   libucrt:wcsnicol.obj
 0001:00060d5c       __wcsnicoll_l              10061d5c f   libucrt:wcsnicol.obj
 0001:00060ec1       __strnicoll                10061ec1 f   libucrt:strnicol.obj
 0001:00060ef4       __strnicoll_l              10061ef4 f   libucrt:strnicol.obj
 0001:00060ff0       ___acrt_SetEnvironmentVariableA 10061ff0 f   libucrt:setenvironmentvariablea.obj
 0001:000610bf       __msize                    100620bf f   libucrt:msize.obj
 0001:000610cc       __msize_base               100620cc f   libucrt:msize.obj
 0001:0006110b       ___acrt_GetStringTypeW     1006210b f   libucrt:getstringtypew.obj
 0001:0006112a       ___strncnt                 1006212a f   libucrt:strncnt.obj
 0001:0006114d       ?__mbrtoc32_utf8@__crt_mbstring@@YAIPA_UPBDIPAU_Mbstatet@@@Z 1006214d f   libucrt:mbrtoc32.obj
 0001:0006136e       ?reset_and_return@__crt_mbstring@@YAIIPAU_Mbstatet@@@Z 1006236e f i libucrt:mbrtoc32.obj
 0001:00061387       ?return_illegal_sequence@__crt_mbstring@@YAIPAU_Mbstatet@@@Z 10062387 f i libucrt:mbrtoc32.obj
 0001:000613ad       _mbrtoc32                  100623ad f   libucrt:mbrtoc32.obj
 0001:000614d3       ___acrt_GetLocaleInfoA     100624d3 f   libucrt:getlocaleinfoa.obj
 0001:000616f1       _fegetenv                  100626f1 f   libucrt:fegetenv.obj
 0001:00061715       _fesetenv                  10062715 f   libucrt:fesetenv.obj
 0001:00061775       _feholdexcept              10062775 f   libucrt:feholdexcept.obj
 0001:000617e0       __CIlog10                  100627e0 f   libucrt:log10_impl.obj
 0001:0006181b       __CIlog10_default          1006281b f   libucrt:log10_impl.obj
 0001:0006182f       __log10_default            1006282f     libucrt:log10_impl.obj
 0001:00061940       _ceil                      10062940 f   libucrt:ceil_pentium4.obj
 0001:00061980       __ceil_pentium4            10062980 f   libucrt:ceil_pentium4.obj
 0001:00061aa4       __towlower_l               10062aa4 f   libucrt:towlower.obj
 0001:00061b9f       _towlower                  10062b9f f   libucrt:towlower.obj
 0001:00061bc0       ___ascii_strnicmp          10062bc0 f   libucrt:_strnicm.obj
 0001:00061c39       ??$__crt_interlocked_read@H@@YAHPDH@Z 10062c39 f i libucrt:setmode.obj
 0001:00061c48       ?value@?$dual_state_global@H@__crt_state_management@@QAEAAHXZ 10062c48 f i libucrt:setmode.obj
 0001:00061c4b       __get_fmode                10062c4b f   libucrt:setmode.obj
 0001:00061c82       __set_fmode                10062c82 f   libucrt:setmode.obj
 0001:00061cce       __setmode                  10062cce f   libucrt:setmode.obj
 0001:00061e16       __setmode_nolock           10062e16 f   libucrt:setmode.obj
 0001:000620a7       __chsize                   100630a7 f   libucrt:chsize.obj
 0001:000620ca       __chsize_nolock            100630ca f   libucrt:chsize.obj
 0001:000622bf       __chsize_s                 100632bf f   libucrt:chsize.obj
 0001:00062397       __umask                    10063397 f   libucrt:umask.obj
 0001:000623c5       __umask_s                  100633c5 f   libucrt:umask.obj
 0001:000624e8       ___dcrt_lowio_ensure_console_output_initialized 100634e8 f   libucrt:initcon.obj
 0001:0006250e       ___dcrt_terminate_console_output 1006350e f   libucrt:initcon.obj
 0001:0006252a       ___dcrt_write_console      1006352a f   libucrt:initcon.obj
 0001:00062594       _nexttoward                10063594 f   libucrt:nexttoward.obj
 0001:00062adc       __wcstombs_l               10063adc f   libucrt:wcstombs.obj
 0001:00062ae9       __wcstombs_s_l             10063ae9 f   libucrt:wcstombs.obj
 0001:00062be9       _wcstombs                  10063be9 f   libucrt:wcstombs.obj
 0001:00062c09       _wcstombs_s                10063c09 f   libucrt:wcstombs.obj
 0001:00062c31       ___acrt_CompareStringW     10063c31 f   libucrt:comparestringw.obj
 0001:00062fc8       ___acrt_CompareStringA     10063fc8 f   libucrt:comparestringa.obj
 0001:00063022       ??$__acrt_fenv_shift_bits@W4__acrt_fenv_abstract_control@@@@YA?AW4__acrt_fenv_abstract_control@@W40@0I@Z 10064022 f i libucrt:_fenvutils.obj
 0001:00063038       ??$__acrt_fenv_shift_bits@W4__acrt_fenv_abstract_status@@@@YA?AW4__acrt_fenv_abstract_status@@W40@0I@Z 10064038 f i libucrt:_fenvutils.obj
 0001:0006304e       ??$__acrt_fenv_translate_bit@W4__acrt_fenv_abstract_control@@W4__acrt_fenv_machine_sse_control@@@@YA?AW4__acrt_fenv_abstract_control@@W4__acrt_fenv_machine_sse_control@@0W40@1@Z 1006404e f i libucrt:_fenvutils.obj
 0001:0006306c       ??$__acrt_fenv_translate_bit@W4__acrt_fenv_abstract_control@@W4__acrt_fenv_machine_x87_control@@@@YA?AW4__acrt_fenv_abstract_control@@W4__acrt_fenv_machine_x87_control@@0W40@1@Z 1006406c f i libucrt:_fenvutils.obj
 0001:0006308a       ??$__acrt_fenv_translate_bit@W4__acrt_fenv_abstract_status@@W4__acrt_fenv_machine_sse_status@@@@YA?AW4__acrt_fenv_abstract_status@@W4__acrt_fenv_machine_sse_status@@0W40@1@Z 1006408a f i libucrt:_fenvutils.obj
 0001:000630a4       ??$__acrt_fenv_translate_bit@W4__acrt_fenv_abstract_status@@W4__acrt_fenv_machine_x87_status@@@@YA?AW4__acrt_fenv_abstract_status@@W4__acrt_fenv_machine_x87_status@@0W40@1@Z 100640a4 f i libucrt:_fenvutils.obj
 0001:000630be       ??$__acrt_fenv_translate_bit@W4__acrt_fenv_machine_sse_control@@W4__acrt_fenv_abstract_control@@@@YA?AW4__acrt_fenv_machine_sse_control@@W4__acrt_fenv_abstract_control@@0W40@1@Z 100640be f i libucrt:_fenvutils.obj
 0001:000630da       ??$__acrt_fenv_translate_bit@W4__acrt_fenv_machine_sse_status@@W4__acrt_fenv_abstract_status@@@@YA?AW4__acrt_fenv_machine_sse_status@@W4__acrt_fenv_abstract_status@@0W40@1@Z 100640da f i libucrt:_fenvutils.obj
 0001:000630f4       ??$__acrt_fenv_translate_bit@W4__acrt_fenv_machine_x87_control@@W4__acrt_fenv_abstract_control@@@@YA?AW4__acrt_fenv_machine_x87_control@@W4__acrt_fenv_abstract_control@@0W40@1@Z 100640f4 f i libucrt:_fenvutils.obj
 0001:00063110       ??$__acrt_fenv_translate_bit@W4__acrt_fenv_machine_x87_status@@W4__acrt_fenv_abstract_status@@@@YA?AW4__acrt_fenv_machine_x87_status@@W4__acrt_fenv_abstract_status@@0W40@1@Z 10064110 f i libucrt:_fenvutils.obj
 0001:0006312a       ??$__acrt_fenv_unshift_bits@W4__acrt_fenv_abstract_control@@@@YA?AW4__acrt_fenv_abstract_control@@W40@0I@Z 1006412a f i libucrt:_fenvutils.obj
 0001:00063140       ??$__acrt_fenv_unshift_bits@W4__acrt_fenv_abstract_status@@@@YA?AW4__acrt_fenv_abstract_status@@W40@0I@Z 10064140 f i libucrt:_fenvutils.obj
 0001:0006376b       ??I@YA?AW4__acrt_fenv_abstract_control@@W40@0@Z 1006476b f i libucrt:_fenvutils.obj
 0001:0006377b       ??I@YA?AW4__acrt_fenv_abstract_status@@W40@0@Z 1006477b f i libucrt:_fenvutils.obj
 0001:0006378b       ??I@YA?AW4__acrt_fenv_machine_sse_control@@W40@0@Z 1006478b f i libucrt:_fenvutils.obj
 0001:0006379b       ??I@YA?AW4__acrt_fenv_machine_sse_status@@W40@0@Z 1006479b f i libucrt:_fenvutils.obj
 0001:000637ab       ??I@YA?AW4__acrt_fenv_machine_x87_control@@W40@0@Z 100647ab f i libucrt:_fenvutils.obj
 0001:000637bb       ??I@YA?AW4__acrt_fenv_machine_x87_status@@W40@0@Z 100647bb f i libucrt:_fenvutils.obj
 0001:000637cb       ??U@YA?AW4__acrt_fenv_abstract_control@@W40@0@Z 100647cb f i libucrt:_fenvutils.obj
 0001:000637db       ??U@YA?AW4__acrt_fenv_abstract_status@@W40@0@Z 100647db f i libucrt:_fenvutils.obj
 0001:000637eb       ??U@YA?AW4__acrt_fenv_machine_sse_control@@W40@0@Z 100647eb f i libucrt:_fenvutils.obj
 0001:000637fb       ??U@YA?AW4__acrt_fenv_machine_x87_control@@W40@0@Z 100647fb f i libucrt:_fenvutils.obj
 0001:0006380b       ??_5@YAAAW4__acrt_fenv_abstract_control@@AAW40@W40@@Z 1006480b f i libucrt:_fenvutils.obj
 0001:0006381d       ??_5@YAAAW4__acrt_fenv_abstract_status@@AAW40@W40@@Z 1006481d f i libucrt:_fenvutils.obj
 0001:0006382f       ??_5@YAAAW4__acrt_fenv_machine_sse_control@@AAW40@W40@@Z 1006482f f i libucrt:_fenvutils.obj
 0001:00063844       ??_5@YAAAW4__acrt_fenv_machine_sse_status@@AAW40@W40@@Z 10064844 f i libucrt:_fenvutils.obj
 0001:00063856       ??_5@YAAAW4__acrt_fenv_machine_x87_control@@AAW40@W40@@Z 10064856 f i libucrt:_fenvutils.obj
 0001:0006386b       ??_5@YAAAW4__acrt_fenv_machine_x87_status@@AAW40@W40@@Z 1006486b f i libucrt:_fenvutils.obj
 0001:0006387d       ?__acrt_fenv_shift_abstract_sse_control@@YA?AW4__acrt_fenv_abstract_control@@W41@@Z 1006487d f i libucrt:_fenvutils.obj
 0001:000638a1       ?__acrt_fenv_shift_abstract_sse_status@@YA?AW4__acrt_fenv_abstract_status@@W41@@Z 100648a1 f i libucrt:_fenvutils.obj
 0001:000638b5       ?__acrt_fenv_shift_abstract_x87_control@@YA?AW4__acrt_fenv_abstract_control@@W41@@Z 100648b5 f i libucrt:_fenvutils.obj
 0001:000638d9       ?__acrt_fenv_shift_abstract_x87_status@@YA?AW4__acrt_fenv_abstract_status@@W41@@Z 100648d9 f i libucrt:_fenvutils.obj
 0001:000638ed       ?__acrt_fenv_unshift_abstract_sse_control@@YA?AW4__acrt_fenv_abstract_control@@W41@@Z 100648ed f i libucrt:_fenvutils.obj
 0001:00063913       ?__acrt_fenv_unshift_abstract_sse_status@@YA?AW4__acrt_fenv_abstract_status@@W41@@Z 10064913 f i libucrt:_fenvutils.obj
 0001:00063927       ?__acrt_fenv_unshift_abstract_x87_control@@YA?AW4__acrt_fenv_abstract_control@@W41@@Z 10064927 f i libucrt:_fenvutils.obj
 0001:0006394d       ?__acrt_fenv_unshift_abstract_x87_status@@YA?AW4__acrt_fenv_abstract_status@@W41@@Z 1006494d f i libucrt:_fenvutils.obj
 0001:00064004       ___acrt_fenv_expand_round_control 10065004 f   libucrt:_fenvutils.obj
 0001:00064047       ___acrt_fenv_get_common_round_control 10065047 f   libucrt:_fenvutils.obj
 0001:00064071       ___acrt_fenv_get_control   10065071 f   libucrt:_fenvutils.obj
 0001:00064113       ___acrt_fenv_get_fp_status_word_from_exception_mask 10065113 f   libucrt:_fenvutils.obj
 0001:00064133       ___acrt_fenv_get_status    10065133 f   libucrt:_fenvutils.obj
 0001:00064225       ___acrt_fenv_set_control   10065225 f   libucrt:_fenvutils.obj
 0001:000642a9       ___acrt_fenv_set_status    100652a9 f   libucrt:_fenvutils.obj
 0001:00064575       ___control87_2             10065575 f   libucrt:ieee87.obj
 0001:00064b41       ___fpreset_sse2            10065b41 f   libucrt:ieee87.obj
 0001:00064d8a       __clearfp                  10065d8a f   libucrt:ieee87.obj
 0001:00064ea2       __control87                10065ea2 f   libucrt:ieee87.obj
 0001:00065260       __controlfp                10066260 f   libucrt:ieee87.obj
 0001:00065280       __fpreset                  10066280 f   libucrt:ieee87.obj
 0001:00065383       __set_controlfp            10066383 f   libucrt:ieee87.obj
 0001:00065419       __statusfp                 10066419 f   libucrt:ieee87.obj
 0001:000654dd       __statusfp2                100664dd f   libucrt:ieee87.obj
 0001:0006555b       ___acrt_initialize_sse2    1006655b f   libucrt:mathfcns.obj
 0001:0006556f       __set_SSE2_enable          1006656f f   libucrt:mathfcns.obj
 0001:000655a0       __CIlog10_pentium4         100665a0 f   libucrt:log10_pentium4.obj
 0001:000655b8       __log10_pentium4           100665b8     libucrt:log10_pentium4.obj
 0001:00065900       __fFEXP                    10066900 f   libucrt:87tran.obj
 0001:00065957       __rtinfpopse               10066957     libucrt:87tran.obj
 0001:00065959       __rtinfnpopse              10066959     libucrt:87tran.obj
 0001:00065969       __fFLN                     10066969     libucrt:87tran.obj
 0001:00065a1e       __rtinfpop                 10066a1e     libucrt:87tran.obj
 0001:00065a20       __rtinfnpop                10066a20     libucrt:87tran.obj
 0001:00065a30       __rtforexpinf              10066a30 f   libucrt:87tran.obj
 0001:00065a3d       __ffexpm1                  10066a3d     libucrt:87tran.obj
 0001:00065b70       __trandisp1                10066b70 f   libucrt:87disp.obj
 0001:00065be5       __trandisp2                10066be5 f   libucrt:87disp.obj
 0001:00065c7f       __rttospopde               10066c7f     libucrt:87disp.obj
 0001:00065c84       __rttospop                 10066c84     libucrt:87disp.obj
 0001:00065c90       __rtnospop                 10066c90 f   libucrt:87disp.obj
 0001:00065ca0       __rttosnpop                10066ca0 f   libucrt:87disp.obj
 0001:00065ca1       __rtnospopde               10066ca1     libucrt:87disp.obj
 0001:00065ca8       __rtzeropop                10066ca8     libucrt:87disp.obj
 0001:00065caa       __rtzeronpop               10066caa     libucrt:87disp.obj
 0001:00065cb0       __rtzerospop               10066cb0 f   libucrt:87disp.obj
 0001:00065cbd       __rtonepop                 10066cbd     libucrt:87disp.obj
 0001:00065cc0       __rtonenpop                10066cc0 f   libucrt:87disp.obj
 0001:00065cd0       __tosnan1                  10066cd0 f   libucrt:87disp.obj
 0001:00065d00       __nosnan2                  10066d00 f   libucrt:87disp.obj
 0001:00065d10       __tosnan2                  10066d10 f   libucrt:87disp.obj
 0001:00065d40       __nan2                     10066d40 f   libucrt:87disp.obj
 0001:00065d80       __rtindfpop                10066d80 f   libucrt:87disp.obj
 0001:00065d82       __rtindfnpop               10066d82     libucrt:87disp.obj
 0001:00065d93       __rttosnpopde              10066d93     libucrt:87disp.obj
 0001:00065da0       __rtatan2inf               10066da0 f   libucrt:87disp.obj
 0001:00065dbd       __rtchsifneg               10066dbd     libucrt:87disp.obj
 0001:00065e59       ___setfflag                10066e59 f   libucrt:fp_flags.obj
 0001:00065e80       __twoToTOS                 10066e80 f   libucrt:common.obj
 0001:00065e95       __load_CW                  10066e95 f   libucrt:common.obj
 0001:00065eac       __convertTOStoQNaN         10066eac f   libucrt:common.obj
 0001:00065ec5       __fload_withFB             10066ec5 f   libucrt:common.obj
 0001:00065f08       __checkTOS_withFB          10066f08 f   libucrt:common.obj
 0001:00065f1e       __fast_exit                10066f1e f   libucrt:common.obj
 0001:00065f2b       __math_exit                10066f2b f   libucrt:common.obj
 0001:00065f55       __check_overflow_exit      10066f55 f   libucrt:common.obj
 0001:00065f69       __check_range_exit         10066f69 f   libucrt:common.obj
 0001:00066070       __startTwoArgErrorHandling 10067070 f   libucrt:genexcep.obj
 0001:00066087       __startOneArgErrorHandling 10067087 f   libucrt:genexcep.obj
 0001:000660d7       ___libm_error_support      100670d7 f   libucrt:libm_error.obj
 0001:00066375       ___libm_setusermatherr     10067375 f   libucrt:libm_error.obj
 0001:000663a5       __ceil_default             100673a5 f   libucrt:ceil.obj
 0001:0006648c       ___acrt_LCMapStringW       1006748c f   libucrt:lcmapstringw.obj
 0001:000664d9       ___p__fmode                100674d9 f   libucrt:txtmode.obj
 0001:00066575       __d_int                    10067575 f   libucrt:_test.obj
 0001:000666bf       __dtest                    100676bf f   libucrt:_test.obj
 0001:0006673c       __fd_int                   1006773c f   libucrt:_test.obj
 0001:0006683e       __fdtest                   1006783e f   libucrt:_test.obj
 0001:0006689f       __fperrraise               1006789f f   libucrt:_test.obj
 0001:000668ca       __ld_int                   100678ca f   libucrt:_test.obj
 0001:000668d7       __ldtest                   100678d7 f   libucrt:_test.obj
 0001:000668e4       ?__wcsrtombs_utf8@__crt_mbstring@@YAIPADPAPB_WIPAU_Mbstatet@@@Z 100678e4 f   libucrt:wcrtomb.obj
 0001:00066d8e       _wcrtomb                   10067d8e f   libucrt:wcrtomb.obj
 0001:00066dcb       _wcrtomb_s                 10067dcb f   libucrt:wcrtomb.obj
 0001:00066e62       _wcsrtombs                 10067e62 f   libucrt:wcrtomb.obj
 0001:00066e6f       _wcsrtombs_s               10067e6f f   libucrt:wcrtomb.obj
 0001:00066f2e       _wctob                     10067f2e f   libucrt:wcrtomb.obj
 0001:00066fa2       __controlfp_s              10067fa2 f   libucrt:contrlfp.obj
 0001:00067018       __d_inttype                10068018 f   libucrt:powhlp.obj
 0001:0006709c       __powhlp                   1006809c f   libucrt:powhlp.obj
 0001:00067211       __87except                 10068211 f   libucrt:87except.obj
 0001:0006735d       __frnd                     1006835d f   libucrt:frnd.obj
 0001:00067378       ??_4@YAAAW4__acrt_fenv_abstract_status@@AAW40@W40@@Z 10068378 f i libucrt:fegetexceptflag.obj
 0001:0006738a       _fegetexceptflag           1006838a f   libucrt:fegetexceptflag.obj
 0001:000673c7       ??S@YA?AW4__acrt_fenv_abstract_status@@W40@@Z 100683c7 f i libucrt:fesetexceptflag.obj
 0001:000673d6       _fesetexceptflag           100683d6 f   libucrt:fesetexceptflag.obj
 0001:00067445       ?__c16rtomb_utf8@__crt_mbstring@@YAIPAD_SPAU_Mbstatet@@@Z 10068445 f   libucrt:c16rtomb.obj
 0001:0006759d       _c16rtomb                  1006859d f   libucrt:c16rtomb.obj
 0001:000675aa       _fetestexcept              100685aa f   libucrt:fetestexcept.obj
 0001:000675d4       ?__c32rtomb_utf8@__crt_mbstring@@YAIPAD_UPAU_Mbstatet@@@Z 100685d4 f   libucrt:c32rtomb.obj
 0001:000676ae       _c32rtomb                  100686ae f   libucrt:c32rtomb.obj
 0001:000676c0       __FindPESection            100686c0 f   LIBCMT:pesect.obj
 0001:00067720       __IsNonwritableInCurrentImage 10068720 f   LIBCMT:pesect.obj
 0001:00067810       __ValidateImageBase        10068810 f   LIBCMT:pesect.obj
 0001:0006784f       __EH_epilog3               1006884f f   LIBCMT:ehprolg3.obj
 0001:00067869       __EH_epilog3_GS            10068869 f   LIBCMT:ehprolg3.obj
 0001:0006787e       __EH_epilog3_catch_GS      1006887e f   LIBCMT:ehprolg3.obj
 0001:00067893       __EH_prolog3               10068893 f   LIBCMT:ehprolg3.obj
 0001:000678d4       __EH_prolog3_GS            100688d4 f   LIBCMT:ehprolg3.obj
 0001:00067918       __EH_prolog3_catch         10068918 f   LIBCMT:ehprolg3.obj
 0001:0006795c       __EH_prolog3_catch_GS      1006895c f   LIBCMT:ehprolg3.obj
 0001:000679b0       __aulldvrm                 100689b0 f   LIBCMT:ulldvrm.obj
 0001:00067a6a       ??1type_info@@UAE@XZ       10068a6a f   LIBCMT:std_type_info_static.obj
 0001:00067a71       ??_Etype_info@@UAEPAXI@Z   10068a71 f i LIBCMT:std_type_info_static.obj
 0001:00067a71       ??_Gtype_info@@UAEPAXI@Z   10068a71 f i LIBCMT:std_type_info_static.obj
 0001:00067a9c       ??3@YAXPAXI@Z              10068a9c f   LIBCMT:delete_scalar_size.obj
 0001:00067ab0       __SEH_prolog4_GS           10068ab0 f   LIBCMT:_sehprolg4gs_.obj
 0001:00067af9       __SEH_epilog4_GS           10068af9 f   LIBCMT:_sehprolg4gs_.obj
 0001:00067b20       __allmul                   10068b20 f   LIBCMT:llmul.obj
 0001:00067b70       __alldvrm                  10068b70 f   LIBCMT:lldvrm.obj
 0001:00067c90       __aullshr                  10068c90 f   LIBCMT:ullshr.obj
 0001:00067cc0       __chkstk                   10068cc0 f   LIBCMT:chkstk.obj
 0001:00067cc0       __alloca_probe             10068cc0 f   LIBCMT:chkstk.obj
 0001:00067d00       __alloca_probe_16          10068d00 f   LIBCMT:alloca16.obj
 0001:00067d16       __alloca_probe_8           10068d16     LIBCMT:alloca16.obj
 0001:00067d40       __allshl                   10068d40 f   LIBCMT:llshl.obj
 0001:00067d70       __ftol2_sse                10068d70 f   LIBCMT:_ftol2_.obj
 0001:00067d79       __ftol2_pentium4           10068d79 f   LIBCMT:_ftol2_.obj
 0001:00067d8c       __ftol2_sse_excpt          10068d8c f   LIBCMT:_ftol2_.obj
 0001:00067db0       __ftol2                    10068db0 f   LIBCMT:_ftol2_.obj
 0001:00067e52       __initialize_default_precision 10068e52 f   LIBCMT:default_precision.obj
 0001:00067e7b       ??3@YAXPAX@Z               10068e7b f   LIBCMT:delete_scalar.obj
 0001:00067e80       _InterlockedPushEntrySList@8 10068e80 f   kernel32:KERNEL32.dll
 0001:00067e86       _InterlockedFlushSList@4   10068e86 f   kernel32:KERNEL32.dll
 0001:00067e8c       _RtlUnwind@16              10068e8c f   kernel32:KERNEL32.dll
 0001:00067e92       _GetLastError@0            10068e92 f   kernel32:KERNEL32.dll
 0001:00067e98       _SetLastError@4            10068e98 f   kernel32:KERNEL32.dll
 0001:00067e9e       _EnterCriticalSection@4    10068e9e f   kernel32:KERNEL32.dll
 0001:00067ea4       _LeaveCriticalSection@4    10068ea4 f   kernel32:KERNEL32.dll
 0001:00067eaa       _DeleteCriticalSection@4   10068eaa f   kernel32:KERNEL32.dll
 0001:00067eb0       _InitializeCriticalSectionAndSpinCount@8 10068eb0 f   kernel32:KERNEL32.dll
 0001:00067eb6       _TlsAlloc@0                10068eb6 f   kernel32:KERNEL32.dll
 0001:00067ebc       _TlsGetValue@4             10068ebc f   kernel32:KERNEL32.dll
 0001:00067ec2       _TlsSetValue@8             10068ec2 f   kernel32:KERNEL32.dll
 0001:00067ec8       _TlsFree@4                 10068ec8 f   kernel32:KERNEL32.dll
 0001:00067ece       _FreeLibrary@4             10068ece f   kernel32:KERNEL32.dll
 0001:00067ed4       _LoadLibraryExW@12         10068ed4 f   kernel32:KERNEL32.dll
 0001:00067eda       _EncodePointer@4           10068eda f   kernel32:KERNEL32.dll
 0001:00067ee0       _RaiseException@16         10068ee0 f   kernel32:KERNEL32.dll
 0001:00067ee6       _ExitProcess@4             10068ee6 f   kernel32:KERNEL32.dll
 0001:00067eec       _GetModuleHandleExW@12     10068eec f   kernel32:KERNEL32.dll
 0001:00067ef2       _GetStdHandle@4            10068ef2 f   kernel32:KERNEL32.dll
 0001:00067ef8       _GetFileType@4             10068ef8 f   kernel32:KERNEL32.dll
 0001:00067efe       _GetModuleFileNameW@12     10068efe f   kernel32:KERNEL32.dll
 0001:00067f04       _WriteConsoleW@20          10068f04 f   kernel32:KERNEL32.dll
 0001:00067f0a       _HeapAlloc@12              10068f0a f   kernel32:KERNEL32.dll
 0001:00067f10       _HeapFree@12               10068f10 f   kernel32:KERNEL32.dll
 0001:00067f16       _GetDateFormatW@24         10068f16 f   kernel32:KERNEL32.dll
 0001:00067f1c       _GetTimeFormatW@24         10068f1c f   kernel32:KERNEL32.dll
 0001:00067f22       _CompareStringW@24         10068f22 f   kernel32:KERNEL32.dll
 0001:00067f28       _LCMapStringW@24           10068f28 f   kernel32:KERNEL32.dll
 0001:00067f2e       _GetLocaleInfoW@16         10068f2e f   kernel32:KERNEL32.dll
 0001:00067f34       _IsValidLocale@8           10068f34 f   kernel32:KERNEL32.dll
 0001:00067f3a       _GetUserDefaultLCID@0      10068f3a f   kernel32:KERNEL32.dll
 0001:00067f40       _EnumSystemLocalesW@8      10068f40 f   kernel32:KERNEL32.dll
 0001:00067f46       _GetCurrentThread@0        10068f46 f   kernel32:KERNEL32.dll
 0001:00067f4c       _HeapReAlloc@16            10068f4c f   kernel32:KERNEL32.dll
 0001:00067f52       _CloseHandle@4             10068f52 f   kernel32:KERNEL32.dll
 0001:00067f58       _ReadFile@20               10068f58 f   kernel32:KERNEL32.dll
 0001:00067f5e       _GetConsoleMode@8          10068f5e f   kernel32:KERNEL32.dll
 0001:00067f64       _ReadConsoleW@20           10068f64 f   kernel32:KERNEL32.dll
 0001:00067f6a       _WriteFile@20              10068f6a f   kernel32:KERNEL32.dll
 0001:00067f70       _GetConsoleCP@0            10068f70 f   kernel32:KERNEL32.dll
 0001:00067f76       _MultiByteToWideChar@24    10068f76 f   kernel32:KERNEL32.dll
 0001:00067f7c       _DeleteFileW@4             10068f7c f   kernel32:KERNEL32.dll
 0001:00067f82       _SetFilePointerEx@20       10068f82 f   kernel32:KERNEL32.dll
 0001:00067f88       _OutputDebugStringW@4      10068f88 f   kernel32:KERNEL32.dll
 0001:00067f8e       _SetConsoleCtrlHandler@8   10068f8e f   kernel32:KERNEL32.dll
 0001:00067f94       _FindClose@4               10068f94 f   kernel32:KERNEL32.dll
 0001:00067f9a       _FindFirstFileExW@24       10068f9a f   kernel32:KERNEL32.dll
 0001:00067fa0       _FindNextFileW@8           10068fa0 f   kernel32:KERNEL32.dll
 0001:00067fa6       _IsValidCodePage@4         10068fa6 f   kernel32:KERNEL32.dll
 0001:00067fac       _GetACP@0                  10068fac f   kernel32:KERNEL32.dll
 0001:00067fb2       _GetOEMCP@0                10068fb2 f   kernel32:KERNEL32.dll
 0001:00067fb8       _GetCPInfo@8               10068fb8 f   kernel32:KERNEL32.dll
 0001:00067fbe       _GetCommandLineA@0         10068fbe f   kernel32:KERNEL32.dll
 0001:00067fc4       _GetCommandLineW@0         10068fc4 f   kernel32:KERNEL32.dll
 0001:00067fca       _WideCharToMultiByte@32    10068fca f   kernel32:KERNEL32.dll
 0001:00067fd0       _GetEnvironmentStringsW@0  10068fd0 f   kernel32:KERNEL32.dll
 0001:00067fd6       _FreeEnvironmentStringsW@4 10068fd6 f   kernel32:KERNEL32.dll
 0001:00067fdc       _SetEnvironmentVariableW@8 10068fdc f   kernel32:KERNEL32.dll
 0001:00067fe2       _GetProcessHeap@0          10068fe2 f   kernel32:KERNEL32.dll
 0001:00067fe8       _FlushFileBuffers@4        10068fe8 f   kernel32:KERNEL32.dll
 0001:00067fee       _SetStdHandle@8            10068fee f   kernel32:KERNEL32.dll
 0001:00067ff4       _GetStringTypeW@16         10068ff4 f   kernel32:KERNEL32.dll
 0001:00067ffa       _CreateFileW@28            10068ffa f   kernel32:KERNEL32.dll
 0001:00068000       _HeapSize@12               10069000 f   kernel32:KERNEL32.dll
 0001:00068006       _SetEndOfFile@4            10069006 f   kernel32:KERNEL32.dll
 0001:0006800c       _DecodePointer@4           1006900c f   kernel32:KERNEL32.dll
 0001:00068020       _strrchr                   10069020 f   libvcruntime:strrchr.obj
 0001:0006835c       _memcmp                    1006935c f   libvcruntime:_memcmp_.obj
 0001:0006ca42       _wcschr                    1006da42 f   libvcruntime:wcschr.obj
 0002:00000000       ___xc_a                    10072000     LIBCMT:initializers.obj
 0002:00000104       ___xc_z                    10072104     LIBCMT:initializers.obj
 0002:00000208       ___xi_a                    10072208     LIBCMT:initializers.obj
 0002:0000030c       ___acrt_stdio_initializer  1007230c     libucrt:stdio_initializer.obj
 0002:00000310       ___acrt_multibyte_initializer 10072310     libucrt:multibyte_initializer.obj
 0002:00000314       ___acrt_tran_sse2_initializer 10072314     libucrt:sse2_initializer.obj
 0002:0000041c       ___xi_z                    1007241c     LIBCMT:initializers.obj
 0002:00000520       ___xp_a                    10072520     LIBCMT:initializers.obj
 0002:00000624       ___acrt_locale_terminator  10072624     libucrt:locale_initializer.obj
 0002:00000628       ___dcrt_console_output_terminator 10072628     libucrt:console_output_initializer.obj
 0002:00000730       ___acrt_stdio_terminator   10072730     libucrt:stdio_initializer.obj
 0002:00000834       ___xp_z                    10072834     LIBCMT:initializers.obj
 0002:00000938       ___xt_a                    10072938     LIBCMT:initializers.obj
 0002:00000a3c       ___xt_z                    10072a3c     LIBCMT:initializers.obj
 0002:00000b40       _speed_controllerDec10_RGND 10072b40     speed_controllerDec10.obj
 0002:00000b48       _speed_controllerDec10_M   10072b48     speed_controllerDec10.obj
 0002:00000b50       ??_C@_0BI@PHJEPFFP@Error?5creating?5scope?51?6?$AA@ 10072b50     speed_controllerDec10.obj
 0002:00000b6c       ??_C@_0CF@LMAGLBHK@Sensor?5Read?5and?5Process?1Scopes?1G@ 10072b6c     speed_controllerDec10.obj
 0002:00000b98       ??_C@_0CF@PDEHCHLN@Sensor?5Read?5and?5Process?1Scopes?1G@ 10072b98     speed_controllerDec10.obj
 0002:00000bc4       ??_C@_0CF@JHCLOCLJ@Sensor?5Read?5and?5Process?1Scopes?1G@ 10072bc4     speed_controllerDec10.obj
 0002:00000bf0       ??_C@_0BC@OJJPBDHH@FixedStepDiscrete?$AA@ 10072bf0     speed_controllerDec10.obj
 0002:00000c08       ??_C@_04EPKDLPPB@tout?$AA@ 10072c08     speed_controllerDec10.obj
 0002:00000c0e       ??_C@_00CNPNBAHC@?$AA@     10072c0e     speed_controllerDec10.obj
 0002:00000c10       ??_C@_03HBFGMJOD@rt_?$AA@  10072c10     speed_controllerDec10.obj
 0002:00000c14       ??_C@_06OKIIDEAB@Setup1?$AA@ 10072c14     speed_controllerDec10.obj
 0002:00000c1c       ??_C@_0DF@KCFDEPEE@speed_controllerDec10?1Sensor?5Rea@ 10072c1c     speed_controllerDec10.obj
 0002:00000c5c       ??_C@_06JHPPMAEE@Setup4?$AA@ 10072c5c     speed_controllerDec10.obj
 0002:00000c64       ??_C@_0DF@NPCELLAB@speed_controllerDec10?1Sensor?5Rea@ 10072c64     speed_controllerDec10.obj
 0002:00000ca4       ??_C@_0O@CADGMBMO@Analog?5input3?$AA@ 10072ca4     speed_controllerDec10.obj
 0002:00000cb4       ??_C@_0DM@PHGFFIII@speed_controllerDec10?1Sensor?5Rea@ 10072cb4     speed_controllerDec10.obj
 0002:00000cfc       ??_C@_0P@IHAPCODB@Analog?5output1?$AA@ 10072cfc     speed_controllerDec10.obj
 0002:00000d10       ??_C@_0CF@LHMJEPD@speed_controllerDec10?1Analog?5out@ 10072d10     speed_controllerDec10.obj
 0002:00000d40       __real@3f50624dd2f1a9fc    10072d40     speed_controllerDec10.obj
 0002:00000d50       __real@3fd0000000000000    10072d50     speed_controllerDec10.obj
 0002:00000d60       __real@3fd5555555555555    10072d60     speed_controllerDec10.obj
 0002:00000d70       __real@3fe0000000000000    10072d70     speed_controllerDec10.obj
 0002:00000d80       __real@3fe4cccccccccccd    10072d80     speed_controllerDec10.obj
 0002:00000d90       __real@3ff0000000000000    10072d90     speed_controllerDec10.obj
 0002:00000da0       __real@3ff0cccccccccccd    10072da0     speed_controllerDec10.obj
 0002:00000db0       __real@4000000000000000    10072db0     speed_controllerDec10.obj
 0002:00000dc0       __real@4008000000000000    10072dc0     speed_controllerDec10.obj
 0002:00000dd0       __real@40b7700000000000    10072dd0     speed_controllerDec10.obj
 0002:00000de0       __real@41f0000000000000    10072de0     speed_controllerDec10.obj
 0002:00000df0       __real@bff0000000000000    10072df0     speed_controllerDec10.obj
 0002:00000e00       __xmm@00000000000000003f50624dd2f1a9fc 10072e00     speed_controllerDec10.obj
 0002:00000e20       __xmm@0000009b0000003e0000005800000001 10072e20     speed_controllerDec10.obj
 0002:00000e40       __xmm@3ff0cccccccccccd0000000000000000 10072e40     speed_controllerDec10.obj
 0002:00000e60       __xmm@41f00000000000000000000000000000 10072e60     speed_controllerDec10.obj
 0002:00000e80       __xmm@7fffffffffffffff7fffffffffffffff 10072e80     speed_controllerDec10.obj
 0002:00000e98       __real@3cb0000000000000    10072e98     rt_matrx.obj
 0002:00001708       ??_C@_0DJ@FHKINPLE@Unexpected?5itemKind?5?$DN?5DATA_ITEM?5@ 10073708     rt_logging.obj
 0002:0000174c       ??_C@_0DA@IEHFPFCJ@Unexpected?5itemKind?$DN?$CFd?5in?5rt_Pro@ 1007374c     rt_logging.obj
 0002:00001788       ??_C@_0DA@IFLHJPBO@Unexpected?5itemKind?$DN?$CFd?5in?5rt_Pro@ 10073788     rt_logging.obj
 0002:000017c4       ??_C@_0DA@IAPIIJJL@Unexpected?5itemKind?$DN?$CFd?5in?5rt_Pro@ 100737c4     rt_logging.obj
 0002:00001800       ??_C@_0BE@LCIGPJIG@MATLAB?55?40?5MAT?9file?$AA@ 10073800     rt_logging.obj
 0002:00001818       ??_C@_0FB@PCJEAJIB@?$CK?$CK?$CK?5Log?5variable?5?$CFs?5has?5wrapped?5@ 10073818     rt_logging.obj
 0002:00001880       ??_C@_0MG@NKMLMOGF@?$CK?$CK?$CK?5To?5avoid?5wrapping?0?5explicitl@ 10073880     rt_logging.obj
 0002:00001970       ??_C@_0N@IPAEOLLP@_rtw_tmw?4tmw?$AA@ 10073970     rt_logging.obj
 0002:00001980       ??_C@_04HDOCAJNK@?$CFs?$CFs?$AA@ 10073980     rt_logging.obj
 0002:00001988       ??_C@_03ELIABIOC@w?$CLb?$AA@ 10073988     rt_logging.obj
 0002:0000198c       ??_C@_0BF@JPILDDFA@?$CK?$CK?$CK?5Error?5opening?5?$CFs?$AA@ 1007398c     rt_logging.obj
 0002:000019a8       ??_C@_0BK@EEMDELA@unable?5to?5open?5data?5file?6?$AA@ 100739a8     rt_logging.obj
 0002:000019c8       ??_C@_04CGFJFPFD@none?$AA@ 100739c8     rt_logging.obj
 0002:000019d0       ??_C@_0EE@LCGFPNON@?$CK?$CK?$CK?5Error?5creating?5signals?5struc@ 100739d0     rt_logging.obj
 0002:00001a24       ??_C@_0CE@NHECEDMK@?$CK?$CK?$CK?5Error?5creating?5log?5variable?5@ 10073a24     rt_logging.obj
 0002:00001a50       ??_C@_0DB@IOCGKAGH@?$CK?$CK?$CK?5Errors?5occurred?5when?5startin@ 10073a50     rt_logging.obj
 0002:00001a8c       ??_C@_0BO@BBLOGEBK@?$CK?$CK?$CK?5Memory?5allocation?5error?4?6?$AA@ 10073a8c     rt_logging.obj
 0002:00001ab0       ??_C@_0N@LGFBAGEL@?5?$CIreal?5part?$CJ?$AA@ 10073ab0     rt_logging.obj
 0002:00001ac0       ??_C@_0KH@CGNMHNFE@?5?5?5?5varName?5?5?5?5?5?5?5?5?5?5?$DN?5?$CFs?$CFs?6?5?5?5?5@ 10073ac0     rt_logging.obj
 0002:00001b88       ??_C@_0LE@OALKKEFM@?5?5?5?5varName?5?5?5?5?5?5?5?5?5?5?$DN?5?$CFs?5?$CIcompl@ 10073b88     rt_logging.obj
 0002:00001c60       ??_C@_0KF@JDDLEOKO@?5?5?5?5varName?5?5?5?5?5?5?5?5?5?5?$DN?5?$CFs?6?5?5?5?5nR@ 10073c60     rt_logging.obj
 0002:00001d28       ??_C@_0DP@HPDMIOFM@?$CK?$CK?$CK?5Using?5a?5default?5buffer?5of?5si@ 10073d28     rt_logging.obj
 0002:00001d78       ??_C@_0KE@JEFOLKNF@?6?$CK?$CK?$CK?5Memory?5required?5to?5log?5vari@ 10073d78     rt_logging.obj
 0002:00001e40       ??_C@_0JP@DKLMHCBI@?$CK?$CK?$CK?5Details?3?6?5?5?5?5?5?5?5varName?5?5?5?5?5@ 10073e40     rt_logging.obj
 0002:00001f00       ??_C@_0CM@CAMILBED@?$CK?$CK?$CK?5Error?5allocating?5memory?5for?5@ 10073f00     rt_logging.obj
 0002:00001f34       ??_C@_0DF@BBCNMOPM@?$CK?$CK?$CK?5Error?5allocating?5memory?5for?5@ 10073f34     rt_logging.obj
 0002:00001f78       ??_C@_0JP@DBCLPCCI@?$CK?$CK?$CK?5Details?3?6?5?5?5?5?5?5?5varName?5?5?5?5?5@ 10073f78     rt_logging.obj
 0002:00002038       ??_C@_0FK@DPGAOBGA@?$CK?$CK?$CK?5Error?5allocating?5memory?5for?5@ 10074038     rt_logging.obj
 0002:000020a4       ??_C@_0BI@GGDNPHLJ@?$CK?$CK?$CK?5Error?5writing?5to?5?$CFs?$AA@ 100740a4     rt_logging.obj
 0002:000020c0       ??_C@_0CB@IBGJGELG@?$CK?$CK?$CK?5Error?5writing?5?$CFs?5due?5to?3?5?$CFs?6@ 100740c0     rt_logging.obj
 0002:000020e8       ??_C@_0CN@FLMCHCPB@?$CK?$CK?$CK?5Error?5writing?5log?5variable?5?$CF@ 100740e8     rt_logging.obj
 0002:00002120       ??_C@_0DH@GAJCNOJP@?$CK?$CK?$CK?5Error?5writing?5structure?5log?5@ 10074120     rt_logging.obj
 0002:00002164       ??_C@_0BD@POEALECL@?$CK?$CK?5created?5?$CFs?5?$CK?$CK?6?6?$AA@ 10074164     rt_logging.obj
 0002:00002180       __real@4020000000000000    10074180     rt_logging.obj
 0002:00002190       __real@41dfffffffc00000    10074190     rt_logging.obj
 0002:000021a0       __real@41efffffffe00000    100741a0     rt_logging.obj
 0002:000021b0       __real@4330000000000000    100741b0     rt_logging.obj
 0002:000021c0       __real@8000000000000000    100741c0     rt_logging.obj
 0002:000021d0       __real@bfbf9add3afd2773    100741d0     rt_logging.obj
 0002:000021e0       __real@c000000000000000    100741e0     rt_logging.obj
 0002:000021f0       __xmm@20202020202020202020202020202020 100741f0     rt_logging.obj
 0002:00003130       ??_C@_0P@KABGHJIH@controller1?1p1?$AA@ 10075130     speed_controllerDec10_capi.obj
 0002:00003144       ??_C@_0P@ILDLCKEE@controller1?1p2?$AA@ 10075144     speed_controllerDec10_capi.obj
 0002:00003158       ??_C@_0P@JCCABLAF@controller1?1p3?$AA@ 10075158     speed_controllerDec10_capi.obj
 0002:0000316c       ??_C@_09IIHOELEE@Constant1?$AA@ 1007516c     speed_controllerDec10_capi.obj
 0002:00003178       ??_C@_0M@DLHHNGHG@Saturation1?$AA@ 10075178     speed_controllerDec10_capi.obj
 0002:00003188       ??_C@_0CG@PLEDHPMH@Sensor?5Read?5and?5Process?1Control?5@ 10075188     speed_controllerDec10_capi.obj
 0002:000031b8       ??_C@_0CP@PHBOMDHN@Sensor?5Read?5and?5Process?1State?5De@ 100751b8     speed_controllerDec10_capi.obj
 0002:000031f0       ??_C@_0CP@NMDDJALO@Sensor?5Read?5and?5Process?1State?5De@ 100751f0     speed_controllerDec10_capi.obj
 0002:00003228       ??_C@_07KCCBPEDJ@tStride?$AA@ 10075228     speed_controllerDec10_capi.obj
 0002:00003234       ??_C@_0CP@MFCIKBPP@Sensor?5Read?5and?5Process?1State?5De@ 10075234     speed_controllerDec10_capi.obj
 0002:0000326c       ??_C@_0CP@IKGJDHDI@Sensor?5Read?5and?5Process?1State?5De@ 1007526c     speed_controllerDec10_capi.obj
 0002:000032a4       ??_C@_0CP@JDHCAGHJ@Sensor?5Read?5and?5Process?1State?5De@ 100752a4     speed_controllerDec10_capi.obj
 0002:000032dc       ??_C@_0CP@LIFPFFLK@Sensor?5Read?5and?5Process?1State?5De@ 100752dc     speed_controllerDec10_capi.obj
 0002:00003314       ??_C@_0CP@KBEEGEPL@Sensor?5Read?5and?5Process?1State?5De@ 10075314     speed_controllerDec10_capi.obj
 0002:0000334c       ??_C@_0CP@CGNMHIDE@Sensor?5Read?5and?5Process?1State?5De@ 1007534c     speed_controllerDec10_capi.obj
 0002:00003384       ??_C@_0CP@DPMHEJHF@Sensor?5Read?5and?5Process?1State?5De@ 10075384     speed_controllerDec10_capi.obj
 0002:000033bc       ??_C@_0CK@EPKECMCP@Sensor?5Read?5and?5Process?1measureS@ 100753bc     speed_controllerDec10_capi.obj
 0002:000033f0       ??_C@_0BP@GBKKPIPH@Sensor?5Read?5and?5Process?1Gain10?$AA@ 100753f0     speed_controllerDec10_capi.obj
 0002:00003418       ??_C@_0M@BBOJFLCF@tStance_out?$AA@ 10075418     speed_controllerDec10_capi.obj
 0002:00003428       ??_C@_0BO@NFOIHGPA@Sensor?5Read?5and?5Process?1Gain3?$AA@ 10075428     speed_controllerDec10_capi.obj
 0002:0000344c       ??_C@_0N@MGNBEKJF@strideStateR?$AA@ 1007544c     speed_controllerDec10_capi.obj
 0002:0000345c       ??_C@_0BO@JKKJOADH@Sensor?5Read?5and?5Process?1Gain4?$AA@ 1007545c     speed_controllerDec10_capi.obj
 0002:00003480       ??_C@_0M@MILAJKPO@tStride_avg?$AA@ 10075480     speed_controllerDec10_capi.obj
 0002:00003490       ??_C@_0CG@GCPFDBN@Sensor?5Read?5and?5Process?1Analog?5i@ 10075490     speed_controllerDec10_capi.obj
 0002:000034c0       ??_C@_0DO@KJGAJBGN@Sensor?5Read?5and?5Process?13rd?5Orde@ 100754c0     speed_controllerDec10_capi.obj
 0002:0000350c       ??_C@_0M@FEKEABGH@GRF?6voltage?$AA@ 1007550c     speed_controllerDec10_capi.obj
 0002:0000351c       ??_C@_0CE@OJNAHKDM@Sensor?5Read?5and?5Process?1Unit?5Del@ 1007551c     speed_controllerDec10_capi.obj
 0002:00003548       ??_C@_0DB@PHJMFODM@Sensor?5Read?5and?5Process?1GUI?1UseI@ 10075548     speed_controllerDec10_capi.obj
 0002:00003584       ??_C@_0CH@HCNACJKG@Sensor?5Read?5and?5Process?1GUI?1num_@ 10075584     speed_controllerDec10_capi.obj
 0002:000035b4       ??_C@_0L@HDJHAPAM@num_strike?$AA@ 100755b4     speed_controllerDec10_capi.obj
 0002:000035c4       ??_C@_0CG@IDNEEFNG@Sensor?5Read?5and?5Process?1GUI?1num_@ 100755c4     speed_controllerDec10_capi.obj
 0002:000035f4       ??_C@_09BPIDOJJH@num_swing?$AA@ 100755f4     speed_controllerDec10_capi.obj
 0002:00003600       ??_C@_0CH@FDBFCGIJ@Sensor?5Read?5and?5Process?1GUI?1thre@ 10075600     speed_controllerDec10_capi.obj
 0002:00003630       ??_C@_0L@FCFCAACD@thresh_mid?$AA@ 10075630     speed_controllerDec10_capi.obj
 0002:00003640       ??_C@_0CJ@EENPHMHF@Sensor?5Read?5and?5Process?1GUI?1thre@ 10075640     speed_controllerDec10_capi.obj
 0002:00003674       ??_C@_0N@MCDKKMKM@thresh_swing?$AA@ 10075674     speed_controllerDec10_capi.obj
 0002:00003684       ??_C@_0CD@PDLALKLI@Sensor?5Read?5and?5Process?1GUI?1to_p@ 10075684     speed_controllerDec10_capi.obj
 0002:000036b0       ??_C@_06FDKIFIDL@to_pct?$AA@ 100756b0     speed_controllerDec10_capi.obj
 0002:000036b8       ??_C@_0CN@KINCEAFL@Sensor?5Read?5and?5Process?1GUI?1tsta@ 100756b8     speed_controllerDec10_capi.obj
 0002:000036f0       ??_C@_0BB@FJNFKCME@tstance_avg_init?$AA@ 100756f0     speed_controllerDec10_capi.obj
 0002:00003704       ??_C@_0CI@LBKGEBCJ@Sensor?5Read?5and?5Process?1GUI?1tsta@ 10075704     speed_controllerDec10_capi.obj
 0002:00003734       ??_C@_0M@IHKEEMPJ@tstance_pct?$AA@ 10075734     speed_controllerDec10_capi.obj
 0002:00003744       ??_C@_0CN@LLOKLGDL@Sensor?5Read?5and?5Process?1GUI?1tstr@ 10075744     speed_controllerDec10_capi.obj
 0002:0000377c       ??_C@_0BB@EKONFEKE@tstride_avg_init?$AA@ 1007577c     speed_controllerDec10_capi.obj
 0002:00003790       ??_C@_0CH@JMNDKLMH@Sensor?5Read?5and?5Process?1GUI?1tswi@ 10075790     speed_controllerDec10_capi.obj
 0002:000037c0       ??_C@_0L@JNJEINGN@tswing_min?$AA@ 100757c0     speed_controllerDec10_capi.obj
 0002:000037d0       ??_C@_0CB@LBOKOAMP@Sensor?5Read?5and?5Process?1GUI?1LOCK@ 100757d0     speed_controllerDec10_capi.obj
 0002:000037f8       ??_C@_04GPIFAJG@LOCK?$AA@  100757f8     speed_controllerDec10_capi.obj
 0002:00003800       ??_C@_0CB@NAPLIEKG@Sensor?5Read?5and?5Process?1GUI?1REST@ 10075800     speed_controllerDec10_capi.obj
 0002:00003828       ??_C@_04GHOJDEPP@REST?$AA@ 10075828     speed_controllerDec10_capi.obj
 0002:00003830       ??_C@_0CA@BENOALGE@Sensor?5Read?5and?5Process?1GUI?1RUN?$AA@ 10075830     speed_controllerDec10_capi.obj
 0002:00003858       ??_C@_03LLDCGJBK@RUN?$AA@  10075858     speed_controllerDec10_capi.obj
 0002:0000385c       ??_C@_0CE@HCPJNIIF@Sensor?5Read?5and?5Process?1GUI?1SETZ@ 1007585c     speed_controllerDec10_capi.obj
 0002:00003888       ??_C@_07GOIBCPN@SETZERO?$AA@ 10075888     speed_controllerDec10_capi.obj
 0002:00003894       ??_C@_0CD@KGCDKNOH@Sensor?5Read?5and?5Process?1GUI?1STAN@ 10075894     speed_controllerDec10_capi.obj
 0002:000038c0       ??_C@_06GDLEPGE@STANCE?$AA@ 100758c0     speed_controllerDec10_capi.obj
 0002:000038c8       ??_C@_0CC@HPDEKCIB@Sensor?5Read?5and?5Process?1GUI?1SWIN@ 100758c8     speed_controllerDec10_capi.obj
 0002:000038f0       ??_C@_05GNDEFJGB@SWING?$AA@ 100758f0     speed_controllerDec10_capi.obj
 0002:000038f8       ??_C@_0CF@JCKKMHGB@Sensor?5Read?5and?5Process?1GUI?1degt@ 100758f8     speed_controllerDec10_capi.obj
 0002:00003924       ??_C@_05ILGHGDPO@pflex?$AA@ 10075924     speed_controllerDec10_capi.obj
 0002:0000392c       ??_C@_0CE@MPMCGIAK@Sensor?5Read?5and?5Process?1GUI?1MinM@ 1007592c     speed_controllerDec10_capi.obj
 0002:00003958       ??_C@_0BB@CCPDHGLH@strideStateRight?$AA@ 10075958     speed_controllerDec10_capi.obj
 0002:0000396c       ??_C@_0O@CNFDLBGH@vGRF?5Left?5?$FLN?$FN?$AA@ 1007596c     speed_controllerDec10_capi.obj
 0002:0000397c       ??_C@_0P@PNDBBID@vGRF?5Right?5?$FLN?$FN?$AA@ 1007597c     speed_controllerDec10_capi.obj
 0002:00003990       ??_C@_0CE@NINECJPM@Sensor?5Read?5and?5Process?1Scopes?1S@ 10075990     speed_controllerDec10_capi.obj
 0002:000039c0       ??_C@_0EF@GFNHFPEE@Sensor?5Read?5and?5Process?1Zero?5Lev@ 100759c0     speed_controllerDec10_capi.obj
 0002:00003a14       ??_C@_07NOEEMOIE@GRFzero?$AA@ 10075a14     speed_controllerDec10_capi.obj
 0002:00003a20       ??_C@_0DJ@GNIICAMP@Sensor?5Read?5and?5Process?1Zero?5Lev@ 10075a20     speed_controllerDec10_capi.obj
 0002:00003a64       ??_C@_05LPIJGKJ@Value?$AA@ 10075a64     speed_controllerDec10_capi.obj
 0002:00003a6c       ??_C@_0L@FBCGKKEN@UpperLimit?$AA@ 10075a6c     speed_controllerDec10_capi.obj
 0002:00003a7c       ??_C@_0L@DGFJOHKP@LowerLimit?$AA@ 10075a7c     speed_controllerDec10_capi.obj
 0002:00003a8c       ??_C@_02KKFPAPOP@P1?$AA@   10075a8c     speed_controllerDec10_capi.obj
 0002:00003a90       ??_C@_02IBHCFMCM@P2?$AA@   10075a90     speed_controllerDec10_capi.obj
 0002:00003a94       ??_C@_02JIGJGNGN@P3?$AA@   10075a94     speed_controllerDec10_capi.obj
 0002:00003a98       ??_C@_02NHCIPLKK@P4?$AA@   10075a98     speed_controllerDec10_capi.obj
 0002:00003a9c       ??_C@_02MODDMKOL@P5?$AA@   10075a9c     speed_controllerDec10_capi.obj
 0002:00003aa0       ??_C@_0CB@OHBHENCI@Sensor?5Read?5and?5Process?1subjMass@ 10075aa0     speed_controllerDec10_capi.obj
 0002:00003ac8       ??_C@_0N@DKJJGJMJ@InitialValue?$AA@ 10075ac8     speed_controllerDec10_capi.obj
 0002:00003ad8       ??_C@_0CL@JAEOOGEN@Sensor?5Read?5and?5Process?1GRF_Thre@ 10075ad8     speed_controllerDec10_capi.obj
 0002:00003b0c       ??_C@_0CJ@DBOBGOPJ@Sensor?5Read?5and?5Process?1GRF_Thre@ 10075b0c     speed_controllerDec10_capi.obj
 0002:00003b40       ??_C@_0BO@OHNOBEHC@Sensor?5Read?5and?5Process?1Gain1?$AA@ 10075b40     speed_controllerDec10_capi.obj
 0002:00003b64       ??_C@_04OMOMKKFL@Gain?$AA@ 10075b64     speed_controllerDec10_capi.obj
 0002:00003b6c       ??_C@_0BO@MMPDEHLB@Sensor?5Read?5and?5Process?1Gain2?$AA@ 10075b6c     speed_controllerDec10_capi.obj
 0002:00003b90       ??_C@_0BO@IDLCNBHG@Sensor?5Read?5and?5Process?1Gain5?$AA@ 10075b90     speed_controllerDec10_capi.obj
 0002:00003bb4       ??_C@_0BO@DGBMKPDL@Sensor?5Read?5and?5Process?1Gain8?$AA@ 10075bb4     speed_controllerDec10_capi.obj
 0002:00003bd8       ??_C@_0BO@CPAHJOHK@Sensor?5Read?5and?5Process?1Gain9?$AA@ 10075bd8     speed_controllerDec10_capi.obj
 0002:00003bfc       ??_C@_02OFBOJJCI@P6?$AA@   10075bfc     speed_controllerDec10_capi.obj
 0002:00003c00       ??_C@_02PMAFKIGJ@P7?$AA@   10075c00     speed_controllerDec10_capi.obj
 0002:00003c04       ??_C@_0BP@BOIBFHCH@Sensor?5Read?5and?5Process?1Setup1?$AA@ 10075c04     speed_controllerDec10_capi.obj
 0002:00003c2c       ??_C@_0BP@GDPGKDGC@Sensor?5Read?5and?5Process?1Setup4?$AA@ 10075c2c     speed_controllerDec10_capi.obj
 0002:00003c54       ??_C@_09OMDFKCLN@Numerator?$AA@ 10075c54     speed_controllerDec10_capi.obj
 0002:00003c60       ??_C@_0M@KDILNJPK@Denominator?$AA@ 10075c60     speed_controllerDec10_capi.obj
 0002:00003c70       ??_C@_0O@KHJPNGBD@InitialStates?$AA@ 10075c70     speed_controllerDec10_capi.obj
 0002:00003c80       ??_C@_0BB@CFEOEMDC@InitialCondition?$AA@ 10075c80     speed_controllerDec10_capi.obj
 0002:00003c94       ??_C@_0CD@LENOHJLL@Sensor?5Read?5and?5Process?1GUI?1BTLo@ 10075c94     speed_controllerDec10_capi.obj
 0002:00003cc0       ??_C@_0CC@BLHOEMGL@Sensor?5Read?5and?5Process?1GUI?1BTRu@ 10075cc0     speed_controllerDec10_capi.obj
 0002:00003ce8       ??_C@_0CM@EGICAHHF@Sensor?5Read?5and?5Process?1GUI?1BTme@ 10075ce8     speed_controllerDec10_capi.obj
 0002:00003d1c       ??_C@_0DC@GLGEGJGK@Sensor?5Read?5and?5Process?1GUI?1BTre@ 10075d1c     speed_controllerDec10_capi.obj
 0002:00003d58       ??_C@_0CH@ECMFMMKF@Sensor?5Read?5and?5Process?1GUI?1BTze@ 10075d58     speed_controllerDec10_capi.obj
 0002:00003d88       ??_C@_0CI@LMABJNMC@Sensor?5Read?5and?5Process?1GUI?1BTze@ 10075d88     speed_controllerDec10_capi.obj
 0002:00003db8       ??_C@_0CC@DGEJHEFK@Sensor?5Read?5and?5Process?1GUI?1LOCK@ 10075db8     speed_controllerDec10_capi.obj
 0002:00003de0       ??_C@_0CD@LGBKPAOK@Sensor?5Read?5and?5Process?1GUI?1NODE@ 10075de0     speed_controllerDec10_capi.obj
 0002:00003e0c       ??_C@_0CD@JNDHKDCJ@Sensor?5Read?5and?5Process?1GUI?1NODE@ 10075e0c     speed_controllerDec10_capi.obj
 0002:00003e38       ??_C@_0CD@LEFMEOLD@Sensor?5Read?5and?5Process?1GUI?1NODE@ 10075e38     speed_controllerDec10_capi.obj
 0002:00003e64       ??_C@_0CD@JPHBBNHA@Sensor?5Read?5and?5Process?1GUI?1NODE@ 10075e64     speed_controllerDec10_capi.obj
 0002:00003e90       ??_C@_0CD@LFJOCEIE@Sensor?5Read?5and?5Process?1GUI?1NODE@ 10075e90     speed_controllerDec10_capi.obj
 0002:00003ebc       ??_C@_0CD@JOLDHHEH@Sensor?5Read?5and?5Process?1GUI?1NODE@ 10075ebc     speed_controllerDec10_capi.obj
 0002:00003ee8       ??_C@_0CD@LANBDCAB@Sensor?5Read?5and?5Process?1GUI?1NODE@ 10075ee8     speed_controllerDec10_capi.obj
 0002:00003f14       ??_C@_0CD@JLPMGBMC@Sensor?5Read?5and?5Process?1GUI?1NODE@ 10075f14     speed_controllerDec10_capi.obj
 0002:00003f40       ??_C@_0CF@HFFGBIEJ@Sensor?5Read?5and?5Process?1GUI?1NUMN@ 10075f40     speed_controllerDec10_capi.obj
 0002:00003f6c       ??_C@_0CC@CEGLMMC@Sensor?5Read?5and?5Process?1GUI?1REST@ 10075f6c     speed_controllerDec10_capi.obj
 0002:00003f94       ??_C@_0CB@HHOIDKNB@Sensor?5Read?5and?5Process?1GUI?1RUN_@ 10075f94     speed_controllerDec10_capi.obj
 0002:00003fbc       ??_C@_0CF@KAIDMPOM@Sensor?5Read?5and?5Process?1GUI?1SETZ@ 10075fbc     speed_controllerDec10_capi.obj
 0002:00003fe8       ??_C@_0CE@DOLBFON@Sensor?5Read?5and?5Process?1GUI?1STAN@ 10075fe8     speed_controllerDec10_capi.obj
 0002:00004014       ??_C@_0CD@KHODMGIP@Sensor?5Read?5and?5Process?1GUI?1SWIN@ 10076014     speed_controllerDec10_capi.obj
 0002:00004040       ??_C@_0CG@DNFFDKEJ@Sensor?5Read?5and?5Process?1GUI?1pfle@ 10076040     speed_controllerDec10_capi.obj
 0002:00004070       ??_C@_0CH@CHEOIPKA@Sensor?5Read?5and?5Process?1GUI?1pfle@ 10076070     speed_controllerDec10_capi.obj
 0002:000040a0       ??_C@_06BNJCAIGJ@double?$AA@ 100760a0     speed_controllerDec10_capi.obj
 0002:000040a8       ??_C@_06CNMIJIPB@real_T?$AA@ 100760a8     speed_controllerDec10_capi.obj
 0002:000040b0       ??_C@_05KNFBNCOH@float?$AA@ 100760b0     speed_controllerDec10_capi.obj
 0002:000040b8       ??_C@_0DL@PGGFBBLM@Error?3?5task?5ID?5?$CFd?5is?5out?5of?5rang@ 100760b8     speed_controllerDec10_xcp_TET.obj
 0002:00004100       __real@3e112e0be826d695    10076100     speed_controllerDec10_xcp_TET.obj
 0002:00004110       __real@3f847ae147ae147b    10076110     speed_controllerDec10_xcp_TET.obj
 0002:00004120       __real@3fefae147ae147ae    10076120     speed_controllerDec10_xcp_TET.obj
 0002:0000412c       _serialfifoground          1007612c     xpc_datatype_ground.obj
 0002:00004138       _bcmsg1553ground           10076138     xpc_datatype_ground.obj
 0002:00004148       _bcstatground              10076148     xpc_datatype_ground.obj
 0002:00004160       _bmmsg1553ground           10076160     xpc_datatype_ground.obj
 0002:0000419c       ??_C@_0BI@INNPNFJN@Memory?5Allocation?5Error?$AA@ 1007619c     rtw_modelmap_utils.obj
 0002:000041b8       ??_C@_1HC@FPPMHEFB@?$AAC?$AA?3?$AA?2?$AAP?$AAR?$AAO?$AAG?$AAR?$AAA?$AA?$HO?$AA1?$AA?2?$AAM?$AAA?$AAT?$AAL?$AAA?$AAB?$AA?2?$AAR?$AA2?$AA0?$AA1?$AA7?$AAb?$AA?2?$AAr?$AAt?$AAw?$AA?2?$AAc?$AA?2@ 100761b8     rtw_modelmap_utils.obj
 0002:00004240       ??_C@_1CI@OEAJCJND@?$AAj?$AA?5?$AA?$DN?$AA?$DN?$AA?5?$AAe?$AAn?$AAc?$AAo?$AAd?$AAe?$AAd?$AAP?$AAa?$AAt?$AAh?$AAL?$AAe?$AAn?$AA?$AA@ 10076240     rtw_modelmap_utils.obj
 0002:00004270       ??_C@_1DC@NFAOIFKB@?$AAe?$AAn?$AAc?$AAo?$AAd?$AAe?$AAd?$AAP?$AAa?$AAt?$AAh?$AA?$FL?$AAj?$AA?9?$AA1?$AA?$FN?$AA?5?$AA?$DN?$AA?$DN?$AA?5?$AA?8?$AA?2?$AA0?$AA?8?$AA?$AA@ 10076270     rtw_modelmap_utils.obj
 0002:000042ac       ??_C@_1DI@FLNJGPEE@?$AAs?$AAi?$AAg?$AAC?$AAo?$AAm?$AAp?$AAl?$AAe?$AAx?$AAi?$AAt?$AAy?$AA?$FL?$AA?$CK?$AAs?$AAi?$AAg?$AAI?$AAd?$AAx?$AA?$FN?$AA?5?$AA?$CB?$AA?$DN?$AA?5?$AA1?$AA?$AA@ 100762ac     rtw_modelmap_utils.obj
 0002:000042f0       ??_C@_1KI@OFELMGBG@?$AA?$CI?$AA?$CI?$AA?$CI?$AAd?$AAa?$AAt?$AAa?$AAT?$AAy?$AAp?$AAe?$AAM?$AAa?$AAp?$AA?$CJ?$AA?$FL?$AA?$CI?$AA?$CI?$AA?$CI?$AAs?$AAt?$AAa?$AAt?$AAe?$AAs?$AA?$CJ?$AA?$FL?$AA?$CI?$AAi?$AA?$CJ?$AA?$FN?$AA?4@ 100762f0     rtw_modelmap_utils.obj
 0002:000043bc       ??_C@_1DA@ILCMPHNE@?$AAf?$AAu?$AAl?$AAl?$AAP?$AAa?$AAt?$AAh?$AA?5?$AA?$CB?$AA?$DN?$AA?5?$AA?$CI?$AA?$CI?$AAv?$AAo?$AAi?$AAd?$AA?5?$AA?$CK?$AA?$CJ?$AA0?$AA?$CJ?$AA?$AA@ 100763bc     rtw_modelmap_utils.obj
 0002:000043f8       ??_C@_1CI@OEPPFCCA@?$AAp?$AAa?$AAt?$AAh?$AA?5?$AA?$CB?$AA?$DN?$AA?5?$AA?$CI?$AA?$CI?$AAv?$AAo?$AAi?$AAd?$AA?5?$AA?$CK?$AA?$CJ?$AA0?$AA?$CJ?$AA?$AA@ 100763f8     rtw_modelmap_utils.obj
 0002:00004428       ??_C@_1FK@GLJIMFHB@?$AA?$CI?$AA?$CI?$AAm?$AAm?$AAi?$AA?$CJ?$AA?9?$AA?$DO?$AAI?$AAn?$AAs?$AAt?$AAa?$AAn?$AAc?$AAe?$AAM?$AAa?$AAp?$AA?4?$AAf?$AAu?$AAl?$AAl?$AAP?$AAa?$AAt?$AAh?$AA?$CJ?$AA?5?$AA?$DN?$AA?$DN@ 10076428     rtw_modelmap_utils.obj
 0002:00004494       ??_C@_1DG@HPCJGNCE@?$AAm?$AAm?$AAi?$AAP?$AAa?$AAt?$AAh?$AA?$FL?$AAp?$AAa?$AAt?$AAh?$AAL?$AAe?$AAn?$AA?9?$AA1?$AA?$FN?$AA?5?$AA?$DN?$AA?$DN?$AA?5?$AA?8?$AA?2?$AA0?$AA?8?$AA?$AA@ 10076494     rtw_modelmap_utils.obj
 0002:000044d4       ??_C@_1DM@DBAOGGOO@?$AAm?$AAm?$AAi?$AAP?$AAa?$AAt?$AAh?$AA?$FL?$AAm?$AAm?$AAi?$AAP?$AAa?$AAt?$AAh?$AAL?$AAe?$AAn?$AA?9?$AA1?$AA?$FN?$AA?5?$AA?$DN?$AA?$DN?$AA?5?$AA?8?$AA?2?$AA0?$AA?8?$AA?$AA@ 100764d4     rtw_modelmap_utils.obj
 0002:0000451c       ??_C@_1DC@LHIAKAFE@?$AAb?$AAl?$AAo?$AAc?$AAk?$AAP?$AAa?$AAt?$AAh?$AA?5?$AA?$CB?$AA?$DN?$AA?5?$AA?$CI?$AA?$CI?$AAv?$AAo?$AAi?$AAd?$AA?5?$AA?$CK?$AA?$CJ?$AA0?$AA?$CJ?$AA?$AA@ 1007651c     rtw_modelmap_utils.obj
 0002:00004558       ??_C@_1GI@KIEJKPGC@?$AAf?$AAu?$AAl?$AAl?$AAS?$AAt?$AAa?$AAt?$AAe?$AAB?$AAl?$AAo?$AAc?$AAk?$AAP?$AAa?$AAt?$AAh?$AA?$FL?$AAf?$AAu?$AAl?$AAl?$AAS?$AAt?$AAa?$AAt?$AAe?$AAB?$AAl?$AAo?$AAc@ 10076558     rtw_modelmap_utils.obj
 0002:000045d8       ??_C@_1EE@DNPIBJHC@?$AA?$CI?$AA?$CI?$AAd?$AAi?$AAm?$AAM?$AAa?$AAp?$AA?$CJ?$AA?$FL?$AA?$CI?$AAm?$AAa?$AAp?$AAI?$AAd?$AAx?$AA?$CJ?$AA?$FN?$AA?4?$AAn?$AAu?$AAm?$AAD?$AAi?$AAm?$AAs?$AA?$CJ?$AA?5?$AA?$DN?$AA?$DN?$AA?5@ 100765d8     rtw_modelmap_utils.obj
 0002:0000462c       ??_C@_06JFOKFOED@CSTATE?$AA@ 1007662c     rtw_modelmap_utils.obj
 0002:00004634       ??_C@_06FAENGAMN@DSTATE?$AA@ 10076634     rtw_modelmap_utils.obj
 0002:0000463c       ??_C@_1BI@LEBJNOGG@?$AAc?$AAs?$AAv?$AAI?$AAd?$AAx?$AA?5?$AA?$DO?$AA?$DN?$AA?5?$AA0?$AA?$AA@ 1007663c     rtw_modelmap_utils.obj
 0002:00004658       ??_C@_1BA@KDMGHCHP@?$AAT?$AAI?$AAD?$AA?$DN?$AA?$DN?$AA?9?$AA1?$AA?$AA@ 10076658     rtw_modelmap_utils.obj
 0002:0000466c       ??_C@_1DM@DHGKBPCE@?$AAs?$AAi?$AAg?$AAP?$AAa?$AAt?$AAh?$AA?$FL?$AAs?$AAi?$AAg?$AAP?$AAa?$AAt?$AAh?$AAL?$AAe?$AAn?$AA?9?$AA1?$AA?$FN?$AA?5?$AA?$DN?$AA?$DN?$AA?5?$AA?8?$AA?2?$AA0?$AA?8?$AA?$AA@ 1007666c     rtw_modelmap_utils.obj
 0002:000046b4       _ptsetfilename             100766b4     xpctarget.obj
 0002:000046b8       _xmlfile                   100766b8     xpctarget.obj
 0002:000046c0       ??_C@_0BG@CIEFCDBJ@speed_controllerDec10?$AA@ 100766c0     xpctarget.obj
 0002:000046dc       ??_C@_03KJCPEMEA@6?47?$AA@ 100766dc     xpctarget.obj
 0002:000046e0       __real@3fb999999999999a    100766e0     xpctarget.obj
 0002:000046f0       __real@408f400000000000    100766f0     xpctarget.obj
 0002:00004700       _speed_controllerDec10_BIOMAP 10076700     appmappingData.obj
 0002:00004934       _speed_controllerDec10_dtmap 10076934     appmappingData.obj
 0002:00004940       _speed_controllerDec10_LBLMAP 10076940     appmappingData.obj
 0002:00004b78       _speed_controllerDec10_SIDMAP 10076b78     appmappingData.obj
 0002:00004db0       _speed_controllerDec10_SBIO 10076db0     appmappingData.obj
 0002:00004e70       _speed_controllerDec10_SLBL 10076e70     appmappingData.obj
 0002:00004f30       _speed_controllerDec10_PTIDSMAP 10076f30     appmappingData.obj
 0002:000051d8       _speed_controllerDec10_PTNAMESMAP 100771d8     appmappingData.obj
 0002:00005480       _speed_controllerDec10_SPTMAP 10077480     appmappingData.obj
 0002:000055d8       _appInfo                   100775d8     appmappingData.obj
 0002:0000592c       ??_C@_0BA@GJJGMLGD@Speedgoat?5IO101?$AA@ 1007792c     sg_IO101_da_s.obj
 0002:00005940       ??_C@_0CI@PKDAJHKG@?$CFs?5calibration?5data?5retrieval?5ti@ 10077940     sg_IO101_da_s.obj
 0002:00005970       ??_C@_0ED@LKHIFFLC@Wrong?5number?5of?5input?5arguments?5@ 10077970     sg_IO101_da_s.obj
 0002:000059c0       ??_C@_0BG@EPCOHGPO@?$CFs?3?5board?5not?5present?$AA@ 100779c0     sg_IO101_da_s.obj
 0002:000059dc       ??_C@_0CI@NFFNBHJA@?$CFs?5?$CIbus?5?$CFd?0?5slot?5?$CFd?$CJ?3?5board?5not?5@ 100779dc     sg_IO101_da_s.obj
 0002:00005a10       __real@3eb0c6f7a0b5ed8d    10077a10     sg_IO101_da_s.obj
 0002:00005a20       __real@3f1a36e2eb1c432d    10077a20     sg_IO101_da_s.obj
 0002:00005a30       __real@3f6ad7d7c2ca148b    10077a30     sg_IO101_da_s.obj
 0002:00005a40       __real@4024000000000000    10077a40     sg_IO101_da_s.obj
 0002:00005a50       __real@40a9998000000000    10077a50     sg_IO101_da_s.obj
 0002:00005a60       __real@40fd204000000000    10077a60     sg_IO101_da_s.obj
 0002:00005a6c       ??_C@_0P@FEDIIJDN@Acromag?5PMC730?$AA@ 10077a6c     sg_IO101_setup_s.obj
 0002:00005a80       ??_C@_0BA@CGNHFNKE@Speedgoat?5IO106?$AA@ 10077a80     sg_IO106_ad_s.obj
 0002:00005a98       __real@4004000000000000    10077a98     sg_IO106_ad_s.obj
 0002:00005aa8       __real@4014000000000000    10077aa8     sg_IO106_ad_s.obj
 0002:00005ab8       __real@40b999999999999a    10077ab8     sg_IO106_ad_s.obj
 0002:00005ac8       __real@40c999999999999a    10077ac8     sg_IO106_ad_s.obj
 0002:00005ae0       __xmm@400400000000000040c999999999999a 10077ae0     sg_IO106_ad_s.obj
 0002:00005b00       __xmm@401400000000000040b999999999999a 10077b00     sg_IO106_ad_s.obj
 0002:00005b20       __xmm@402400000000000040a999999999999a 10077b20     sg_IO106_ad_s.obj
 0002:00005b34       ??_C@_0CH@BHKGEFPM@?5?5?$CFs?5failed?5to?5clear?5analog?5inpu@ 10077b34     sg_IO106_setup_s.obj
 0002:00005b64       ??_C@_0CA@JNBAOBJE@?5?5?$CFs?5autocalibration?5started?4?4?6?$AA@ 10077b64     sg_IO106_setup_s.obj
 0002:00005b8c       ??_C@_0BP@MLPPNOH@?5?5?$CFs?5autocalibration?5timed?5out?$AA@ 10077b8c     sg_IO106_setup_s.obj
 0002:00005bb4       ??_C@_0CB@CHAPPIHB@?5?5?$CFs?5autocalibration?5succeeded?4?6@ 10077bb4     sg_IO106_setup_s.obj
 0002:00005be0       __real@4132342800000000    10077be0     sg_IO106_setup_s.obj
 0002:00005bf0       __real@4156c13200000000    10077bf0     sg_IO106_setup_s.obj
 0002:00005bfc       ??_C@_0CG@HGCDJNPD@?$CFs?5ID?$CFi?3?5Invalid?5PCI?5bus?5argumen@ 10077bfc     sglibc_MSVC140_vc:sglibc.obj
 0002:00005c2c       ??_C@_0CO@FBMLOABH@?$CFs?5ID?$CFi?3?5Not?5found?5at?5bus?5?$CFi?0?5sl@ 10077c2c     sglibc_MSVC140_vc:sglibc.obj
 0002:00005c64       ??_C@_0BJ@EIMDIBO@?$CFs?3?5No?5such?5module?5found?$AA@ 10077c64     sglibc_MSVC140_vc:sglibc.obj
 0002:00005c88       ??_C@_0MC@DHPOAAJA@?$CFs?5ID?$CFi?3?5Only?5?$CFi?5modules?5found?4?5@ 10077c88     sglibc_MSVC140_vc:sglibc.obj
 0002:00005d70       ??_C@_0BH@OIBECGCO@?$CFs?5ID?$CFi?3?5Unknown?5error?$AA@ 10077d70     sglibc_MSVC140_vc:sglibc.obj
 0002:00005d8c       ??_C@_0BK@EBKJELMI@maxfunc?5?$DN?5?$CFd?5at?5?$FL?$CFd?0?5?$CFd?$FN?6?$AA@ 10077d8c     xpcruntime:xpcimports.obj
 0002:00005dac       ??_C@_0CC@DMFKNLL@VendorId?5?$DN?50x?$CFx?0?5DeviceId?5?$DN?50x?$CFx@ 10077dac     xpcruntime:xpcimports.obj
 0002:00005dd4       ??_C@_0DH@OHCBLNMG@Subsystem?5Device?5ID?5?$DN?50x?$CFx?6Subsy@ 10077dd4     xpcruntime:xpcimports.obj
 0002:00005e18       ??_C@_0BD@MMMMEFCM@Class?5Code?5?$DN?50x?$CFx?6?$AA@ 10077e18     xpcruntime:xpcimports.obj
 0002:00005e30       ??_C@_0BE@OLDDDNHM@InterruptLine?5?$DN?5?$CFd?6?$AA@ 10077e30     xpcruntime:xpcimports.obj
 0002:00005e48       ??_C@_0CE@IBMFFAPN@bus?5?$DN?5?$CFd?0?5slot?5?$DN?5?$CFd?0?5function?5?$DN?5@ 10077e48     xpcruntime:xpcimports.obj
 0002:00005e74       ??_C@_0CE@DGLLGDFH@?5?5?5?5Phys?5?5?5Virtual?5?5?5Length?5IO?1M@ 10077e74     xpcruntime:xpcimports.obj
 0002:00005ea0       ??_C@_0BI@FEOPLEMG@?$CF08x?5?$CF08x?5?$CF08x?5?5?5?5?5?5?$CFc?6?$AA@ 10077ea0     xpcruntime:xpcimports.obj
 0002:00005ebc       ??_C@_0BB@BNNCEDPC@rl32eScopeExists?$AA@ 10077ebc     xpcruntime:xpcimports.obj
 0002:00005ed0       ??_C@_0BM@FJBFEGFG@rl32eScopeExists?5not?5found?6?$AA@ 10077ed0     xpcruntime:xpcimports.obj
 0002:00005ef4       ??_C@_0O@BNNGKJEA@rl32eDefScope?$AA@ 10077ef4     xpcruntime:xpcimports.obj
 0002:00005f04       ??_C@_0BJ@CDNOENKA@rl32eDefScope?5not?5found?6?$AA@ 10077f04     xpcruntime:xpcimports.obj
 0002:00005f24       ??_C@_0P@CKNKILDP@rl32eAddSignal?$AA@ 10077f24     xpcruntime:xpcimports.obj
 0002:00005f38       ??_C@_0BK@GMJAJBAI@rl32eAddSignal?5not?5found?6?$AA@ 10077f38     xpcruntime:xpcimports.obj
 0002:00005f58       ??_C@_0BB@LDMIHGCE@rl32eGetSignalNo?$AA@ 10077f58     xpcruntime:xpcimports.obj
 0002:00005f6c       ??_C@_0BM@LGAMBAID@rl32eGetSignalNo?5not?5found?6?$AA@ 10077f6c     xpcruntime:xpcimports.obj
 0002:00005f90       ??_C@_0O@CFDGALBP@rl32eSetScope?$AA@ 10077f90     xpcruntime:xpcimports.obj
 0002:00005fa0       ??_C@_0BJ@JCLHHIN@rl32eSetScope?5not?5found?6?$AA@ 10077fa0     xpcruntime:xpcimports.obj
 0002:00005fc0       ??_C@_0P@IKMCBMHH@xpceFSScopeSet?$AA@ 10077fc0     xpcruntime:xpcimports.obj
 0002:00005fd4       ??_C@_0BK@JODJPNNH@xpceFSScopeSet?5not?5found?6?$AA@ 10077fd4     xpcruntime:xpcimports.obj
 0002:00005ff4       ??_C@_0BE@DLACEEJM@rl32eSetTargetScope?$AA@ 10077ff4     xpcruntime:xpcimports.obj
 0002:0000600c       ??_C@_0BP@JCHFMKPJ@rl32eSetTargetScope?5not?5found?6?$AA@ 1007800c     xpcruntime:xpcimports.obj
 0002:00006034       ??_C@_0BJ@LIDLNDHC@rl32eSetTargetScopeSigFt?$AA@ 10078034     xpcruntime:xpcimports.obj
 0002:00006054       ??_C@_0CE@JLGHCFHI@rl32eSetTargetScopeSigFt?5not?5fou@ 10078054     xpcruntime:xpcimports.obj
 0002:00006080       ??_C@_0BI@JAPOIDNG@rl32eRestartAcquisition?$AA@ 10078080     xpcruntime:xpcimports.obj
 0002:0000609c       ??_C@_0CD@LLBEFFBO@rl32eRestartAcquisition?5not?5foun@ 1007809c     xpcruntime:xpcimports.obj
 0002:000060c8       ??_C@_0P@IEIIADJB@xpceScopeAcqOK?$AA@ 100780c8     xpcruntime:xpcimports.obj
 0002:000060dc       ??_C@_0BK@NJCKNFPN@xpceScopeAcqOK?5not?5found?6?$AA@ 100780dc     xpcruntime:xpcimports.obj
 0002:000060fc       ??_C@_0BA@IJINKAHF@xpceRegisterISR?$AA@ 100780fc     xpcruntime:xpcimports.obj
 0002:00006110       ??_C@_0BL@NNDLOEJE@xpceRegisterISR?5not?5found?6?$AA@ 10078110     xpcruntime:xpcimports.obj
 0002:00006130       ??_C@_0BC@NLBADGKF@xpceDeRegisterISR?$AA@ 10078130     xpcruntime:xpcimports.obj
 0002:00006148       ??_C@_0BN@DCAIKFFD@xpceDeRegisterISR?5not?5found?6?$AA@ 10078148     xpcruntime:xpcimports.obj
 0002:0000616c       ??_C@_07JPMEPILD@xpcInpB?$AA@ 1007816c     xpcruntime:xpcimports.obj
 0002:00006178       ??_C@_0BD@PGABEJOL@xpcInpB?5not?5found?6?$AA@ 10078178     xpcruntime:xpcimports.obj
 0002:00006190       ??_C@_07KIHBBOKH@xpcInpW?$AA@ 10078190     xpcruntime:xpcimports.obj
 0002:0000619c       ??_C@_0BD@FPCJFMCC@xpcInpW?5not?5found?6?$AA@ 1007819c     xpcruntime:xpcimports.obj
 0002:000061b4       ??_C@_08KDIAJBOP@xpcInpDW?$AA@ 100781b4     xpcruntime:xpcimports.obj
 0002:000061c0       ??_C@_0BE@PIELDNIL@xpcInpDW?5not?5found?6?$AA@ 100781c0     xpcruntime:xpcimports.obj
 0002:000061d8       ??_C@_08PJFMOIGO@xpcOutpB?$AA@ 100781d8     xpcruntime:xpcimports.obj
 0002:000061e4       ??_C@_0BE@HCKNCEKF@xpcOutpB?5not?5found?6?$AA@ 100781e4     xpcruntime:xpcimports.obj
 0002:000061fc       ??_C@_08MOOJAOHK@xpcOutpW?$AA@ 100781fc     xpcruntime:xpcimports.obj
 0002:00006208       ??_C@_0BE@NLIFDBGM@xpcOutpW?5not?5found?6?$AA@ 10078208     xpcruntime:xpcimports.obj
 0002:00006220       ??_C@_09FLIEKHJG@xpcOutpDW?$AA@ 10078220     xpcruntime:xpcimports.obj
 0002:0000622c       ??_C@_0BF@GJKLPNHB@xpcOutpDW?5not?5found?6?$AA@ 1007822c     xpcruntime:xpcimports.obj
 0002:00006248       ??_C@_0BH@EHOLELHH@xpcReserveMemoryRegion?$AA@ 10078248     xpcruntime:xpcimports.obj
 0002:00006264       ??_C@_0CC@KAAAGPI@xpcReserveMemoryRegion?5not?5found@ 10078264     xpcruntime:xpcimports.obj
 0002:0000628c       ??_C@_0BA@JGPMHGAF@rl32eShowPCIDev?$AA@ 1007828c     xpcruntime:xpcimports.obj
 0002:000062a0       ??_C@_0BL@DDFFLNHI@rl32eShowPCIDev?5not?5found?6?$AA@ 100782a0     xpcruntime:xpcimports.obj
 0002:000062c0       ??_C@_0BB@KBCOJPFB@rl32eShowPCIInfo?$AA@ 100782c0     xpcruntime:xpcimports.obj
 0002:000062d4       ??_C@_0BM@IFDMAGLO@rl32eShowPCIInfo?5not?5found?6?$AA@ 100782d4     xpcruntime:xpcimports.obj
 0002:000062f8       ??_C@_0BA@BGPAADB@rl32eGetPCIInfo?$AA@ 100782f8     xpcruntime:xpcimports.obj
 0002:0000630c       ??_C@_0BL@IGOMLDCK@rl32eGetPCIInfo?5not?5found?6?$AA@ 1007830c     xpcruntime:xpcimports.obj
 0002:0000632c       ??_C@_0BG@NJPFKFDP@rl32eGetPCIInfoAtSlot?$AA@ 1007832c     xpcruntime:xpcimports.obj
 0002:00006348       ??_C@_0CB@BBKIPMLA@rl32eGetPCIInfoAtSlot?5not?5found?6@ 10078348     xpcruntime:xpcimports.obj
 0002:00006370       ??_C@_0BH@OKBOPNFG@xpceAssignPCIInterrupt?$AA@ 10078370     xpcruntime:xpcimports.obj
 0002:0000638c       ??_C@_0CC@CDNDNJBJ@xpceAssignPCIInterrupt?5not?5found@ 1007838c     xpcruntime:xpcimports.obj
 0002:000063b4       ??_C@_0BD@PCKOKHO@xpceGetSignalValue?$AA@ 100783b4     xpcruntime:xpcimports.obj
 0002:000063cc       ??_C@_0BO@GCBDJHMB@xpceGetSignalValue?5not?5found?6?$AA@ 100783cc     xpcruntime:xpcimports.obj
 0002:000063f0       ??_C@_0BB@BJONJAGA@xpceSetParameter?$AA@ 100783f0     xpcruntime:xpcimports.obj
 0002:00006404       ??_C@_0BM@BJIKDLHA@xpceSetParameter?5not?5found?6?$AA@ 10078404     xpcruntime:xpcimports.obj
 0002:00006428       ??_C@_0BB@GNFDFMCM@xpceGetParameter?$AA@ 10078428     xpcruntime:xpcimports.obj
 0002:0000643c       ??_C@_0BM@POHNKBC@xpceGetParameter?5not?5found?6?$AA@ 1007843c     xpcruntime:xpcimports.obj
 0002:00006460       ??_C@_0BB@CEIJLFCD@xpceGetParamDims?$AA@ 10078460     xpcruntime:xpcimports.obj
 0002:00006474       ??_C@_0BM@OABDBKAO@xpceGetParamDims?5not?5found?6?$AA@ 10078474     xpcruntime:xpcimports.obj
 0002:00006498       ??_C@_0L@OCBLLHBM@xpceGetTET?$AA@ 10078498     xpcruntime:xpcimports.obj
 0002:000064a8       ??_C@_0BG@HNOFBOB@xpceGetTET?5not?5found?6?$AA@ 100784a8     xpcruntime:xpcimports.obj
 0002:000064c4       ??_C@_0P@OKGNGAGH@xpcIsModelInit?$AA@ 100784c4     xpcruntime:xpcimports.obj
 0002:000064d8       ??_C@_0BK@DHEMLBIM@xpcIsModelInit?5not?5found?6?$AA@ 100784d8     xpcruntime:xpcimports.obj
 0002:000064f8       ??_C@_0BH@KJJLCAOJ@xpcAllocPhysicalMemory?$AA@ 100784f8     xpcruntime:xpcimports.obj
 0002:00006514       ??_C@_0CC@MOJPNHKL@xpcAllocPhysicalMemory?5not?5found@ 10078514     xpcruntime:xpcimports.obj
 0002:0000653c       ??_C@_0BG@CBNPGAEL@xpcFreePhysicalMemory?$AA@ 1007853c     xpcruntime:xpcimports.obj
 0002:00006558       ??_C@_0CB@PKJEBPOG@xpcFreePhysicalMemory?5not?5found?6@ 10078558     xpcruntime:xpcimports.obj
 0002:00006580       ??_C@_0BC@JGKNLICL@xpcGetElapsedTime?$AA@ 10078580     xpcruntime:xpcimports.obj
 0002:00006598       ??_C@_0BN@OEOAHCIO@xpcGetElapsedTime?5not?5found?6?$AA@ 10078598     xpcruntime:xpcimports.obj
 0002:000065bc       ??_C@_0M@ICBLMODA@xpcBusyWait?$AA@ 100785bc     xpcruntime:xpcimports.obj
 0002:000065cc       ??_C@_0BH@FBOPECBI@xpcBusyWait?5not?5found?6?$AA@ 100785cc     xpcruntime:xpcimports.obj
 0002:000065e8       ??_C@_0N@LKKJEKKA@TBCreateSpin?$AA@ 100785e8     xpcruntime:xpcimports.obj
 0002:000065f8       ??_C@_0BI@FHKMLKOE@TBCreateSpin?5not?5found?6?$AA@ 100785f8     xpcruntime:xpcimports.obj
 0002:00006614       ??_C@_0N@HOAJHNBD@TBDeleteSpin?$AA@ 10078614     xpcruntime:xpcimports.obj
 0002:00006624       ??_C@_0BI@BKCPAAG@TBDeleteSpin?5not?5found?6?$AA@ 10078624     xpcruntime:xpcimports.obj
 0002:00006640       ??_C@_0P@DAHDDBJG@TBTakeSpinFast?$AA@ 10078640     xpcruntime:xpcimports.obj
 0002:00006654       ??_C@_0BK@NKAIBHGB@TBTakeSpinFast?5not?5found?6?$AA@ 10078654     xpcruntime:xpcimports.obj
 0002:00006674       ??_C@_0P@FKNAAELA@TBGiveSpinFast?$AA@ 10078674     xpcruntime:xpcimports.obj
 0002:00006688       ??_C@_0BK@KGPJBJND@TBGiveSpinFast?5not?5found?6?$AA@ 10078688     xpcruntime:xpcimports.obj
 0002:000066a8       ??_C@_0BE@IIGBFDHK@xpceCreateSemaphore?$AA@ 100786a8     xpcruntime:xpcimports.obj
 0002:000066c0       ??_C@_0BP@KFBAFFKJ@xpceCreateSemaphore?5not?5found?6?$AA@ 100786c0     xpcruntime:xpcimports.obj
 0002:000066e8       ??_C@_0BC@IFNIONKJ@xpceWaitSemaphore?$AA@ 100786e8     xpcruntime:xpcimports.obj
 0002:00006700       ??_C@_0BN@NMFAADIO@xpceWaitSemaphore?5not?5found?6?$AA@ 10078700     xpcruntime:xpcimports.obj
 0002:00006724       ??_C@_0BE@NNDIOBKE@xpceSignalSemaphore?$AA@ 10078724     xpcruntime:xpcimports.obj
 0002:0000673c       ??_C@_0BP@LBANMHJP@xpceSignalSemaphore?5not?5found?6?$AA@ 1007873c     xpcruntime:xpcimports.obj
 0002:00006764       ??_C@_0BE@MEBEKOIM@xpceDeleteSemaphore?$AA@ 10078764     xpcruntime:xpcimports.obj
 0002:0000677c       ??_C@_0BP@OFNCKOJH@xpceDeleteSemaphore?5not?5found?6?$AA@ 1007877c     xpcruntime:xpcimports.obj
 0002:000067a4       ??_C@_0BD@MFNDMBOF@FindUsbVideoDevice?$AA@ 100787a4     xpcruntime:xpcimports.obj
 0002:000067bc       ??_C@_0BO@POKLDHMI@FindUsbVideoDevice?5not?5found?6?$AA@ 100787bc     xpcruntime:xpcimports.obj
 0002:000067e0       ??_C@_0BA@PLPAPNAB@GetVideoConfigs?$AA@ 100787e0     xpcruntime:xpcimports.obj
 0002:000067f4       ??_C@_0BL@DALDHKHC@GetVideoConfigs?5not?5found?6?$AA@ 100787f4     xpcruntime:xpcimports.obj
 0002:00006814       ??_C@_0L@GBAEMHMH@StartVideo?$AA@ 10078814     xpcruntime:xpcimports.obj
 0002:00006824       ??_C@_0BG@HDCELEBP@StartVideo?5not?5found?6?$AA@ 10078824     xpcruntime:xpcimports.obj
 0002:00006840       ??_C@_0BA@FDNPOCLN@ReadFrameBuffer?$AA@ 10078840     xpcruntime:xpcimports.obj
 0002:00006854       ??_C@_0BL@JHGHPNBI@ReadFrameBuffer?5not?5found?6?$AA@ 10078854     xpcruntime:xpcimports.obj
 0002:00006874       ??_C@_09FAHCLKAG@StopVideo?$AA@ 10078874     xpcruntime:xpcimports.obj
 0002:00006880       ??_C@_0BF@NKGKKADL@StopVideo?5not?5found?6?$AA@ 10078880     xpcruntime:xpcimports.obj
 0002:0000689c       ??_C@_0O@MCPKDLLL@ConvertUImage?$AA@ 1007889c     xpcruntime:xpcimports.obj
 0002:000068ac       ??_C@_0BJ@PHJKOAFL@ConvertUImage?5not?5found?6?$AA@ 100788ac     xpcruntime:xpcimports.obj
 0002:000068cc       ??_C@_0BD@NKCBPBJJ@CreateVideoDisplay?$AA@ 100788cc     xpcruntime:xpcimports.obj
 0002:000068e4       ??_C@_0BO@HPPLLNFP@CreateVideoDisplay?5not?5found?6?$AA@ 100788e4     xpcruntime:xpcimports.obj
 0002:00006908       ??_C@_0BE@KJCKGPHA@DestroyVideoDisplay?$AA@ 10078908     xpcruntime:xpcimports.obj
 0002:00006920       ??_C@_0BP@FMGLJAIJ@DestroyVideoDisplay?5not?5found?6?$AA@ 10078920     xpcruntime:xpcimports.obj
 0002:00006948       ??_C@_0BC@HCMIMIDN@StartVideoDisplay?$AA@ 10078948     xpcruntime:xpcimports.obj
 0002:00006960       ??_C@_0BN@EFIEBGOO@StartVideoDisplay?5not?5found?6?$AA@ 10078960     xpcruntime:xpcimports.obj
 0002:00006984       ??_C@_0BB@JBBLMILG@StopVideoDisplay?$AA@ 10078984     xpcruntime:xpcimports.obj
 0002:00006998       ??_C@_0BM@DBJBPLEL@StopVideoDisplay?5not?5found?6?$AA@ 10078998     xpcruntime:xpcimports.obj
 0002:000069bc       ??_C@_0M@MFJEGMHC@StreamVideo?$AA@ 100789bc     xpcruntime:xpcimports.obj
 0002:000069cc       ??_C@_0BH@OINCDMLA@StreamVideo?5not?5found?6?$AA@ 100789cc     xpcruntime:xpcimports.obj
 0002:000069e8       ??_C@_0N@IGGLCIGE@xpceaddEvent?$AA@ 100789e8     xpcruntime:xpcimports.obj
 0002:000069f8       ??_C@_0BI@NHJNFMKH@xpceaddEvent?5not?5found?6?$AA@ 100789f8     xpcruntime:xpcimports.obj
 0002:00006a14       ??_C@_0BC@MLJODBHJ@slrtStartProfiler?$AA@ 10078a14     xpcruntime:xpcimports.obj
 0002:00006a2c       ??_C@_0BN@HLNCOKA@slrtStartProfiler?5not?5found?6?$AA@ 10078a2c     xpcruntime:xpcimports.obj
 0002:00006a50       ??_C@_0BB@ONJONMCD@slrtStopProfiler?$AA@ 10078a50     xpcruntime:xpcimports.obj
 0002:00006a64       ??_C@_0BM@GAKJEGBA@slrtStopProfiler?5not?5found?6?$AA@ 10078a64     xpcruntime:xpcimports.obj
 0002:00006a88       ??_C@_0BF@EILBHBBF@slrtGetProfilerState?$AA@ 10078a88     xpcruntime:xpcimports.obj
 0002:00006aa4       ??_C@_0CA@EDDFOCLE@slrtGetProfilerState?5not?5found?6?$AA@ 10078aa4     xpcruntime:xpcimports.obj
 0002:00006acc       ??_C@_0BB@HDPOIJAB@xpceDAQPostEvent?$AA@ 10078acc     xpcruntime:xpcimports.obj
 0002:00006ae0       ??_C@_0BM@IHANBKGN@xpceDAQPostEvent?5not?5found?6?$AA@ 10078ae0     xpcruntime:xpcimports.obj
 0002:00006b04       ??_C@_0BH@MBACMOD@xpceDAQUpdateTimeStamp?$AA@ 10078b04     xpcruntime:xpcimports.obj
 0002:00006b20       ??_C@_0CC@DAKBBINL@xpceDAQUpdateTimeStamp?5not?5found@ 10078b20     xpcruntime:xpcimports.obj
 0002:00006b48       ??_C@_0BG@CCHICKPN@slrteSetStepSizeDelta?$AA@ 10078b48     xpcruntime:xpcimports.obj
 0002:00006b64       ??_C@_0CB@MKHINEIJ@slrteSetStepSizeDelta?5not?5found?6@ 10078b64     xpcruntime:xpcimports.obj
 0002:00006b8c       ??_C@_0BI@CLNBLDKJ@slrteGetCurrentStepSize?$AA@ 10078b8c     xpcruntime:xpcimports.obj
 0002:00006ba8       ??_C@_0CD@GIOJPGJA@slrteGetCurrentStepSize?5not?5foun@ 10078ba8     xpcruntime:xpcimports.obj
 0002:00006bd4       ??_C@_0BE@FCLCBOC@registerPTPTimeRead?$AA@ 10078bd4     xpcruntime:xpcimports.obj
 0002:00006bec       ??_C@_0BP@LHPKAJIP@registerPTPTimeRead?5not?5found?6?$AA@ 10078bec     xpcruntime:xpcimports.obj
 0002:00006c14       ??_C@_0BG@KIGCDDJI@unRegisterPTPTimeRead?$AA@ 10078c14     xpcruntime:xpcimports.obj
 0002:00006c30       ??_C@_0CB@MLFFBFCM@unRegisterPTPTimeRead?5not?5found?6@ 10078c30     xpcruntime:xpcimports.obj
 0002:00006c58       ??_C@_0BB@IPMDDBHK@slTestInitialize?$AA@ 10078c58     xpcruntime:xpcimports.obj
 0002:00006c6c       ??_C@_0BM@LAJFCCJH@slTestInitialize?5not?5found?6?$AA@ 10078c6c     xpcruntime:xpcimports.obj
 0002:00006c90       ??_C@_0BF@OOMPMEBC@slTestLogAssessments?$AA@ 10078c90     xpcruntime:xpcimports.obj
 0002:00006cac       ??_C@_0CA@FGJCEBAG@slTestLogAssessments?5not?5found?6?$AA@ 10078cac     xpcruntime:xpcimports.obj
 0002:00006cd4       ??_C@_0BB@HJHKONHO@slTestEvalOnFail?$AA@ 10078cd4     xpcruntime:xpcimports.obj
 0002:00006ce8       ??_C@_0BM@JIKCFFNJ@slTestEvalOnFail?5not?5found?6?$AA@ 10078ce8     xpcruntime:xpcimports.obj
 0002:00006d0c       ??_C@_0BA@LBHLABFP@slTestTerminate?$AA@ 10078d0c     xpcruntime:xpcimports.obj
 0002:00006d20       ??_C@_0BL@EMFGKAPA@slTestTerminate?5not?5found?6?$AA@ 10078d20     xpcruntime:xpcimports.obj
 0002:00006d40       ??_C@_0BE@JPNPBBEO@slTestRegAssessment?$AA@ 10078d40     xpcruntime:xpcimports.obj
 0002:00006d58       ??_C@_0BP@FBDEJJJH@slTestRegAssessment?5not?5found?6?$AA@ 10078d58     xpcruntime:xpcimports.obj
 0002:00006d80       ??_C@_0O@NCLGDNIB@slrteSetupMSI?$AA@ 10078d80     xpcruntime:xpcimports.obj
 0002:00006d90       ??_C@_0BJ@HEFMECLM@slrteSetupMSI?5not?5found?6?$AA@ 10078d90     xpcruntime:xpcimports.obj
 0002:00006db0       ??_C@_0BH@BPOLALHD@slrtGetCRBScratchSpace?$AA@ 10078db0     xpcruntime:xpcimports.obj
 0002:00006dcc       ??_C@_0CC@KCKAJKKJ@slrtGetCRBScratchSpace?5not?5found@ 10078dcc     xpcruntime:xpcimports.obj
 0002:00006df4       ??_C@_0BC@MKFDAKOL@slrtGetSgCRBSpace?$AA@ 10078df4     xpcruntime:xpcimports.obj
 0002:00006e0c       ??_C@_0BN@JDPHPLHL@slrtGetSgCRBSpace?5not?5found?6?$AA@ 10078e0c     xpcruntime:xpcimports.obj
 0002:00006e30       ??_C@_0P@EPAPKLIF@slrtfsOpenFile?$AA@ 10078e30     xpcruntime:xpcimports.obj
 0002:00006e44       ??_C@_0BK@FIHCBOHG@slrtfsOpenFile?5not?5found?6?$AA@ 10078e44     xpcruntime:xpcimports.obj
 0002:00006e64       ??_C@_0BA@LILAFDDL@slrtfsCloseFile?$AA@ 10078e64     xpcruntime:xpcimports.obj
 0002:00006e78       ??_C@_0BL@DEGHJFIB@slrtfsCloseFile?5not?5found?6?$AA@ 10078e78     xpcruntime:xpcimports.obj
 0002:00006e98       ??_C@_0BC@OKMJDIEH@slrtfsWriteToFile?$AA@ 10078e98     xpcruntime:xpcimports.obj
 0002:00006eb0       ??_C@_0BN@KCFLCLAH@slrtfsWriteToFile?5not?5found?6?$AA@ 10078eb0     xpcruntime:xpcimports.obj
 0002:00006ed4       ??_C@_0BK@GIPNFFFF@slrtfsGetFileErrorMessage?$AA@ 10078ed4     xpcruntime:xpcimports.obj
 0002:00006ef4       ??_C@_0CF@BCBLMKLE@slrtfsGetFileErrorMessage?5not?5fo@ 10078ef4     xpcruntime:xpcimports.obj
 0002:00006f20       ??_C@_0BD@ICBOKMK@slrtfsGetFileError?$AA@ 10078f20     xpcruntime:xpcimports.obj
 0002:00006f38       ??_C@_0BO@FNBANAE@slrtfsGetFileError?5not?5found?6?$AA@ 10078f38     xpcruntime:xpcimports.obj
 0002:00006f5c       ??_C@_0BE@PPAJMHJP@slrtfsOpenFileAsync?$AA@ 10078f5c     xpcruntime:xpcimports.obj
 0002:00006f74       ??_C@_0BP@HKBMMJOK@slrtfsOpenFileAsync?5not?5found?6?$AA@ 10078f74     xpcruntime:xpcimports.obj
 0002:00006f9c       ??_C@_0BF@IGNDIBPF@slrtfsCloseFileAsync?$AA@ 10078f9c     xpcruntime:xpcimports.obj
 0002:00006fb8       ??_C@_0CA@GJPFDBKN@slrtfsCloseFileAsync?5not?5found?6?$AA@ 10078fb8     xpcruntime:xpcimports.obj
 0002:00006fe0       ??_C@_0BE@IOLEBNB@slrtfsGetFileStatus?$AA@ 10078fe0     xpcruntime:xpcimports.obj
 0002:00006ff8       ??_C@_0BP@PEFHDGHL@slrtfsGetFileStatus?5not?5found?6?$AA@ 10078ff8     xpcruntime:xpcimports.obj
 0002:00007020       ??_C@_0M@HKIJIMG@slrtfsFread?$AA@ 10079020     xpcruntime:xpcimports.obj
 0002:00007030       ??_C@_0BH@OOKBGONO@slrtfsFread?5not?5found?6?$AA@ 10079030     xpcruntime:xpcimports.obj
 0002:0000704c       ??_C@_0BE@OGCMPLAP@slrtGetDefaultDrive?$AA@ 1007904c     xpcruntime:xpcimports.obj
 0002:00007064       ??_C@_0BP@HKFGLHOE@slrtGetDefaultDrive?5not?5found?6?$AA@ 10079064     xpcruntime:xpcimports.obj
 0002:0000708c       ??_C@_0N@NAJIKFFI@slrtLogEvent?$AA@ 1007908c     xpcruntime:xpcimports.obj
 0002:0000709c       ??_C@_0BI@NKCEACND@slrtLogEvent?5not?5found?6?$AA@ 1007909c     xpcruntime:xpcimports.obj
 0002:000070b8       ??_C@_0N@IDKFJOHI@getlasterror?$AA@ 100790b8     xpcruntime:xpcimports.obj
 0002:000070c8       ??_C@_0BI@MIHMCHGL@getlasterror?5not?5found?6?$AA@ 100790c8     xpcruntime:xpcimports.obj
 0002:000070e4       ??_C@_0P@OKHGKJKN@geterrorstring?$AA@ 100790e4     xpcruntime:xpcimports.obj
 0002:000070f8       ??_C@_0BK@NOHFDMLP@geterrorstring?5not?5found?6?$AA@ 100790f8     xpcruntime:xpcimports.obj
 0002:00007118       ??_C@_0BD@HNFFKMGJ@slrtGetCPUTCelsius?$AA@ 10079118     xpcruntime:xpcimports.obj
 0002:00007130       ??_C@_0BO@LHBFKLIH@slrtGetCPUTCelsius?5not?5found?6?$AA@ 10079130     xpcruntime:xpcimports.obj
 0002:00007154       ??_C@_0M@OONCNCLM@slrtWarning?$AA@ 10079154     xpcruntime:xpcimports.obj
 0002:00007164       ??_C@_0BH@ICKGIEMB@slrtWarning?5not?5found?6?$AA@ 10079164     xpcruntime:xpcimports.obj
 0002:00007180       ??_C@_0M@JACEPOPN@registerNIC?$AA@ 10079180     xpcruntime:xpcimports.obj
 0002:00007190       ??_C@_0BH@JMDHJIAC@registerNIC?5not?5found?6?$AA@ 10079190     xpcruntime:xpcimports.obj
 0002:000071ac       ??_C@_0M@KBKHECFH@NICSetIface?$AA@ 100791ac     xpcruntime:xpcimports.obj
 0002:000071bc       ??_C@_0BH@NJAHOBA@NICSetIface?5not?5found?6?$AA@ 100791bc     xpcruntime:xpcimports.obj
 0002:000071d8       ??_C@_0M@FAILFBCK@NICGetIface?$AA@ 100791d8     xpcruntime:xpcimports.obj
 0002:000071e8       ??_C@_0BH@KDLLDOGM@NICGetIface?5not?5found?6?$AA@ 100791e8     xpcruntime:xpcimports.obj
 0002:00007204       ??_C@_0L@JNFPDPO@releaseNIC?$AA@ 10079204     xpcruntime:xpcimports.obj
 0002:00007214       ??_C@_0BG@EBGJANLA@releaseNIC?5not?5found?6?$AA@ 10079214     xpcruntime:xpcimports.obj
 0002:00007230       ??_C@_0BC@HLDKJAG@SetIPTASKPriority?$AA@ 10079230     xpcruntime:xpcimports.obj
 0002:00007248       ??_C@_0BN@OGKMHHAE@SetIPTASKPriority?5not?5found?6?$AA@ 10079248     xpcruntime:xpcimports.obj
 0002:0000726c       ??_C@_0O@LHENMBDD@OpenInterface?$AA@ 1007926c     xpcruntime:xpcimports.obj
 0002:0000727c       ??_C@_0BJ@PFGDBKHB@OpenInterface?5not?5found?6?$AA@ 1007927c     xpcruntime:xpcimports.obj
 0002:0000729c       ??_C@_0P@IINFELKD@CloseInterface?$AA@ 1007929c     xpcruntime:xpcimports.obj
 0002:000072b0       ??_C@_0BK@PAPDNDBK@CloseInterface?5not?5found?6?$AA@ 100792b0     xpcruntime:xpcimports.obj
 0002:000072d0       ??_C@_05LEFIAAOI@SetIP?$AA@ 100792d0     xpcruntime:xpcimports.obj
 0002:000072d8       ??_C@_0BB@CGLIBAMM@SetIP?5not?5found?6?$AA@ 100792d8     xpcruntime:xpcimports.obj
 0002:000072ec       ??_C@_0BA@HIJJHHMD@AddGatewayRoute?$AA@ 100792ec     xpcruntime:xpcimports.obj
 0002:00007300       ??_C@_0BL@BFCFMDMN@AddGatewayRoute?5not?5found?6?$AA@ 10079300     xpcruntime:xpcimports.obj
 0002:00007320       ??_C@_0M@PHMABFPI@DeleteRoute?$AA@ 10079320     xpcruntime:xpcimports.obj
 0002:00007330       ??_C@_0BH@JPJGLLID@DeleteRoute?5not?5found?6?$AA@ 10079330     xpcruntime:xpcimports.obj
 0002:0000734c       ??_C@_0BA@FCDIMKIJ@GetHostTarIPAdd?$AA@ 1007934c     xpcruntime:xpcimports.obj
 0002:00007360       ??_C@_0BL@MBKDGKBO@GetHostTarIPAdd?5not?5found?6?$AA@ 10079360     xpcruntime:xpcimports.obj
 0002:00007380       ??_C@_0M@HPMIPIBI@GetDCUUsage?$AA@ 10079380     xpcruntime:xpcimports.obj
 0002:00007390       ??_C@_0BH@EBLJKCJC@GetDCUUsage?5not?5found?6?$AA@ 10079390     xpcruntime:xpcimports.obj
 0002:000073ac       ??_C@_06MPKMECK@accept?$AA@ 100793ac     xpcruntime:xpcimports.obj
 0002:000073b4       ??_C@_0BC@GBGIEMNO@accept?5not?5found?6?$AA@ 100793b4     xpcruntime:xpcimports.obj
 0002:000073cc       ??_C@_04NPNJNMMP@bind?$AA@ 100793cc     xpcruntime:xpcimports.obj
 0002:000073d4       ??_C@_0BA@DAJNENLO@bind?5not?5found?6?$AA@ 100793d4     xpcruntime:xpcimports.obj
 0002:000073e8       ??_C@_0L@CKHNIFCM@setsockopt?$AA@ 100793e8     xpcruntime:xpcimports.obj
 0002:000073f8       ??_C@_0BG@MFIIOMFE@setsockopt?5not?5found?6?$AA@ 100793f8     xpcruntime:xpcimports.obj
 0002:00007414       ??_C@_0M@ODDJDCDK@closesocket?$AA@ 10079414     xpcruntime:xpcimports.obj
 0002:00007424       ??_C@_0BH@JHGHMIL@closesocket?5not?5found?6?$AA@ 10079424     xpcruntime:xpcimports.obj
 0002:00007440       ??_C@_07KAIBNCHO@connect?$AA@ 10079440     xpcruntime:xpcimports.obj
 0002:0000744c       ??_C@_0BD@MKLLMBM@connect?5not?5found?6?$AA@ 1007944c     xpcruntime:xpcimports.obj
 0002:00007464       ??_C@_0M@PBPOCKDG@ioctlsocket?$AA@ 10079464     xpcruntime:xpcimports.obj
 0002:00007474       ??_C@_0BH@NFCNHHIH@ioctlsocket?5not?5found?6?$AA@ 10079474     xpcruntime:xpcimports.obj
 0002:00007490       ??_C@_06OODDLKLE@listen?$AA@ 10079490     xpcruntime:xpcimports.obj
 0002:00007498       ??_C@_0BC@NHBILEKI@listen?5not?5found?6?$AA@ 10079498     xpcruntime:xpcimports.obj
 0002:000074b0       ??_C@_08HMBBGFHE@recvfrom?$AA@ 100794b0     xpcruntime:xpcimports.obj
 0002:000074bc       ??_C@_0BE@BJAJFFLF@recvfrom?5not?5found?6?$AA@ 100794bc     xpcruntime:xpcimports.obj
 0002:000074d4       ??_C@_06MEPBGKEC@sendto?$AA@ 100794d4     xpcruntime:xpcimports.obj
 0002:000074dc       ??_C@_0BC@BHPIMDJO@sendto?5not?5found?6?$AA@ 100794dc     xpcruntime:xpcimports.obj
 0002:000074f4       ??_C@_09JKBDEEOB@inet_addr?$AA@ 100794f4     xpcruntime:xpcimports.obj
 0002:00007500       ??_C@_0BF@HKJPGECN@inet_addr?5not?5found?6?$AA@ 10079500     xpcruntime:xpcimports.obj
 0002:0000751c       ??_C@_06HBELJPBO@socket?$AA@ 1007951c     xpcruntime:xpcimports.obj
 0002:00007524       ??_C@_0BC@NAGFFJGA@socket?5not?5found?6?$AA@ 10079524     xpcruntime:xpcimports.obj
 0002:0000753c       ??_C@_09ICJIFGNC@GetSocket?$AA@ 1007953c     xpcruntime:xpcimports.obj
 0002:00007548       ??_C@_0BF@KDBCKMOJ@GetSocket?5not?5found?6?$AA@ 10079548     xpcruntime:xpcimports.obj
 0002:00007564       ??_C@_0P@KJEGJMJI@GetSocketState?$AA@ 10079564     xpcruntime:xpcimports.obj
 0002:00007578       ??_C@_0BK@IALBJHEB@GetSocketState?5not?5found?6?$AA@ 10079578     xpcruntime:xpcimports.obj
 0002:00007598       ??_C@_0L@MEAJHNHB@SocketSend?$AA@ 10079598     xpcruntime:xpcimports.obj
 0002:000075a8       ??_C@_0BG@EOCMBFJA@SocketSend?5not?5found?6?$AA@ 100795a8     xpcruntime:xpcimports.obj
 0002:000075c4       ??_C@_0O@PFPCLEMF@SocketReceive?$AA@ 100795c4     xpcruntime:xpcimports.obj
 0002:000075d4       ??_C@_0BJ@HIBADDFO@SocketReceive?5not?5found?6?$AA@ 100795d4     xpcruntime:xpcimports.obj
 0002:000075f4       ??_C@_0BD@OOGFNAIK@CreateServerSocket?$AA@ 100795f4     xpcruntime:xpcimports.obj
 0002:0000760c       ??_C@_0BO@GKIJHIPH@CreateServerSocket?5not?5found?6?$AA@ 1007960c     xpcruntime:xpcimports.obj
 0002:00007630       ??_C@_0BB@KGHJGFFO@OpenServerListen?$AA@ 10079630     xpcruntime:xpcimports.obj
 0002:00007644       ??_C@_0BM@NFMMLIO@OpenServerListen?5not?5found?6?$AA@ 10079644     xpcruntime:xpcimports.obj
 0002:00007668       ??_C@_0BE@BAJLDJAH@ConnectServerSocket?$AA@ 10079668     xpcruntime:xpcimports.obj
 0002:00007680       ??_C@_0BP@KJNODIKE@ConnectServerSocket?5not?5found?6?$AA@ 10079680     xpcruntime:xpcimports.obj
 0002:000076a8       ??_C@_0BC@PLKKJDIM@CloseServerSocket?$AA@ 100796a8     xpcruntime:xpcimports.obj
 0002:000076c0       ??_C@_0BN@KEJEPNMB@CloseServerSocket?5not?5found?6?$AA@ 100796c0     xpcruntime:xpcimports.obj
 0002:000076e4       ??_C@_0BC@IHMNIGFJ@ResetServerSocket?$AA@ 100796e4     xpcruntime:xpcimports.obj
 0002:000076fc       ??_C@_0BN@NIOGJLCG@ResetServerSocket?5not?5found?6?$AA@ 100796fc     xpcruntime:xpcimports.obj
 0002:00007720       ??_C@_0BD@MCLPKCPP@CreateClientSocket?$AA@ 10079720     xpcruntime:xpcimports.obj
 0002:00007738       ??_C@_0BO@DILAGPFN@CreateClientSocket?5not?5found?6?$AA@ 10079738     xpcruntime:xpcimports.obj
 0002:0000775c       ??_C@_0BB@DAPKNNLG@BindClientSocket?$AA@ 1007975c     xpcruntime:xpcimports.obj
 0002:00007770       ??_C@_0BM@LLLMMDFN@BindClientSocket?5not?5found?6?$AA@ 10079770     xpcruntime:xpcimports.obj
 0002:00007794       ??_C@_0BE@DMEBELHC@ConnectClientSocket?$AA@ 10079794     xpcruntime:xpcimports.obj
 0002:000077ac       ??_C@_0BP@PLOHCPAO@ConnectClientSocket?5not?5found?6?$AA@ 100797ac     xpcruntime:xpcimports.obj
 0002:000077d4       ??_C@_0BC@NHHAOBPJ@CloseClientSocket?$AA@ 100797d4     xpcruntime:xpcimports.obj
 0002:000077ec       ??_C@_0BN@PGKNOKGL@CloseClientSocket?5not?5found?6?$AA@ 100797ec     xpcruntime:xpcimports.obj
 0002:00007810       ??_C@_0BC@KLBHPECM@ResetClientSocket?$AA@ 10079810     xpcruntime:xpcimports.obj
 0002:00007828       ??_C@_0BN@IKNPIMIM@ResetClientSocket?5not?5found?6?$AA@ 10079828     xpcruntime:xpcimports.obj
 0002:0000784c       ??_C@_0M@IJOPFCCE@UDPOpenSend?$AA@ 1007984c     xpcruntime:xpcimports.obj
 0002:0000785c       ??_C@_0BH@CCHBDPG@UDPOpenSend?5not?5found?6?$AA@ 1007985c     xpcruntime:xpcimports.obj
 0002:00007878       ??_C@_0P@MEPACHPD@UDPOpenReceive?$AA@ 10079878     xpcruntime:xpcimports.obj
 0002:0000788c       ??_C@_0BK@PFMCPKIO@UDPOpenReceive?5not?5found?6?$AA@ 1007988c     xpcruntime:xpcimports.obj
 0002:000078ac       ??_C@_0N@NMMOLOEM@UDPCloseSend?$AA@ 100798ac     xpcruntime:xpcimports.obj
 0002:000078bc       ??_C@_0BI@ENKCOCDG@UDPCloseSend?5not?5found?6?$AA@ 100798bc     xpcruntime:xpcimports.obj
 0002:000078d8       ??_C@_0BA@DMJGBBIA@UDPCloseReceive?$AA@ 100798d8     xpcruntime:xpcimports.obj
 0002:000078ec       ??_C@_0BL@PEBIMLNC@UDPCloseReceive?5not?5found?6?$AA@ 100798ec     xpcruntime:xpcimports.obj
 0002:00007910       __real@0000000000000000    10079910     xpcruntime:xpcPCFunctions.obj
 0002:00007920       __real@3f538bcdfefbf402    10079920     xpcruntime:xpcPCFunctions.obj
 0002:00007930       __real@40112e0be826d695    10079930     xpcruntime:xpcPCFunctions.obj
 0002:000079e8       __pDefaultRawDllMain       100799e8     LIBCMT:dll_dllmain.obj
 0002:000079e8       __pRawDllMain              100799e8     LIBCMT:dll_dllmain.obj
 0002:00007bdc       ??_C@_08EHJDFFNH@__based?$CI?$AA@ 10079bdc     libvcruntime:undname.obj
 0002:00007be8       ??_C@_07KOLFKCDI@__cdecl?$AA@ 10079be8     libvcruntime:undname.obj
 0002:00007bf4       ??_C@_08GHMPAG@__pascal?$AA@ 10079bf4     libvcruntime:undname.obj
 0002:00007c00       ??_C@_09IFJBGAPI@__stdcall?$AA@ 10079c00     libvcruntime:undname.obj
 0002:00007c0c       ??_C@_0L@NPHFGOKO@__thiscall?$AA@ 10079c0c     libvcruntime:undname.obj
 0002:00007c1c       ??_C@_0L@JMKHOMEK@__fastcall?$AA@ 10079c1c     libvcruntime:undname.obj
 0002:00007c2c       ??_C@_0N@BCKKPABJ@__vectorcall?$AA@ 10079c2c     libvcruntime:undname.obj
 0002:00007c3c       ??_C@_09HIJEGCPM@__clrcall?$AA@ 10079c3c     libvcruntime:undname.obj
 0002:00007c48       ??_C@_06GHPCKEAG@__eabi?$AA@ 10079c48     libvcruntime:undname.obj
 0002:00007c50       ??_C@_07EECFKIPL@__swift?$AA@ 10079c50     libvcruntime:undname.obj
 0002:00007c5c       ??_C@_07JOMMBBKO@__ptr64?$AA@ 10079c5c     libvcruntime:undname.obj
 0002:00007c68       ??_C@_0L@PILCLIHE@__restrict?$AA@ 10079c68     libvcruntime:undname.obj
 0002:00007c78       ??_C@_0M@GFIIJFMG@__unaligned?$AA@ 10079c78     libvcruntime:undname.obj
 0002:00007c88       ??_C@_09DHDLOLLB@restrict?$CI?$AA@ 10079c88     libvcruntime:undname.obj
 0002:00007c94       ??_C@_04NIHEBCM@?5new?$AA@ 10079c94     libvcruntime:undname.obj
 0002:00007c9c       ??_C@_07FPCDHGMM@?5delete?$AA@ 10079c9c     libvcruntime:undname.obj
 0002:00007ca8       ??_C@_01NEMOKFLO@?$DN?$AA@ 10079ca8     libvcruntime:undname.obj
 0002:00007cac       ??_C@_02GPIOPFAK@?$DO?$DO?$AA@ 10079cac     libvcruntime:undname.obj
 0002:00007cb0       ??_C@_02FODMEDOG@?$DM?$DM?$AA@ 10079cb0     libvcruntime:undname.obj
 0002:00007cb4       ??_C@_01DCLJPIOD@?$CB?$AA@ 10079cb4     libvcruntime:undname.obj
 0002:00007cb8       ??_C@_02EGOFBIJA@?$DN?$DN?$AA@ 10079cb8     libvcruntime:undname.obj
 0002:00007cbc       ??_C@_02FDNJECIE@?$CB?$DN?$AA@ 10079cbc     libvcruntime:undname.obj
 0002:00007cc0       ??_C@_02GPECMEKF@?$FL?$FN?$AA@ 10079cc0     libvcruntime:undname.obj
 0002:00007cc4       ??_C@_08LHJFAFGD@operator?$AA@ 10079cc4     libvcruntime:undname.obj
 0002:00007cd0       ??_C@_02HBOOOICD@?9?$DO?$AA@ 10079cd0     libvcruntime:undname.obj
 0002:00007cd4       ??_C@_01NBENCBCI@?$CK?$AA@ 10079cd4     libvcruntime:undname.obj
 0002:00007cd8       ??_C@_02ECNGHCIF@?$CL?$CL?$AA@ 10079cd8     libvcruntime:undname.obj
 0002:00007cdc       ??_C@_02BAABKJLB@?9?9?$AA@ 10079cdc     libvcruntime:undname.obj
 0002:00007ce0       ??_C@_01JOAMLHOP@?9?$AA@   10079ce0     libvcruntime:undname.obj
 0002:00007ce4       ??_C@_01MIFGBAGJ@?$CL?$AA@ 10079ce4     libvcruntime:undname.obj
 0002:00007ce8       ??_C@_01HNPIGOCE@?$CG?$AA@ 10079ce8     libvcruntime:undname.obj
 0002:00007cec       ??_C@_03MNHNFDLC@?9?$DO?$CK?$AA@ 10079cec     libvcruntime:undname.obj
 0002:00007cf0       ??_C@_01KMDKNFGN@?1?$AA@   10079cf0     libvcruntime:undname.obj
 0002:00007cf4       ??_C@_01FGNFDNOH@?$CF?$AA@ 10079cf4     libvcruntime:undname.obj
 0002:00007cf8       ??_C@_01MNNFJEPP@?$DM?$AA@ 10079cf8     libvcruntime:undname.obj
 0002:00007cfc       ??_C@_02EHCHHCKH@?$DM?$DN?$AA@ 10079cfc     libvcruntime:undname.obj
 0002:00007d00       ??_C@_01PPODPGHN@?$DO?$AA@ 10079d00     libvcruntime:undname.obj
 0002:00007d04       ??_C@_02EEKDKGMJ@?$DO?$DN?$AA@ 10079d04     libvcruntime:undname.obj
 0002:00007d08       ??_C@_01IHBHIGKO@?0?$AA@   10079d08     libvcruntime:undname.obj
 0002:00007d0c       ??_C@_02HCKGKOFO@?$CI?$CJ?$AA@ 10079d0c     libvcruntime:undname.obj
 0002:00007d10       ??_C@_01PJKLJHI@?$HO?$AA@  10079d10     libvcruntime:undname.obj
 0002:00007d14       ??_C@_01JKBOJNNK@?$FO?$AA@ 10079d14     libvcruntime:undname.obj
 0002:00007d18       ??_C@_01DNKMNLPK@?$HM?$AA@ 10079d18     libvcruntime:undname.obj
 0002:00007d1c       ??_C@_02PPKAJPJL@?$CG?$CG?$AA@ 10079d1c     libvcruntime:undname.obj
 0002:00007d20       ??_C@_02NONPIBCD@?$HM?$HM?$AA@ 10079d20     libvcruntime:undname.obj
 0002:00007d24       ??_C@_02FPIMKNGF@?$CK?$DN?$AA@ 10079d24     libvcruntime:undname.obj
 0002:00007d28       ??_C@_02FOEOMHFC@?$CL?$DN?$AA@ 10079d28     libvcruntime:undname.obj
 0002:00007d2c       ??_C@_02FKMDLLOA@?9?$DN?$AA@ 10079d2c     libvcruntime:undname.obj
 0002:00007d30       ??_C@_02FJEHGPIO@?1?$DN?$AA@ 10079d30     libvcruntime:undname.obj
 0002:00007d34       ??_C@_02FENAOKFI@?$CF?$DN?$AA@ 10079d34     libvcruntime:undname.obj
 0002:00007d38       ??_C@_03IKFCCPFF@?$DO?$DO?$DN?$AA@ 10079d38     libvcruntime:undname.obj
 0002:00007d3c       ??_C@_03CDNPDDLA@?$DM?$DM?$DN?$AA@ 10079d3c     libvcruntime:undname.obj
 0002:00007d40       ??_C@_02FGJGFEAB@?$CG?$DN?$AA@ 10079d40     libvcruntime:undname.obj
 0002:00007d44       ??_C@_02DHLNPPGH@?$HM?$DN?$AA@ 10079d44     libvcruntime:undname.obj
 0002:00007d48       ??_C@_02MHEGNOJ@?$FO?$DN?$AA@ 10079d48     libvcruntime:undname.obj
 0002:00007d4c       ??_C@_09IFPLHPGF@?$GAvftable?8?$AA@ 10079d4c     libvcruntime:undname.obj
 0002:00007d58       ??_C@_09BLBHBJP@?$GAvbtable?8?$AA@ 10079d58     libvcruntime:undname.obj
 0002:00007d64       ??_C@_07FEEIOKP@?$GAvcall?8?$AA@ 10079d64     libvcruntime:undname.obj
 0002:00007d70       ??_C@_08LLFFHHDJ@?$GAtypeof?8?$AA@ 10079d70     libvcruntime:undname.obj
 0002:00007d7c       ??_C@_0BF@KDPPACIK@?$GAlocal?5static?5guard?8?$AA@ 10079d7c     libvcruntime:undname.obj
 0002:00007d98       ??_C@_08OBABFOLI@?$GAstring?8?$AA@ 10079d98     libvcruntime:undname.obj
 0002:00007da4       ??_C@_0BD@JDLKDPAB@?$GAvbase?5destructor?8?$AA@ 10079da4     libvcruntime:undname.obj
 0002:00007dbc       ??_C@_0BN@DEGPLNFK@?$GAvector?5deleting?5destructor?8?$AA@ 10079dbc     libvcruntime:undname.obj
 0002:00007de0       ??_C@_0BO@OBMKPJIG@?$GAdefault?5constructor?5closure?8?$AA@ 10079de0     libvcruntime:undname.obj
 0002:00007e04       ??_C@_0BN@IMDCHIKM@?$GAscalar?5deleting?5destructor?8?$AA@ 10079e04     libvcruntime:undname.obj
 0002:00007e28       ??_C@_0BO@PFGOCPJJ@?$GAvector?5constructor?5iterator?8?$AA@ 10079e28     libvcruntime:undname.obj
 0002:00007e4c       ??_C@_0BN@LFPFMEDL@?$GAvector?5destructor?5iterator?8?$AA@ 10079e4c     libvcruntime:undname.obj
 0002:00007e70       ??_C@_0CE@IKBNEHA@?$GAvector?5vbase?5constructor?5iterat@ 10079e70     libvcruntime:undname.obj
 0002:00007e9c       ??_C@_0BL@NILFHHPC@?$GAvirtual?5displacement?5map?8?$AA@ 10079e9c     libvcruntime:undname.obj
 0002:00007ebc       ??_C@_0CB@JONCMFFK@?$GAeh?5vector?5constructor?5iterator?8@ 10079ebc     libvcruntime:undname.obj
 0002:00007ee4       ??_C@_0CA@GCEOPDGL@?$GAeh?5vector?5destructor?5iterator?8?$AA@ 10079ee4     libvcruntime:undname.obj
 0002:00007f0c       ??_C@_0CH@OOJPLCPH@?$GAeh?5vector?5vbase?5constructor?5ite@ 10079f0c     libvcruntime:undname.obj
 0002:00007f3c       ??_C@_0BL@LLKPOHJI@?$GAcopy?5constructor?5closure?8?$AA@ 10079f3c     libvcruntime:undname.obj
 0002:00007f5c       ??_C@_0BA@KBCDOMBN@?$GAudt?5returning?8?$AA@ 10079f5c     libvcruntime:undname.obj
 0002:00007f70       ??_C@_03KLGMFNMG@?$GAEH?$AA@ 10079f70     libvcruntime:undname.obj
 0002:00007f74       ??_C@_05KHLCHHI@?$GARTTI?$AA@ 10079f74     libvcruntime:undname.obj
 0002:00007f7c       ??_C@_0BA@KKLDJDLB@?$GAlocal?5vftable?8?$AA@ 10079f7c     libvcruntime:undname.obj
 0002:00007f90       ??_C@_0CE@IIHCMGGL@?$GAlocal?5vftable?5constructor?5closu@ 10079f90     libvcruntime:undname.obj
 0002:00007fbc       ??_C@_06FHBGPFGH@?5new?$FL?$FN?$AA@ 10079fbc     libvcruntime:undname.obj
 0002:00007fc4       ??_C@_09LBNFPBCA@?5delete?$FL?$FN?$AA@ 10079fc4     libvcruntime:undname.obj
 0002:00007fd0       ??_C@_0P@HJKNJFNN@?$GAomni?5callsig?8?$AA@ 10079fd0     libvcruntime:undname.obj
 0002:00007fe4       ??_C@_0BL@CNOONJFP@?$GAplacement?5delete?5closure?8?$AA@ 10079fe4     libvcruntime:undname.obj
 0002:00008004       ??_C@_0BN@CKNJLHMB@?$GAplacement?5delete?$FL?$FN?5closure?8?$AA@ 1007a004     libvcruntime:undname.obj
 0002:00008028       ??_C@_0CG@CFDHKGGD@?$GAmanaged?5vector?5constructor?5iter@ 1007a028     libvcruntime:undname.obj
 0002:00008058       ??_C@_0CF@IMGKMJNO@?$GAmanaged?5vector?5destructor?5itera@ 1007a058     libvcruntime:undname.obj
 0002:00008084       ??_C@_0CG@HLDDJMAG@?$GAeh?5vector?5copy?5constructor?5iter@ 1007a084     libvcruntime:undname.obj
 0002:000080b4       ??_C@_0CM@FCBBDIGB@?$GAeh?5vector?5vbase?5copy?5constructo@ 1007a0b4     libvcruntime:undname.obj
 0002:000080e8       ??_C@_0BL@CLIPGLGB@?$GAdynamic?5initializer?5for?5?8?$AA@ 1007a0e8     libvcruntime:undname.obj
 0002:00008108       ??_C@_0CB@PDBIFEP@?$GAdynamic?5atexit?5destructor?5for?5?8@ 1007a108     libvcruntime:undname.obj
 0002:00008130       ??_C@_0CD@CGAJBKEJ@?$GAvector?5copy?5constructor?5iterato@ 1007a130     libvcruntime:undname.obj
 0002:0000815c       ??_C@_0CJ@GJELGAMM@?$GAvector?5vbase?5copy?5constructor?5i@ 1007a15c     libvcruntime:undname.obj
 0002:00008190       ??_C@_0CL@FGIJHLCE@?$GAmanaged?5vector?5copy?5constructor@ 1007a190     libvcruntime:undname.obj
 0002:000081c4       ??_C@_0BM@PMGGMLDN@?$GAlocal?5static?5thread?5guard?8?$AA@ 1007a1c4     libvcruntime:undname.obj
 0002:000081e8       ??_C@_0N@BDNMDMOL@operator?5?$CC?$CC?5?$AA@ 1007a1e8     libvcruntime:undname.obj
 0002:000081f8       ??_C@_0BC@GGEBGALA@operator?5co_await?$AA@ 1007a1f8     libvcruntime:undname.obj
 0002:00008210       ??_C@_0BC@DAFEJGAK@?5Type?5Descriptor?8?$AA@ 1007a210     libvcruntime:undname.obj
 0002:00008228       ??_C@_0BM@LDKODKLH@?5Base?5Class?5Descriptor?5at?5?$CI?$AA@ 1007a228     libvcruntime:undname.obj
 0002:0000824c       ??_C@_0BD@LGICGFMM@?5Base?5Class?5Array?8?$AA@ 1007a24c     libvcruntime:undname.obj
 0002:00008264       ??_C@_0BN@MECKDCOJ@?5Class?5Hierarchy?5Descriptor?8?$AA@ 1007a264     libvcruntime:undname.obj
 0002:00008288       ??_C@_0BK@CFCOFLF@?5Complete?5Object?5Locator?8?$AA@ 1007a288     libvcruntime:undname.obj
 0002:000082a8       ??_C@_04HEJADOOB@CV?3?5?$AA@ 1007a2a8     libvcruntime:undname.obj
 0002:000082b0       ??_C@_02MOLJINC@?3?3?$AA@  1007a2b0     libvcruntime:undname.obj
 0002:000082b4       ??_C@_0BE@JAEOCHPE@template?9parameter?9?$AA@ 1007a2b4     libvcruntime:undname.obj
 0002:000082cc       ??_C@_0O@KHGCOMHP@generic?9type?9?$AA@ 1007a2cc     libvcruntime:undname.obj
 0002:000082dc       ??_C@_01NLNLIGKH@?$GA?$AA@ 1007a2dc     libvcruntime:undname.obj
 0002:000082e0       ??_C@_01GEODFPGF@?8?$AA@   1007a2e0     libvcruntime:undname.obj
 0002:000082e4       ??_C@_0BG@JNJLAMPM@?$GAanonymous?5namespace?8?$AA@ 1007a2e4     libvcruntime:undname.obj
 0002:00008300       ??_C@_02OHHJMEON@?8?8?$AA@ 1007a300     libvcruntime:undname.obj
 0002:00008304       ??_C@_0BN@IBLMMFAP@?$GAnon?9type?9template?9parameter?$AA@ 1007a304     libvcruntime:undname.obj
 0002:00008328       ??_C@_04GKJNKENE@void?$AA@ 1007a328     libvcruntime:undname.obj
 0002:00008330       ??_C@_0BE@EODMJLIF@?$GAtemplate?9parameter?$AA@ 1007a330     libvcruntime:undname.obj
 0002:00008348       ??_C@_03KHICJKCI@?4?4?4?$AA@ 1007a348     libvcruntime:undname.obj
 0002:0000834c       ??_C@_04HIBGFPH@NULL?$AA@  1007a34c     libvcruntime:undname.obj
 0002:00008354       ??_C@_02DPKJAMEF@?$CFd?$AA@ 1007a354     libvcruntime:undname.obj
 0002:00008358       ??_C@_0BK@IHCCFNEL@?$GAtemplate?9type?9parameter?9?$AA@ 1007a358     libvcruntime:undname.obj
 0002:00008378       ??_C@_0BK@OFCNNNKO@?$GAgeneric?9class?9parameter?9?$AA@ 1007a378     libvcruntime:undname.obj
 0002:00008398       ??_C@_0BL@NGJBLFIL@?$GAgeneric?9method?9parameter?9?$AA@ 1007a398     libvcruntime:undname.obj
 0002:000083b8       ??_C@_03OPGICMGF@?$HN?8?5?$AA@ 1007a3b8     libvcruntime:undname.obj
 0002:000083bc       ??_C@_02IGFCGPIL@?$HN?8?$AA@ 1007a3bc     libvcruntime:undname.obj
 0002:000083c0       ??_C@_01CLKCMJKC@?5?$AA@   1007a3c0     libvcruntime:undname.obj
 0002:000083c4       ??_C@_0N@CBHHHENL@?$GAvtordispex?$HL?$AA@ 1007a3c4     libvcruntime:undname.obj
 0002:000083d4       ??_C@_0L@GHPFDFH@?$GAvtordisp?$HL?$AA@ 1007a3d4     libvcruntime:undname.obj
 0002:000083e4       ??_C@_0L@HNGCOGAE@?$GAadjustor?$HL?$AA@ 1007a3e4     libvcruntime:undname.obj
 0002:000083f4       ??_C@_0CB@KJDOOODE@?$GAlocal?5static?5destructor?5helper?8@ 1007a3f4     libvcruntime:undname.obj
 0002:0000841c       ??_C@_0DB@ILEFOCIJ@?$GAtemplate?5static?5data?5member?5con@ 1007a41c     libvcruntime:undname.obj
 0002:00008458       ??_C@_0DA@HGFJFBBE@?$GAtemplate?5static?5data?5member?5des@ 1007a458     libvcruntime:undname.obj
 0002:00008494       ??_C@_07PGOEDBHP@static?5?$AA@ 1007a494     libvcruntime:undname.obj
 0002:000084a0       ??_C@_08NIEOINHE@virtual?5?$AA@ 1007a4a0     libvcruntime:undname.obj
 0002:000084ac       ??_C@_09LAPHOOG@private?3?5?$AA@ 1007a4ac     libvcruntime:undname.obj
 0002:000084b8       ??_C@_0M@GAIFPFIP@protected?3?5?$AA@ 1007a4b8     libvcruntime:undname.obj
 0002:000084c8       ??_C@_08GPDDCMKI@public?3?5?$AA@ 1007a4c8     libvcruntime:undname.obj
 0002:000084d4       ??_C@_08KJLFOPNE@?$FLthunk?$FN?3?$AA@ 1007a4d4     libvcruntime:undname.obj
 0002:000084e0       ??_C@_0M@DHNBOJMP@extern?5?$CCC?$CC?5?$AA@ 1007a4e0     libvcruntime:undname.obj
 0002:000084f0       ??_C@_02KCKGHPCA@?$CJ?5?$AA@ 1007a4f0     libvcruntime:undname.obj
 0002:000084f4       ??_C@_05CIHEBHNO@char?5?$AA@ 1007a4f4     libvcruntime:undname.obj
 0002:000084fc       ??_C@_06EHJMALKF@short?5?$AA@ 1007a4fc     libvcruntime:undname.obj
 0002:00008504       ??_C@_04LAHKHJMA@int?5?$AA@ 1007a504     libvcruntime:undname.obj
 0002:0000850c       ??_C@_05CJIMAING@long?5?$AA@ 1007a50c     libvcruntime:undname.obj
 0002:00008514       ??_C@_09EBBEKKIH@unsigned?5?$AA@ 1007a514     libvcruntime:undname.obj
 0002:00008520       ??_C@_05BEFAKPML@void?5?$AA@ 1007a520     libvcruntime:undname.obj
 0002:00008528       ??_C@_08PABEKFH@volatile?$AA@ 1007a528     libvcruntime:undname.obj
 0002:00008534       ??_C@_0BA@LKIJLKPP@std?3?3nullptr_t?5?$AA@ 1007a534     libvcruntime:undname.obj
 0002:00008548       ??_C@_0P@GCOCNKDM@std?3?3nullptr_t?$AA@ 1007a548     libvcruntime:undname.obj
 0002:0000855c       ??_C@_0L@EGPHHEKN@?$DMellipsis?$DO?$AA@ 1007a55c     libvcruntime:undname.obj
 0002:0000856c       ??_C@_04EENFHACM@?0?4?4?4?$AA@ 1007a56c     libvcruntime:undname.obj
 0002:00008574       ??_C@_0M@ELJOJFFH@?0?$DMellipsis?$DO?$AA@ 1007a574     libvcruntime:undname.obj
 0002:00008584       ??_C@_09DNHFEOJI@?5noexcept?$AA@ 1007a584     libvcruntime:undname.obj
 0002:00008590       ??_C@_03PBJBJNON@cpu?$AA@  1007a590     libvcruntime:undname.obj
 0002:00008594       ??_C@_03DCBBJBAA@amp?$AA@  1007a594     libvcruntime:undname.obj
 0002:00008598       ??_C@_02KEGNLNML@?0?5?$AA@ 1007a598     libvcruntime:undname.obj
 0002:0000859c       ??_C@_04ENMBGAPA@char?$AA@ 1007a59c     libvcruntime:undname.obj
 0002:000085a4       ??_C@_05BFKKPKCG@short?$AA@ 1007a5a4     libvcruntime:undname.obj
 0002:000085ac       ??_C@_03JBIPMCLC@int?$AA@  1007a5ac     libvcruntime:undname.obj
 0002:000085b0       ??_C@_04GOKPGOLB@long?$AA@ 1007a5b0     libvcruntime:undname.obj
 0002:000085b8       ??_C@_04DDKJGDCM@bool?$AA@ 1007a5b8     libvcruntime:undname.obj
 0002:000085c0       ??_C@_06EBGKOKIG@__int8?$AA@ 1007a5c0     libvcruntime:undname.obj
 0002:000085c8       ??_C@_07ICFHOGAF@__int16?$AA@ 1007a5c8     libvcruntime:undname.obj
 0002:000085d4       ??_C@_07OFLPPHGP@__int32?$AA@ 1007a5d4     libvcruntime:undname.obj
 0002:000085e0       ??_C@_07LFCOJCAC@__int64?$AA@ 1007a5e0     libvcruntime:undname.obj
 0002:000085ec       ??_C@_08GAHOLHEO@__int128?$AA@ 1007a5ec     libvcruntime:undname.obj
 0002:000085f8       ??_C@_09EEKGDCPH@?$DMunknown?$DO?$AA@ 1007a5f8     libvcruntime:undname.obj
 0002:00008604       ??_C@_08HBIPOFJB@char16_t?$AA@ 1007a604     libvcruntime:undname.obj
 0002:00008610       ??_C@_08IECNCBKG@char32_t?$AA@ 1007a610     libvcruntime:undname.obj
 0002:0000861c       ??_C@_07CLGGIAMF@wchar_t?$AA@ 1007a61c     libvcruntime:undname.obj
 0002:00008628       ??_C@_06GCICPBLB@__w64?5?$AA@ 1007a628     libvcruntime:undname.obj
 0002:00008630       ??_C@_07NFANNNEC@UNKNOWN?$AA@ 1007a630     libvcruntime:undname.obj
 0002:0000863c       ??_C@_07EDHNAJHC@signed?5?$AA@ 1007a63c     libvcruntime:undname.obj
 0002:00008648       ??_C@_05BNCCCJPP@const?$AA@ 1007a648     libvcruntime:undname.obj
 0002:00008650       ??_C@_09EFNPDFFP@?5volatile?$AA@ 1007a650     libvcruntime:undname.obj
 0002:0000865c       ??_C@_0P@GCIFDJCJ@?$GAunknown?5ecsu?8?$AA@ 1007a65c     libvcruntime:undname.obj
 0002:00008670       ??_C@_06MOJHIBMG@union?5?$AA@ 1007a670     libvcruntime:undname.obj
 0002:00008678       ??_C@_07DIBCDNGL@struct?5?$AA@ 1007a678     libvcruntime:undname.obj
 0002:00008684       ??_C@_06LJBABKPM@class?5?$AA@ 1007a684     libvcruntime:undname.obj
 0002:0000868c       ??_C@_08KOFANOFK@coclass?5?$AA@ 1007a68c     libvcruntime:undname.obj
 0002:00008698       ??_C@_0N@DLIEFKNA@cointerface?5?$AA@ 1007a698     libvcruntime:undname.obj
 0002:000086a8       ??_C@_05LJGMCFOG@enum?5?$AA@ 1007a6a8     libvcruntime:undname.obj
 0002:000086b0       ??_C@_09GAIEOBLP@volatile?5?$AA@ 1007a6b0     libvcruntime:undname.obj
 0002:000086bc       ??_C@_06LIJLOJAG@const?5?$AA@ 1007a6bc     libvcruntime:undname.obj
 0002:000086c4       ??_C@_02KJPKDIBN@?$CG?5?$AA@ 1007a6c4     libvcruntime:undname.obj
 0002:000086c8       ??_C@_03PCKGMOPB@?$CG?$CG?5?$AA@ 1007a6c8     libvcruntime:undname.obj
 0002:000086cc       ??_C@_0M@EALIELKG@cli?3?3array?$DM?$AA@ 1007a6cc     libvcruntime:undname.obj
 0002:000086dc       ??_C@_0O@GKABPPIF@cli?3?3pin_ptr?$DM?$AA@ 1007a6dc     libvcruntime:undname.obj
 0002:000086ec       ??_C@_02GOGNNPBN@?$CJ?$FL?$AA@ 1007a6ec     libvcruntime:undname.obj
 0002:000086f0       ??_C@_06EEGAIFAK@?$HLflat?$HN?$AA@ 1007a6f0     libvcruntime:undname.obj
 0002:000086f8       ??_C@_05JIBOFOHK@?$HLfor?5?$AA@ 1007a6f8     libvcruntime:undname.obj
 0002:00008700       ??_C@_02MDINNEEG@s?5?$AA@  1007a700     libvcruntime:undname.obj
 0002:00008708       ??_7DNameNode@@6B@         1007a708     libvcruntime:undname.obj
 0002:0000871c       ??_7charNode@@6B@          1007a71c     libvcruntime:undname.obj
 0002:00008730       ??_7pcharNode@@6B@         1007a730     libvcruntime:undname.obj
 0002:00008744       ??_7pDNameNode@@6B@        1007a744     libvcruntime:undname.obj
 0002:00008758       ??_7DNameStatusNode@@6B@   1007a758     libvcruntime:undname.obj
 0002:0000876c       ??_7pairNode@@6B@          1007a76c     libvcruntime:undname.obj
 0002:0000877c       ??_C@_04OKOHEJBO@?5?$DP?$DP?5?$AA@ 1007a77c     libvcruntime:undname.obj
 0002:00008784       ?nodes@?1??make@DNameStatusNode@@SAPBV2@W4DNameStatus@@@Z@4QBV2@B 1007a784     libvcruntime:undname.obj
 0002:000087d0       ??_C@_1DM@KHCHBNEB@?$AAa?$AAp?$AAi?$AA?9?$AAm?$AAs?$AA?9?$AAw?$AAi?$AAn?$AA?9?$AAc?$AAo?$AAr?$AAe?$AA?9?$AAf?$AAi?$AAb?$AAe?$AAr?$AAs?$AA?9?$AAl?$AA1?$AA?9?$AA1?$AA?9?$AA1?$AA?$AA@ 1007a7d0     libvcruntime:winapi_downlevel.obj
 0002:00008818       ??_C@_1DK@LPPGFMPP@?$AAa?$AAp?$AAi?$AA?9?$AAm?$AAs?$AA?9?$AAw?$AAi?$AAn?$AA?9?$AAc?$AAo?$AAr?$AAe?$AA?9?$AAs?$AAy?$AAn?$AAc?$AAh?$AA?9?$AAl?$AA1?$AA?9?$AA2?$AA?9?$AA0?$AA?$AA@ 1007a818     libvcruntime:winapi_downlevel.obj
 0002:00008860       ??_C@_1BC@GDMECMAK@?$AAk?$AAe?$AAr?$AAn?$AAe?$AAl?$AA3?$AA2?$AA?$AA@ 1007a860     libvcruntime:winapi_downlevel.obj
 0002:00008878       ??_C@_1BA@PFFKHIOG@?$AAa?$AAp?$AAi?$AA?9?$AAm?$AAs?$AA?9?$AA?$AA@ 1007a878     libvcruntime:winapi_downlevel.obj
 0002:0000888c       ??_C@_1BA@IAIFMGEF@?$AAe?$AAx?$AAt?$AA?9?$AAm?$AAs?$AA?9?$AA?$AA@ 1007a88c     libvcruntime:winapi_downlevel.obj
 0002:000088ac       ??_C@_08KNHFBNJ@FlsAlloc?$AA@ 1007a8ac     libvcruntime:winapi_downlevel.obj
 0002:000088c4       ??_C@_07PEJMOBNF@FlsFree?$AA@ 1007a8c4     libvcruntime:winapi_downlevel.obj
 0002:000088dc       ??_C@_0M@GDNOONDI@FlsGetValue?$AA@ 1007a8dc     libvcruntime:winapi_downlevel.obj
 0002:000088f8       ??_C@_0M@JCPCPOEF@FlsSetValue?$AA@ 1007a8f8     libvcruntime:winapi_downlevel.obj
 0002:00008914       ??_C@_0BM@HCFOFFN@InitializeCriticalSectionEx?$AA@ 1007a914     libvcruntime:winapi_downlevel.obj
 0002:0000893c       ??_7exception@std@@6B@     1007a93c     libvcruntime:frame.obj
 0002:00008948       ??_C@_0BC@EOODALEL@Unknown?5exception?$AA@ 1007a948     libvcruntime:frame.obj
 0002:00008964       ??_7bad_exception@std@@6B@ 1007a964     libvcruntime:frame.obj
 0002:00008970       ??_C@_0O@DPKOEFFH@bad?5exception?$AA@ 1007a970     libvcruntime:frame.obj
 0002:00008980       __pDestructExceptionObject 1007a980     libvcruntime:ehhelpers.obj
 0002:000089b0       _standard_lookup_table     1007a9b0     libucrt:output.obj
 0002:00008a20       _format_validation_lookup_table 1007aa20     libucrt:output.obj
 0002:00008a90       ??_C@_1O@CEDCILHN@?$AA?$CI?$AAn?$AAu?$AAl?$AAl?$AA?$CJ?$AA?$AA@ 1007aa90     libucrt:output.obj
 0002:00008aa0       ??_C@_06OJHGLDPL@?$CInull?$CJ?$AA@ 1007aaa0     libucrt:output.obj
 0002:00008aa8       _RtlNtPathSeperatorString  1007aaa8     libucrt:exit.obj
 0002:00008ab4       ??_C@_13FPGAJAPJ@?$AA?2?$AA?$AA@ 1007aab4     libucrt:exit.obj
 0002:00008ab8       _RtlDosPathSeperatorsString 1007aab8     libucrt:exit.obj
 0002:00008ac4       ??_C@_15MNCACJLI@?$AA?2?$AA?1?$AA?$AA@ 1007aac4     libucrt:exit.obj
 0002:00008acc       _RtlAlternateDosPathSeperatorString 1007aacc     libucrt:exit.obj
 0002:00008ad8       ??_C@_13CGOKJPIL@?$AA?1?$AA?$AA@ 1007aad8     libucrt:exit.obj
 0002:00008adc       ??_C@_1BI@BGOHAHKC@?$AAm?$AAs?$AAc?$AAo?$AAr?$AAe?$AAe?$AA?4?$AAd?$AAl?$AAl?$AA?$AA@ 1007aadc     libucrt:exit.obj
 0002:00008af8       ??_C@_0P@MIGLKIOC@CorExitProcess?$AA@ 1007aaf8     libucrt:exit.obj
 0002:00008b0c       ??_C@_0CK@CFPGFGGO@Assertion?5failed?3?5?$CFTs?0?5file?5?$CFTs?0@ 1007ab0c     libucrt:assert.obj
 0002:00008b40       ??_C@_1FE@LHBLIKM@?$AAA?$AAs?$AAs?$AAe?$AAr?$AAt?$AAi?$AAo?$AAn?$AA?5?$AAf?$AAa?$AAi?$AAl?$AAe?$AAd?$AA?3?$AA?5?$AA?$CF?$AAT?$AAs?$AA?0?$AA?5?$AAf?$AAi?$AAl?$AAe?$AA?5?$AA?$CF?$AAT?$AAs?$AA?0@ 1007ab40     libucrt:assert.obj
 0002:00008ba4       ??_C@_0CF@GOGNBNAK@Microsoft?5Visual?5C?$CL?$CL?5Runtime?5Lib@ 1007aba4     libucrt:assert.obj
 0002:00008bd0       ??_C@_1EK@MBDPDCGA@?$AAM?$AAi?$AAc?$AAr?$AAo?$AAs?$AAo?$AAf?$AAt?$AA?5?$AAV?$AAi?$AAs?$AAu?$AAa?$AAl?$AA?5?$AAC?$AA?$CL?$AA?$CL?$AA?5?$AAR?$AAu?$AAn?$AAt?$AAi?$AAm?$AAe?$AA?5?$AAL?$AAi?$AAb@ 1007abd0     libucrt:assert.obj
 0002:00008c28       ??_C@_0BC@LAIDCHCH@Assertion?5failed?$CB?$AA@ 1007ac28     libucrt:assert.obj
 0002:00008c40       ??_C@_1CE@OJBNHDMO@?$AAA?$AAs?$AAs?$AAe?$AAr?$AAt?$AAi?$AAo?$AAn?$AA?5?$AAf?$AAa?$AAi?$AAl?$AAe?$AAd?$AA?$CB?$AA?$AA@ 1007ac40     libucrt:assert.obj
 0002:00008c6c       ??_C@_09KLGCKDOD@Program?3?5?$AA@ 1007ac6c     libucrt:assert.obj
 0002:00008c78       ??_C@_1BE@PHKBBGE@?$AAP?$AAr?$AAo?$AAg?$AAr?$AAa?$AAm?$AA?3?$AA?5?$AA?$AA@ 1007ac78     libucrt:assert.obj
 0002:00008c90       ??_C@_06IGPBOHMJ@File?3?5?$AA@ 1007ac90     libucrt:assert.obj
 0002:00008c98       ??_C@_1O@HEMHKNDC@?$AAF?$AAi?$AAl?$AAe?$AA?3?$AA?5?$AA?$AA@ 1007ac98     libucrt:assert.obj
 0002:00008ca8       ??_C@_06FIEBOLOH@Line?3?5?$AA@ 1007aca8     libucrt:assert.obj
 0002:00008cb0       ??_C@_1O@KCAFKHJE@?$AAL?$AAi?$AAn?$AAe?$AA?3?$AA?5?$AA?$AA@ 1007acb0     libucrt:assert.obj
 0002:00008cc0       ??_C@_0N@MEECIJGN@Expression?3?5?$AA@ 1007acc0     libucrt:assert.obj
 0002:00008cd0       ??_C@_1BK@PEDCIPMA@?$AAE?$AAx?$AAp?$AAr?$AAe?$AAs?$AAs?$AAi?$AAo?$AAn?$AA?3?$AA?5?$AA?$AA@ 1007acd0     libucrt:assert.obj
 0002:00008cf0       ??_C@_0HA@OJHAGA@For?5information?5on?5how?5your?5prog@ 1007acf0     libucrt:assert.obj
 0002:00008d78       ??_C@_1OA@EGMLFBHJ@?$AAF?$AAo?$AAr?$AA?5?$AAi?$AAn?$AAf?$AAo?$AAr?$AAm?$AAa?$AAt?$AAi?$AAo?$AAn?$AA?5?$AAo?$AAn?$AA?5?$AAh?$AAo?$AAw?$AA?5?$AAy?$AAo?$AAu?$AAr?$AA?5?$AAp?$AAr?$AAo?$AAg@ 1007ad78     libucrt:assert.obj
 0002:00008e84       ??_C@_0DN@EBBNMLME@?$CIPress?5Retry?5to?5debug?5the?5applic@ 1007ae84     libucrt:assert.obj
 0002:00008ed0       ??_C@_1HK@POCJMFGK@?$AA?$CI?$AAP?$AAr?$AAe?$AAs?$AAs?$AA?5?$AAR?$AAe?$AAt?$AAr?$AAy?$AA?5?$AAt?$AAo?$AA?5?$AAd?$AAe?$AAb?$AAu?$AAg?$AA?5?$AAt?$AAh?$AAe?$AA?5?$AAa?$AAp?$AAp?$AAl?$AAi?$AAc@ 1007aed0     libucrt:assert.obj
 0002:00008f64       ??_C@_17LGKOMLJ@?$AA?4?$AA?4?$AA?4?$AA?$AA@ 1007af64     libucrt:assert.obj
 0002:00008f70       ??_C@_01EEMJAFIK@?6?$AA@   1007af70     libucrt:assert.obj
 0002:00008f74       ??_C@_13LBAGMAIH@?$AA?6?$AA?$AA@ 1007af74     libucrt:assert.obj
 0002:00008f78       ??_C@_02PHMGELLB@?6?6?$AA@ 1007af78     libucrt:assert.obj
 0002:00008f7c       ??_C@_15IABLJNFO@?$AA?6?$AA?6?$AA?$AA@ 1007af7c     libucrt:assert.obj
 0002:00008f84       ??_C@_0BH@DNAGHKFM@?$DMprogram?5name?5unknown?$DO?$AA@ 1007af84     libucrt:assert.obj
 0002:00008fa0       ??_C@_1CO@EAEJAADC@?$AA?$DM?$AAp?$AAr?$AAo?$AAg?$AAr?$AAa?$AAm?$AA?5?$AAn?$AAa?$AAm?$AAe?$AA?5?$AAu?$AAn?$AAk?$AAn?$AAo?$AAw?$AAn?$AA?$DO?$AA?$AA@ 1007afa0     libucrt:assert.obj
 0002:000090f0       ??_C@_03KHJOGHMM@exp?$AA@  1007b0f0     libucrt:fpexcept.obj
 0002:000090f4       ??_C@_03JGHBODFD@pow?$AA@  1007b0f4     libucrt:fpexcept.obj
 0002:000090f8       ??_C@_03MGHMBJCF@log?$AA@  1007b0f8     libucrt:fpexcept.obj
 0002:000090fc       ??_C@_05HGHHAHAP@log10?$AA@ 1007b0fc     libucrt:fpexcept.obj
 0002:00009104       ??_C@_04COOMCNPB@sinh?$AA@ 1007b104     libucrt:fpexcept.obj
 0002:0000910c       ??_C@_04HPJJNFIM@cosh?$AA@ 1007b10c     libucrt:fpexcept.obj
 0002:00009114       ??_C@_04FJHINJAO@tanh?$AA@ 1007b114     libucrt:fpexcept.obj
 0002:0000911c       ??_C@_04FIHNOPOL@asin?$AA@ 1007b11c     libucrt:fpexcept.obj
 0002:00009124       ??_C@_04PDIFKINK@acos?$AA@ 1007b124     libucrt:fpexcept.obj
 0002:0000912c       ??_C@_04MLLJIGOK@atan?$AA@ 1007b12c     libucrt:fpexcept.obj
 0002:00009134       ??_C@_05KNGEOGJB@atan2?$AA@ 1007b134     libucrt:fpexcept.obj
 0002:0000913c       ??_C@_04EIAKFFMI@sqrt?$AA@ 1007b13c     libucrt:fpexcept.obj
 0002:00009144       ??_C@_03BLEJJJBH@sin?$AA@  1007b144     libucrt:fpexcept.obj
 0002:00009148       ??_C@_03LALBNOCG@cos?$AA@  1007b148     libucrt:fpexcept.obj
 0002:0000914c       ??_C@_03IIINPABG@tan?$AA@  1007b14c     libucrt:fpexcept.obj
 0002:00009150       ??_C@_04GFPJNGEK@ceil?$AA@ 1007b150     libucrt:fpexcept.obj
 0002:00009158       ??_C@_05PBJFFIGL@floor?$AA@ 1007b158     libucrt:fpexcept.obj
 0002:00009160       ??_C@_04ODHECPBC@fabs?$AA@ 1007b160     libucrt:fpexcept.obj
 0002:00009168       ??_C@_04EHEDPDJG@modf?$AA@ 1007b168     libucrt:fpexcept.obj
 0002:00009170       ??_C@_05CEJMAHNP@ldexp?$AA@ 1007b170     libucrt:fpexcept.obj
 0002:00009178       ??_C@_05KBKMEMPO@_cabs?$AA@ 1007b178     libucrt:fpexcept.obj
 0002:00009180       ??_C@_06MEIMCGCF@_hypot?$AA@ 1007b180     libucrt:fpexcept.obj
 0002:00009188       ??_C@_04KEPJIHGP@fmod?$AA@ 1007b188     libucrt:fpexcept.obj
 0002:00009190       ??_C@_05GKKHEGJL@frexp?$AA@ 1007b190     libucrt:fpexcept.obj
 0002:00009198       ??_C@_03MJLDFKDL@_y0?$AA@  1007b198     libucrt:fpexcept.obj
 0002:0000919c       ??_C@_03NAKIGLHK@_y1?$AA@  1007b19c     libucrt:fpexcept.obj
 0002:000091a0       ??_C@_03ONILCKOB@_yn?$AA@  1007b1a0     libucrt:fpexcept.obj
 0002:000091a4       ??_C@_05JGDBENOH@_logb?$AA@ 1007b1a4     libucrt:fpexcept.obj
 0002:000091ac       ??_C@_0L@KDOEJCKC@_nextafter?$AA@ 1007b1ac     libucrt:fpexcept.obj
 0002:000091c0       ___acrt_exception_action_table 1007b1c0     libucrt:exception_filter.obj
 0002:0000926c       ___acrt_signal_action_table_count 1007b26c     libucrt:exception_filter.obj
 0002:00009270       ___acrt_signal_action_table_size 1007b270     libucrt:exception_filter.obj
 0002:00009274       ___acrt_signal_action_first_fpe_index 1007b274     libucrt:exception_filter.obj
 0002:00009278       ___acrt_signal_action_fpe_count 1007b278     libucrt:exception_filter.obj
 0002:0000931c       __Fenv1                    1007b31c     libucrt:atox.obj
 0002:00009530       ??_C@_1EA@JGEFHKEI@?$AAa?$AAp?$AAi?$AA?9?$AAm?$AAs?$AA?9?$AAw?$AAi?$AAn?$AA?9?$AAc?$AAo?$AAr?$AAe?$AA?9?$AAd?$AAa?$AAt?$AAe?$AAt?$AAi?$AAm?$AAe?$AA?9?$AAl?$AA1?$AA?9?$AA1?$AA?9?$AA1?$AA?$AA@ 1007b530     libucrt:winapi_thunks.obj
 0002:0000957c       ??_C@_1DI@IJCEHOCB@?$AAa?$AAp?$AAi?$AA?9?$AAm?$AAs?$AA?9?$AAw?$AAi?$AAn?$AA?9?$AAc?$AAo?$AAr?$AAe?$AA?9?$AAf?$AAi?$AAl?$AAe?$AA?9?$AAl?$AA1?$AA?9?$AA2?$AA?9?$AA2?$AA?$AA@ 1007b57c     libucrt:winapi_thunks.obj
 0002:000095c0       ??_C@_1EI@MPIAOHOC@?$AAa?$AAp?$AAi?$AA?9?$AAm?$AAs?$AA?9?$AAw?$AAi?$AAn?$AA?9?$AAc?$AAo?$AAr?$AAe?$AA?9?$AAl?$AAo?$AAc?$AAa?$AAl?$AAi?$AAz?$AAa?$AAt?$AAi?$AAo?$AAn?$AA?9?$AAl?$AA1?$AA?9@ 1007b5c0     libucrt:winapi_thunks.obj
 0002:00009618       ??_C@_1FK@FPHCKFIE@?$AAa?$AAp?$AAi?$AA?9?$AAm?$AAs?$AA?9?$AAw?$AAi?$AAn?$AA?9?$AAc?$AAo?$AAr?$AAe?$AA?9?$AAl?$AAo?$AAc?$AAa?$AAl?$AAi?$AAz?$AAa?$AAt?$AAi?$AAo?$AAn?$AA?9?$AAo?$AAb?$AAs@ 1007b618     libucrt:winapi_thunks.obj
 0002:00009688       ??_C@_1EM@DILCGIIO@?$AAa?$AAp?$AAi?$AA?9?$AAm?$AAs?$AA?9?$AAw?$AAi?$AAn?$AA?9?$AAc?$AAo?$AAr?$AAe?$AA?9?$AAp?$AAr?$AAo?$AAc?$AAe?$AAs?$AAs?$AAt?$AAh?$AAr?$AAe?$AAa?$AAd?$AAs?$AA?9?$AAl@ 1007b688     libucrt:winapi_thunks.obj
 0002:000096e4       ??_C@_1DM@LNCGDDPN@?$AAa?$AAp?$AAi?$AA?9?$AAm?$AAs?$AA?9?$AAw?$AAi?$AAn?$AA?9?$AAc?$AAo?$AAr?$AAe?$AA?9?$AAs?$AAt?$AAr?$AAi?$AAn?$AAg?$AA?9?$AAl?$AA1?$AA?9?$AA1?$AA?9?$AA0?$AA?$AA@ 1007b6e4     libucrt:winapi_thunks.obj
 0002:0000972c       ??_C@_1DO@FPAPJEMD@?$AAa?$AAp?$AAi?$AA?9?$AAm?$AAs?$AA?9?$AAw?$AAi?$AAn?$AA?9?$AAc?$AAo?$AAr?$AAe?$AA?9?$AAs?$AAy?$AAs?$AAi?$AAn?$AAf?$AAo?$AA?9?$AAl?$AA1?$AA?9?$AA2?$AA?9?$AA1?$AA?$AA@ 1007b72c     libucrt:winapi_thunks.obj
 0002:00009778       ??_C@_1DK@NDHNAHIO@?$AAa?$AAp?$AAi?$AA?9?$AAm?$AAs?$AA?9?$AAw?$AAi?$AAn?$AA?9?$AAc?$AAo?$AAr?$AAe?$AA?9?$AAw?$AAi?$AAn?$AAr?$AAt?$AA?9?$AAl?$AA1?$AA?9?$AA1?$AA?9?$AA0?$AA?$AA@ 1007b778     libucrt:winapi_thunks.obj
 0002:000097c0       ??_C@_1DM@KGHDGBCM@?$AAa?$AAp?$AAi?$AA?9?$AAm?$AAs?$AA?9?$AAw?$AAi?$AAn?$AA?9?$AAc?$AAo?$AAr?$AAe?$AA?9?$AAx?$AAs?$AAt?$AAa?$AAt?$AAe?$AA?9?$AAl?$AA2?$AA?9?$AA1?$AA?9?$AA0?$AA?$AA@ 1007b7c0     libucrt:winapi_thunks.obj
 0002:00009808       ??_C@_1EO@IJIOEFOH@?$AAa?$AAp?$AAi?$AA?9?$AAm?$AAs?$AA?9?$AAw?$AAi?$AAn?$AA?9?$AAr?$AAt?$AAc?$AAo?$AAr?$AAe?$AA?9?$AAn?$AAt?$AAu?$AAs?$AAe?$AAr?$AA?9?$AAw?$AAi?$AAn?$AAd?$AAo?$AAw?$AA?9@ 1007b808     libucrt:winapi_thunks.obj
 0002:00009868       ??_C@_1FG@HHGEKANL@?$AAa?$AAp?$AAi?$AA?9?$AAm?$AAs?$AA?9?$AAw?$AAi?$AAn?$AA?9?$AAs?$AAe?$AAc?$AAu?$AAr?$AAi?$AAt?$AAy?$AA?9?$AAs?$AAy?$AAs?$AAt?$AAe?$AAm?$AAf?$AAu?$AAn?$AAc?$AAt?$AAi@ 1007b868     libucrt:winapi_thunks.obj
 0002:000098d0       ??_C@_1EG@DBIOJECG@?$AAe?$AAx?$AAt?$AA?9?$AAm?$AAs?$AA?9?$AAw?$AAi?$AAn?$AA?9?$AAn?$AAt?$AAu?$AAs?$AAe?$AAr?$AA?9?$AAd?$AAi?$AAa?$AAl?$AAo?$AAg?$AAb?$AAo?$AAx?$AA?9?$AAl?$AA1?$AA?9?$AA1@ 1007b8d0     libucrt:winapi_thunks.obj
 0002:00009928       ??_C@_1EO@FIHMJCLF@?$AAe?$AAx?$AAt?$AA?9?$AAm?$AAs?$AA?9?$AAw?$AAi?$AAn?$AA?9?$AAn?$AAt?$AAu?$AAs?$AAe?$AAr?$AA?9?$AAw?$AAi?$AAn?$AAd?$AAo?$AAw?$AAs?$AAt?$AAa?$AAt?$AAi?$AAo?$AAn?$AA?9@ 1007b928     libucrt:winapi_thunks.obj
 0002:00009988       ??_C@_1BC@DNHGCMLG@?$AAa?$AAd?$AAv?$AAa?$AAp?$AAi?$AA3?$AA2?$AA?$AA@ 1007b988     libucrt:winapi_thunks.obj
 0002:000099a0       ??_C@_1M@OAIMIKLP@?$AAn?$AAt?$AAd?$AAl?$AAl?$AA?$AA@ 1007b9a0     libucrt:winapi_thunks.obj
 0002:000099b0       ??_C@_1EG@DPGNFKGC@?$AAa?$AAp?$AAi?$AA?9?$AAm?$AAs?$AA?9?$AAw?$AAi?$AAn?$AA?9?$AAa?$AAp?$AAp?$AAm?$AAo?$AAd?$AAe?$AAl?$AA?9?$AAr?$AAu?$AAn?$AAt?$AAi?$AAm?$AAe?$AA?9?$AAl?$AA1?$AA?9?$AA1@ 1007b9b0     libucrt:winapi_thunks.obj
 0002:00009a04       ??_C@_1O@BCCLBEOE@?$AAu?$AAs?$AAe?$AAr?$AA3?$AA2?$AA?$AA@ 1007ba04     libucrt:winapi_thunks.obj
 0002:00009a18       ??_C@_0BA@FHFNEAED@AreFileApisANSI?$AA@ 1007ba18     libucrt:winapi_thunks.obj
 0002:00009a38       ??_C@_0BA@IHGNDAEB@CompareStringEx?$AA@ 1007ba38     libucrt:winapi_thunks.obj
 0002:00009a58       ??_C@_0BE@LJANKFHF@EnumSystemLocalesEx?$AA@ 1007ba58     libucrt:winapi_thunks.obj
 0002:00009aac       ??_C@_0BA@HNOPNCHB@GetActiveWindow?$AA@ 1007baac     libucrt:winapi_thunks.obj
 0002:00009acc       ??_C@_0BA@EPCJIIPD@GetDateFormatEx?$AA@ 1007bacc     libucrt:winapi_thunks.obj
 0002:00009aec       ??_C@_0BJ@DIBIJBHA@GetEnabledXStateFeatures?$AA@ 1007baec     libucrt:winapi_thunks.obj
 0002:00009b18       ??_C@_0BD@HHGDFDBJ@GetLastActivePopup?$AA@ 1007bb18     libucrt:winapi_thunks.obj
 0002:00009b3c       ??_C@_0BA@ONOKGCMP@GetLocaleInfoEx?$AA@ 1007bb3c     libucrt:winapi_thunks.obj
 0002:00009b5c       ??_C@_0BI@DFKBFLJE@GetProcessWindowStation?$AA@ 1007bb5c     libucrt:winapi_thunks.obj
 0002:00009b7c       ??_C@_0BP@FPNJPEJC@GetSystemTimePreciseAsFileTime?$AA@ 1007bb7c     libucrt:winapi_thunks.obj
 0002:00009bb0       ??_C@_0BA@CIJJKCJJ@GetTimeFormatEx?$AA@ 1007bbb0     libucrt:winapi_thunks.obj
 0002:00009bd0       ??_C@_0BJ@PBCCBIPI@GetUserDefaultLocaleName?$AA@ 1007bbd0     libucrt:winapi_thunks.obj
 0002:00009bfc       ??_C@_0BK@DEKFELLI@GetUserObjectInformationW?$AA@ 1007bbfc     libucrt:winapi_thunks.obj
 0002:00009c28       ??_C@_0BG@IKLDMBLM@GetXStateFeaturesMask?$AA@ 1007bc28     libucrt:winapi_thunks.obj
 0002:00009c5c       ??_C@_0BC@CELBKLLA@IsValidLocaleName?$AA@ 1007bc5c     libucrt:winapi_thunks.obj
 0002:00009c80       ??_C@_0O@KKBNKAPF@LCMapStringEx?$AA@ 1007bc80     libucrt:winapi_thunks.obj
 0002:00009c9c       ??_C@_0BB@CDHDDLLP@LCIDToLocaleName?$AA@ 1007bc9c     libucrt:winapi_thunks.obj
 0002:00009cbc       ??_C@_0BB@HBDEELFH@LocaleNameToLCID?$AA@ 1007bcbc     libucrt:winapi_thunks.obj
 0002:00009cdc       ??_C@_0BE@KINNKFDA@LocateXStateFeature?$AA@ 1007bcdc     libucrt:winapi_thunks.obj
 0002:00009d00       ??_C@_0M@CHKKJDAI@MessageBoxA?$AA@ 1007bd00     libucrt:winapi_thunks.obj
 0002:00009d1c       ??_C@_0M@DLDCCGNP@MessageBoxW?$AA@ 1007bd1c     libucrt:winapi_thunks.obj
 0002:00009d30       ??_C@_0N@PPOMPGGK@RoInitialize?$AA@ 1007bd30     libucrt:winapi_thunks.obj
 0002:00009d44       ??_C@_0P@LLFHBIJD@RoUninitialize?$AA@ 1007bd44     libucrt:winapi_thunks.obj
 0002:00009d5c       ??_C@_0CF@OJOFEIGO@AppPolicyGetProcessTerminationMe@ 1007bd5c     libucrt:winapi_thunks.obj
 0002:00009d8c       ??_C@_0CF@NNDFDCOC@AppPolicyGetThreadInitialization@ 1007bd8c     libucrt:winapi_thunks.obj
 0002:00009dbc       ??_C@_0CE@OICFMIKE@AppPolicyGetShowDeveloperDiagnos@ 1007bdbc     libucrt:winapi_thunks.obj
 0002:00009dec       ??_C@_0BL@ODDJNEDA@AppPolicyGetWindowingModel?$AA@ 1007bdec     libucrt:winapi_thunks.obj
 0002:00009e18       ??_C@_0BI@BKLFFAPO@SetThreadStackGuarantee?$AA@ 1007be18     libucrt:winapi_thunks.obj
 0002:00009e40       ??_C@_0BC@JEAENNKH@SystemFunction036?$AA@ 1007be40     libucrt:winapi_thunks.obj
 0002:00009e58       ??_C@_03OEIAHPBN@INF?$AA@  1007be58     libucrt:cvt.obj
 0002:00009e5c       ??_C@_03OJHLLCGB@inf?$AA@  1007be5c     libucrt:cvt.obj
 0002:00009e60       ??_C@_03LKNCIKJB@NAN?$AA@  1007be60     libucrt:cvt.obj
 0002:00009e64       ??_C@_03LHCJEHON@nan?$AA@  1007be64     libucrt:cvt.obj
 0002:00009e68       ??_C@_09OFJJIMPC@NAN?$CISNAN?$CJ?$AA@ 1007be68     libucrt:cvt.obj
 0002:00009e74       ??_C@_09IPFBKMDL@nan?$CIsnan?$CJ?$AA@ 1007be74     libucrt:cvt.obj
 0002:00009e80       ??_C@_08IKHNHAJ@NAN?$CIIND?$CJ?$AA@ 1007be80     libucrt:cvt.obj
 0002:00009e8c       ??_C@_08OFCDMILK@nan?$CIind?$CJ?$AA@ 1007be8c     libucrt:cvt.obj
 0002:00009e98       ??_C@_05KLBDPFGC@e?$CL000?$AA@ 1007be98     libucrt:cvt.obj
 0002:00009f38       ___lc_category             1007bf38     libucrt:wsetlocale.obj
 0002:00009f90       ??_C@_1O@GIFLHMA@?$AAL?$AAC?$AA_?$AAA?$AAL?$AAL?$AA?$AA@ 1007bf90     libucrt:wsetlocale.obj
 0002:00009fa0       ??_C@_1BG@PPOMIBNJ@?$AAL?$AAC?$AA_?$AAC?$AAO?$AAL?$AAL?$AAA?$AAT?$AAE?$AA?$AA@ 1007bfa0     libucrt:wsetlocale.obj
 0002:00009fbc       ??_C@_1BC@FFJGAPJM@?$AAL?$AAC?$AA_?$AAC?$AAT?$AAY?$AAP?$AAE?$AA?$AA@ 1007bfbc     libucrt:wsetlocale.obj
 0002:00009fd4       ??_C@_1BI@PCKFNJFB@?$AAL?$AAC?$AA_?$AAM?$AAO?$AAN?$AAE?$AAT?$AAA?$AAR?$AAY?$AA?$AA@ 1007bfd4     libucrt:wsetlocale.obj
 0002:00009ff0       ??_C@_1BG@ENIEDKID@?$AAL?$AAC?$AA_?$AAN?$AAU?$AAM?$AAE?$AAR?$AAI?$AAC?$AA?$AA@ 1007bff0     libucrt:wsetlocale.obj
 0002:0000a00c       ??_C@_1BA@HAAOMIIG@?$AAL?$AAC?$AA_?$AAT?$AAI?$AAM?$AAE?$AA?$AA@ 1007c00c     libucrt:wsetlocale.obj
 0002:0000a020       ??_C@_15NBPDDFIP@?$AA?$DN?$AA?$DL?$AA?$AA@ 1007c020     libucrt:wsetlocale.obj
 0002:0000a028       ??_C@_13PJJBFPED@?$AA?$DL?$AA?$AA@ 1007c028     libucrt:wsetlocale.obj
 0002:0000a02c       ??_C@_13NMPKAAJP@?$AA?$DN?$AA?$AA@ 1007c02c     libucrt:wsetlocale.obj
 0002:0000a030       ??_C@_13FHBKNHDA@?$AAC?$AA?$AA@ 1007c030     libucrt:wsetlocale.obj
 0002:0000a034       ??_C@_19MPDNHKDG@?$AAu?$AAt?$AAf?$AA8?$AA?$AA@ 1007c034     libucrt:wsetlocale.obj
 0002:0000a040       ??_C@_1M@FPEIIFAM@?$AAu?$AAt?$AAf?$AA?9?$AA8?$AA?$AA@ 1007c040     libucrt:wsetlocale.obj
 0002:0000a050       ??_C@_17MBJJLFDM@?$AA_?$AA?4?$AA?0?$AA?$AA@ 1007c050     libucrt:wsetlocale.obj
 0002:0000a05c       ??_C@_13ENNFDPBH@?$AA_?$AA?$AA@ 1007c05c     libucrt:wsetlocale.obj
 0002:0000a060       ??_C@_13JOFGPIOO@?$AA?4?$AA?$AA@ 1007c060     libucrt:wsetlocale.obj
 0002:0000a068       ___lc_time_c               1007c068     libucrt:nlsdata.obj
 0002:0000a214       ??_C@_03KOEHGMDN@Sun?$AA@  1007c214     libucrt:nlsdata.obj
 0002:0000a218       ??_C@_03PDAGKDH@Mon?$AA@   1007c218     libucrt:nlsdata.obj
 0002:0000a21c       ??_C@_03NAGEINEP@Tue?$AA@  1007c21c     libucrt:nlsdata.obj
 0002:0000a220       ??_C@_03MHOMLAJA@Wed?$AA@  1007c220     libucrt:nlsdata.obj
 0002:0000a224       ??_C@_03IOFIKPDN@Thu?$AA@  1007c224     libucrt:nlsdata.obj
 0002:0000a228       ??_C@_03IDIOELNC@Fri?$AA@  1007c228     libucrt:nlsdata.obj
 0002:0000a22c       ??_C@_03FEFJNEK@Sat?$AA@   1007c22c     libucrt:nlsdata.obj
 0002:0000a230       ??_C@_06OOPIFAJ@Sunday?$AA@ 1007c230     libucrt:nlsdata.obj
 0002:0000a238       ??_C@_06JLEDEDGH@Monday?$AA@ 1007c238     libucrt:nlsdata.obj
 0002:0000a240       ??_C@_07BAAGCFCM@Tuesday?$AA@ 1007c240     libucrt:nlsdata.obj
 0002:0000a24c       ??_C@_09DLIGFAKA@Wednesday?$AA@ 1007c24c     libucrt:nlsdata.obj
 0002:0000a258       ??_C@_08HACCIKIA@Thursday?$AA@ 1007c258     libucrt:nlsdata.obj
 0002:0000a264       ??_C@_06JECMNKMI@Friday?$AA@ 1007c264     libucrt:nlsdata.obj
 0002:0000a26c       ??_C@_08INBOOONO@Saturday?$AA@ 1007c26c     libucrt:nlsdata.obj
 0002:0000a278       ??_C@_03JIHJHPIE@Jan?$AA@  1007c278     libucrt:nlsdata.obj
 0002:0000a27c       ??_C@_03HJBDCHOM@Feb?$AA@  1007c27c     libucrt:nlsdata.obj
 0002:0000a280       ??_C@_03ODNJBKGA@Mar?$AA@  1007c280     libucrt:nlsdata.obj
 0002:0000a284       ??_C@_03LEOLGMJP@Apr?$AA@  1007c284     libucrt:nlsdata.obj
 0002:0000a288       ??_C@_03CNMDKL@May?$AA@    1007c288     libucrt:nlsdata.obj
 0002:0000a28c       ??_C@_03IDFGHECI@Jun?$AA@  1007c28c     libucrt:nlsdata.obj
 0002:0000a290       ??_C@_03LBGABGKK@Jul?$AA@  1007c290     libucrt:nlsdata.obj
 0002:0000a294       ??_C@_03IFJFEIGA@Aug?$AA@  1007c294     libucrt:nlsdata.obj
 0002:0000a298       ??_C@_03GGCAPAJC@Sep?$AA@  1007c298     libucrt:nlsdata.obj
 0002:0000a29c       ??_C@_03BMAOKBAD@Oct?$AA@  1007c29c     libucrt:nlsdata.obj
 0002:0000a2a0       ??_C@_03JPJOFNIA@Nov?$AA@  1007c2a0     libucrt:nlsdata.obj
 0002:0000a2a4       ??_C@_03MKABNOCG@Dec?$AA@  1007c2a4     libucrt:nlsdata.obj
 0002:0000a2a8       ??_C@_07CGJPFGJA@January?$AA@ 1007c2a8     libucrt:nlsdata.obj
 0002:0000a2b4       ??_C@_08GNJGEPFN@February?$AA@ 1007c2b4     libucrt:nlsdata.obj
 0002:0000a2c0       ??_C@_05HPCKOFNC@March?$AA@ 1007c2c0     libucrt:nlsdata.obj
 0002:0000a2c8       ??_C@_05DMJDNLEJ@April?$AA@ 1007c2c8     libucrt:nlsdata.obj
 0002:0000a2d0       ??_C@_04CNLMGBGM@June?$AA@ 1007c2d0     libucrt:nlsdata.obj
 0002:0000a2d8       ??_C@_04MIEPOIFP@July?$AA@ 1007c2d8     libucrt:nlsdata.obj
 0002:0000a2e0       ??_C@_06LBBHFDDG@August?$AA@ 1007c2e0     libucrt:nlsdata.obj
 0002:0000a2e8       ??_C@_09BHHEALKD@September?$AA@ 1007c2e8     libucrt:nlsdata.obj
 0002:0000a2f4       ??_C@_07JJNFCEND@October?$AA@ 1007c2f4     libucrt:nlsdata.obj
 0002:0000a300       ??_C@_08HCHEGEOA@November?$AA@ 1007c300     libucrt:nlsdata.obj
 0002:0000a30c       ??_C@_08EDHMEBNP@December?$AA@ 1007c30c     libucrt:nlsdata.obj
 0002:0000a318       ??_C@_02DEDBPAFC@AM?$AA@   1007c318     libucrt:nlsdata.obj
 0002:0000a31c       ??_C@_02CJNFDJBF@PM?$AA@   1007c31c     libucrt:nlsdata.obj
 0002:0000a320       ??_C@_08BPBNCDIB@MM?1dd?1yy?$AA@ 1007c320     libucrt:nlsdata.obj
 0002:0000a32c       ??_C@_0BE@CKGJFCPC@dddd?0?5MMMM?5dd?0?5yyyy?$AA@ 1007c32c     libucrt:nlsdata.obj
 0002:0000a344       ??_C@_08JCCMCCIL@HH?3mm?3ss?$AA@ 1007c344     libucrt:nlsdata.obj
 0002:0000a350       ??_C@_17MBGCMIPB@?$AAS?$AAu?$AAn?$AA?$AA@ 1007c350     libucrt:nlsdata.obj
 0002:0000a35c       ??_C@_17KBOMKBF@?$AAM?$AAo?$AAn?$AA?$AA@ 1007c35c     libucrt:nlsdata.obj
 0002:0000a368       ??_C@_17BMKGEGOJ@?$AAT?$AAu?$AAe?$AA?$AA@ 1007c368     libucrt:nlsdata.obj
 0002:0000a374       ??_C@_17CJEDCEPE@?$AAW?$AAe?$AAd?$AA?$AA@ 1007c374     libucrt:nlsdata.obj
 0002:0000a380       ??_C@_17PDPHAADD@?$AAT?$AAh?$AAu?$AA?$AA@ 1007c380     libucrt:nlsdata.obj
 0002:0000a38c       ??_C@_17HFOLPPLP@?$AAF?$AAr?$AAi?$AA?$AA@ 1007c38c     libucrt:nlsdata.obj
 0002:0000a398       ??_C@_17GGIBDPIH@?$AAS?$AAa?$AAt?$AA?$AA@ 1007c398     libucrt:nlsdata.obj
 0002:0000a3a4       ??_C@_1O@IHNHDHPB@?$AAS?$AAu?$AAn?$AAd?$AAa?$AAy?$AA?$AA@ 1007c3a4     libucrt:nlsdata.obj
 0002:0000a3b4       ??_C@_1O@MMNBFLIA@?$AAM?$AAo?$AAn?$AAd?$AAa?$AAy?$AA?$AA@ 1007c3b4     libucrt:nlsdata.obj
 0002:0000a3c4       ??_C@_1BA@ENFBFFEK@?$AAT?$AAu?$AAe?$AAs?$AAd?$AAa?$AAy?$AA?$AA@ 1007c3c4     libucrt:nlsdata.obj
 0002:0000a3d8       ??_C@_1BE@EBOGMDOH@?$AAW?$AAe?$AAd?$AAn?$AAe?$AAs?$AAd?$AAa?$AAy?$AA?$AA@ 1007c3d8     libucrt:nlsdata.obj
 0002:0000a3f0       ??_C@_1BC@HHMNLIHE@?$AAT?$AAh?$AAu?$AAr?$AAs?$AAd?$AAa?$AAy?$AA?$AA@ 1007c3f0     libucrt:nlsdata.obj
 0002:0000a408       ??_C@_1O@PDICJHAG@?$AAF?$AAr?$AAi?$AAd?$AAa?$AAy?$AA?$AA@ 1007c408     libucrt:nlsdata.obj
 0002:0000a418       ??_C@_1BC@ENMNNPAJ@?$AAS?$AAa?$AAt?$AAu?$AAr?$AAd?$AAa?$AAy?$AA?$AA@ 1007c418     libucrt:nlsdata.obj
 0002:0000a430       ??_C@_17DKNBKCHM@?$AAJ?$AAa?$AAn?$AA?$AA@ 1007c430     libucrt:nlsdata.obj
 0002:0000a43c       ??_C@_17LMDJEKJN@?$AAF?$AAe?$AAb?$AA?$AA@ 1007c43c     libucrt:nlsdata.obj
 0002:0000a448       ??_C@_17CKNLEDEC@?$AAM?$AAa?$AAr?$AA?$AA@ 1007c448     libucrt:nlsdata.obj
 0002:0000a454       ??_C@_17LFPOIHDD@?$AAA?$AAp?$AAr?$AA?$AA@ 1007c454     libucrt:nlsdata.obj
 0002:0000a460       ??_C@_17PNNKMEED@?$AAM?$AAa?$AAy?$AA?$AA@ 1007c460     libucrt:nlsdata.obj
 0002:0000a46c       ??_C@_17KCJGOCPB@?$AAJ?$AAu?$AAn?$AA?$AA@ 1007c46c     libucrt:nlsdata.obj
 0002:0000a478       ??_C@_17IJPCKHK@?$AAJ?$AAu?$AAl?$AA?$AA@ 1007c478     libucrt:nlsdata.obj
 0002:0000a484       ??_C@_17ICPELBCN@?$AAA?$AAu?$AAg?$AA?$AA@ 1007c484     libucrt:nlsdata.obj
 0002:0000a490       ??_C@_17HCHCOKMG@?$AAS?$AAe?$AAp?$AA?$AA@ 1007c490     libucrt:nlsdata.obj
 0002:0000a49c       ??_C@_17FNLKOI@?$AAO?$AAc?$AAt?$AA?$AA@ 1007c49c     libucrt:nlsdata.obj
 0002:0000a4a8       ??_C@_17BBDMLCIG@?$AAN?$AAo?$AAv?$AA?$AA@ 1007c4a8     libucrt:nlsdata.obj
 0002:0000a4b4       ??_C@_17EGKACKIF@?$AAD?$AAe?$AAc?$AA?$AA@ 1007c4b4     libucrt:nlsdata.obj
 0002:0000a4c0       ??_C@_1BA@EFMEIEBA@?$AAJ?$AAa?$AAn?$AAu?$AAa?$AAr?$AAy?$AA?$AA@ 1007c4c0     libucrt:nlsdata.obj
 0002:0000a4d4       ??_C@_1BC@JGDDFFAM@?$AAF?$AAe?$AAb?$AAr?$AAu?$AAa?$AAr?$AAy?$AA?$AA@ 1007c4d4     libucrt:nlsdata.obj
 0002:0000a4ec       ??_C@_1M@IKEENEDF@?$AAM?$AAa?$AAr?$AAc?$AAh?$AA?$AA@ 1007c4ec     libucrt:nlsdata.obj
 0002:0000a4fc       ??_C@_1M@GJNLMHFD@?$AAA?$AAp?$AAr?$AAi?$AAl?$AA?$AA@ 1007c4fc     libucrt:nlsdata.obj
 0002:0000a50c       ??_C@_19EPFLPGAP@?$AAJ?$AAu?$AAn?$AAe?$AA?$AA@ 1007c50c     libucrt:nlsdata.obj
 0002:0000a518       ??_C@_19BIFMLPCD@?$AAJ?$AAu?$AAl?$AAy?$AA?$AA@ 1007c518     libucrt:nlsdata.obj
 0002:0000a524       ??_C@_1O@PAHLKOAC@?$AAA?$AAu?$AAg?$AAu?$AAs?$AAt?$AA?$AA@ 1007c524     libucrt:nlsdata.obj
 0002:0000a534       ??_C@_1BE@DKAAMBJL@?$AAS?$AAe?$AAp?$AAt?$AAe?$AAm?$AAb?$AAe?$AAr?$AA?$AA@ 1007c534     libucrt:nlsdata.obj
 0002:0000a54c       ??_C@_1BA@EPANDLNG@?$AAO?$AAc?$AAt?$AAo?$AAb?$AAe?$AAr?$AA?$AA@ 1007c54c     libucrt:nlsdata.obj
 0002:0000a560       ??_C@_1BC@BGLIFPF@?$AAN?$AAo?$AAv?$AAe?$AAm?$AAb?$AAe?$AAr?$AA?$AA@ 1007c560     libucrt:nlsdata.obj
 0002:0000a578       ??_C@_1BC@FEMKIFH@?$AAD?$AAe?$AAc?$AAe?$AAm?$AAb?$AAe?$AAr?$AA?$AA@ 1007c578     libucrt:nlsdata.obj
 0002:0000a590       ??_C@_15ODEHAHHF@?$AAA?$AAM?$AA?$AA@ 1007c590     libucrt:nlsdata.obj
 0002:0000a598       ??_C@_15CLMNNGEL@?$AAP?$AAM?$AA?$AA@ 1007c598     libucrt:nlsdata.obj
 0002:0000a5a0       ??_C@_1BC@IEBCMHCM@?$AAM?$AAM?$AA?1?$AAd?$AAd?$AA?1?$AAy?$AAy?$AA?$AA@ 1007c5a0     libucrt:nlsdata.obj
 0002:0000a5b8       ??_C@_1CI@KNAKOEBC@?$AAd?$AAd?$AAd?$AAd?$AA?0?$AA?5?$AAM?$AAM?$AAM?$AAM?$AA?5?$AAd?$AAd?$AA?0?$AA?5?$AAy?$AAy?$AAy?$AAy?$AA?$AA@ 1007c5b8     libucrt:nlsdata.obj
 0002:0000a5e8       ??_C@_1BC@GDGBMEMK@?$AAH?$AAH?$AA?3?$AAm?$AAm?$AA?3?$AAs?$AAs?$AA?$AA@ 1007c5e8     libucrt:nlsdata.obj
 0002:0000a600       ??_C@_1M@BMHNFIME@?$AAe?$AAn?$AA?9?$AAU?$AAS?$AA?$AA@ 1007c600     libucrt:nlsdata.obj
 0002:0000a610       ?ccs@?1???$__acrt_stdio_parse_mode@D@@YA?AU__acrt_stdio_stream_mode@@QBD@Z@4QBDB 1007c610     libucrt:openfile.obj
 0002:0000a614       ?utf8_encoding@?1???$__acrt_stdio_parse_mode@D@@YA?AU__acrt_stdio_stream_mode@@QBD@Z@4QBDB 1007c614     libucrt:openfile.obj
 0002:0000a61c       ?utf16_encoding@?1???$__acrt_stdio_parse_mode@D@@YA?AU__acrt_stdio_stream_mode@@QBD@Z@4QBDB 1007c61c     libucrt:openfile.obj
 0002:0000a628       ?unicode_encoding@?1???$__acrt_stdio_parse_mode@D@@YA?AU__acrt_stdio_stream_mode@@QBD@Z@4QBDB 1007c628     libucrt:openfile.obj
 0002:0000a630       ?ccs@?1???$__acrt_stdio_parse_mode@_W@@YA?AU__acrt_stdio_stream_mode@@QB_W@Z@4QB_WB 1007c630     libucrt:openfile.obj
 0002:0000a638       ?utf8_encoding@?1???$__acrt_stdio_parse_mode@_W@@YA?AU__acrt_stdio_stream_mode@@QB_W@Z@4QB_WB 1007c638     libucrt:openfile.obj
 0002:0000a644       ?utf16_encoding@?1???$__acrt_stdio_parse_mode@_W@@YA?AU__acrt_stdio_stream_mode@@QB_W@Z@4QB_WB 1007c644     libucrt:openfile.obj
 0002:0000a658       ?unicode_encoding@?1???$__acrt_stdio_parse_mode@_W@@YA?AU__acrt_stdio_stream_mode@@QB_W@Z@4QB_WB 1007c658     libucrt:openfile.obj
 0002:0000a668       __d_inf                    1007c668     libucrt:util.obj
 0002:0000a678       __d_ind                    1007c678     libucrt:util.obj
 0002:0000a688       __d_max                    1007c688     libucrt:util.obj
 0002:0000a698       __d_min                    1007c698     libucrt:util.obj
 0002:0000a6a8       __d_mzero                  1007c6a8     libucrt:util.obj
 0002:0000a6d4       ??_C@_1DE@JNGNBFGO@?$AAR?$AAu?$AAn?$AAt?$AAi?$AAm?$AAe?$AA?5?$AAE?$AAr?$AAr?$AAo?$AAr?$AA?$CB?$AA?6?$AA?6?$AAP?$AAr?$AAo?$AAg?$AAr?$AAa?$AAm?$AA?3?$AA?5?$AA?$AA@ 1007c6d4     libucrt:report_runtime_error.obj
 0002:0000a728       ??_C@_1M@HPNHIDJI@?$AAj?$AAa?$AA?9?$AAJ?$AAP?$AA?$AA@ 1007c728     libucrt:mbctype.obj
 0002:0000a738       ??_C@_1M@BIBDDEMK@?$AAz?$AAh?$AA?9?$AAC?$AAN?$AA?$AA@ 1007c738     libucrt:mbctype.obj
 0002:0000a748       ??_C@_1M@JLOOOEGK@?$AAk?$AAo?$AA?9?$AAK?$AAR?$AA?$AA@ 1007c748     libucrt:mbctype.obj
 0002:0000a758       ??_C@_1M@CLNBBOPM@?$AAz?$AAh?$AA?9?$AAT?$AAW?$AA?$AA@ 1007c758     libucrt:mbctype.obj
 0002:0000a768       ___newctype                1007c768     libucrt:ctype.obj
 0002:0000ab08       ___newclmap                1007cb08     libucrt:ctype.obj
 0002:0000acd8       ___newcumap                1007ccd8     libucrt:ctype.obj
 0002:0000aea8       __wctype                   1007cea8     libucrt:ctype.obj
 0002:0000b9a4       ??_C@_15EMKDOKLE@?$AAa?$AAr?$AA?$AA@ 1007d9a4     libucrt:lcidtoname_downlevel.obj
 0002:0000b9ac       ??_C@_15KNPADPLH@?$AAb?$AAg?$AA?$AA@ 1007d9ac     libucrt:lcidtoname_downlevel.obj
 0002:0000b9b4       ??_C@_15EDMHLDMO@?$AAc?$AAa?$AA?$AA@ 1007d9b4     libucrt:lcidtoname_downlevel.obj
 0002:0000b9bc       ??_C@_1O@BPEAJADD@?$AAz?$AAh?$AA?9?$AAC?$AAH?$AAS?$AA?$AA@ 1007d9bc     libucrt:lcidtoname_downlevel.obj
 0002:0000b9cc       ??_C@_15LJNHCMNK@?$AAc?$AAs?$AA?$AA@ 1007d9cc     libucrt:lcidtoname_downlevel.obj
 0002:0000b9d4       ??_C@_15FOMCIDHG@?$AAd?$AAa?$AA?$AA@ 1007d9d4     libucrt:lcidtoname_downlevel.obj
 0002:0000b9dc       ??_C@_15NBKABECB@?$AAd?$AAe?$AA?$AA@ 1007d9dc     libucrt:lcidtoname_downlevel.obj
 0002:0000b9e4       ??_C@_15GHPEIIAO@?$AAe?$AAl?$AA?$AA@ 1007d9e4     libucrt:lcidtoname_downlevel.obj
 0002:0000b9ec       ??_C@_15MNPNEAIF@?$AAe?$AAn?$AA?$AA@ 1007d9ec     libucrt:lcidtoname_downlevel.obj
 0002:0000b9f4       ??_C@_15GPIOMPMH@?$AAe?$AAs?$AA?$AA@ 1007d9f4     libucrt:lcidtoname_downlevel.obj
 0002:0000b9fc       ??_C@_15NGLOAKJC@?$AAf?$AAi?$AA?$AA@ 1007d9fc     libucrt:lcidtoname_downlevel.obj
 0002:0000ba04       ??_C@_15FBKGNKAM@?$AAf?$AAr?$AA?$AA@ 1007da04     libucrt:lcidtoname_downlevel.obj
 0002:0000ba0c       ??_C@_15KGGCNEFK@?$AAh?$AAe?$AA?$AA@ 1007da0c     libucrt:lcidtoname_downlevel.obj
 0002:0000ba14       ??_C@_15PGHLIDMF@?$AAh?$AAu?$AA?$AA@ 1007da14     libucrt:lcidtoname_downlevel.obj
 0002:0000ba1c       ??_C@_15BIEMAPLM@?$AAi?$AAs?$AA?$AA@ 1007da1c     libucrt:lcidtoname_downlevel.obj
 0002:0000ba24       ??_C@_15IFJLDHAF@?$AAi?$AAt?$AA?$AA@ 1007da24     libucrt:lcidtoname_downlevel.obj
 0002:0000ba2c       ??_C@_15GEMIOCAG@?$AAj?$AAa?$AA?$AA@ 1007da2c     libucrt:lcidtoname_downlevel.obj
 0002:0000ba34       ??_C@_15EPELEGJA@?$AAk?$AAo?$AA?$AA@ 1007da34     libucrt:lcidtoname_downlevel.obj
 0002:0000ba3c       ??_C@_15NDDHIMN@?$AAn?$AAl?$AA?$AA@ 1007da3c     libucrt:lcidtoname_downlevel.obj
 0002:0000ba44       ??_C@_15BPIGNHCD@?$AAn?$AAo?$AA?$AA@ 1007da44     libucrt:lcidtoname_downlevel.obj
 0002:0000ba4c       ??_C@_15DEOPBLCG@?$AAp?$AAl?$AA?$AA@ 1007da4c     libucrt:lcidtoname_downlevel.obj
 0002:0000ba54       ??_C@_15KBECGEFG@?$AAp?$AAt?$AA?$AA@ 1007da54     libucrt:lcidtoname_downlevel.obj
 0002:0000ba5c       ??_C@_15GLJCBFMD@?$AAr?$AAo?$AA?$AA@ 1007da5c     libucrt:lcidtoname_downlevel.obj
 0002:0000ba64       ??_C@_15FEDGKCDI@?$AAr?$AAu?$AA?$AA@ 1007da64     libucrt:lcidtoname_downlevel.obj
 0002:0000ba6c       ??_C@_15GLKMLLHM@?$AAh?$AAr?$AA?$AA@ 1007da6c     libucrt:lcidtoname_downlevel.obj
 0002:0000ba74       ??_C@_15CPKMFBDB@?$AAs?$AAk?$AA?$AA@ 1007da74     libucrt:lcidtoname_downlevel.obj
 0002:0000ba7c       ??_C@_15BAAIOGMK@?$AAs?$AAq?$AA?$AA@ 1007da7c     libucrt:lcidtoname_downlevel.obj
 0002:0000ba84       ??_C@_15INNPNOHD@?$AAs?$AAv?$AA?$AA@ 1007da84     libucrt:lcidtoname_downlevel.obj
 0002:0000ba8c       ??_C@_15CABMMOGH@?$AAt?$AAh?$AA?$AA@ 1007da8c     libucrt:lcidtoname_downlevel.obj
 0002:0000ba94       ??_C@_15BPLIHJJM@?$AAt?$AAr?$AA?$AA@ 1007da94     libucrt:lcidtoname_downlevel.obj
 0002:0000ba9c       ??_C@_15NEOEKKDJ@?$AAu?$AAr?$AA?$AA@ 1007da9c     libucrt:lcidtoname_downlevel.obj
 0002:0000baa4       ??_C@_15NFICGAJK@?$AAi?$AAd?$AA?$AA@ 1007daa4     libucrt:lcidtoname_downlevel.obj
 0002:0000baac       ??_C@_15PJPFLCCM@?$AAu?$AAk?$AA?$AA@ 1007daac     libucrt:lcidtoname_downlevel.obj
 0002:0000bab4       ??_C@_15HPJPHDM@?$AAb?$AAe?$AA?$AA@ 1007dab4     libucrt:lcidtoname_downlevel.obj
 0002:0000babc       ??_C@_15LCHLGJII@?$AAs?$AAl?$AA?$AA@ 1007dabc     libucrt:lcidtoname_downlevel.obj
 0002:0000bac4       ??_C@_15PCFJPHHO@?$AAe?$AAt?$AA?$AA@ 1007dac4     libucrt:lcidtoname_downlevel.obj
 0002:0000bacc       ??_C@_15HPFPGODN@?$AAl?$AAv?$AA?$AA@ 1007dacc     libucrt:lcidtoname_downlevel.obj
 0002:0000bad4       ??_C@_15NFFGKGLG@?$AAl?$AAt?$AA?$AA@ 1007dad4     libucrt:lcidtoname_downlevel.obj
 0002:0000badc       ??_C@_15BDAKCCHN@?$AAf?$AAa?$AA?$AA@ 1007dadc     libucrt:lcidtoname_downlevel.obj
 0002:0000bae4       ??_C@_15NFGIAIAJ@?$AAv?$AAi?$AA?$AA@ 1007dae4     libucrt:lcidtoname_downlevel.obj
 0002:0000baec       ??_C@_15LMKNDMHN@?$AAh?$AAy?$AA?$AA@ 1007daec     libucrt:lcidtoname_downlevel.obj
 0002:0000baf4       ??_C@_15IJBHMCFL@?$AAa?$AAz?$AA?$AA@ 1007daf4     libucrt:lcidtoname_downlevel.obj
 0002:0000bafc       ??_C@_15EKOFJABL@?$AAe?$AAu?$AA?$AA@ 1007dafc     libucrt:lcidtoname_downlevel.obj
 0002:0000bb04       ??_C@_15BGHADCNK@?$AAm?$AAk?$AA?$AA@ 1007db04     libucrt:lcidtoname_downlevel.obj
 0002:0000bb0c       ??_C@_15JDNICKHM@?$AAa?$AAf?$AA?$AA@ 1007db0c     libucrt:lcidtoname_downlevel.obj
 0002:0000bb14       ??_C@_15KPJEDBKD@?$AAk?$AAa?$AA?$AA@ 1007db14     libucrt:lcidtoname_downlevel.obj
 0002:0000bb1c       ??_C@_15PDNFFFEO@?$AAf?$AAo?$AA?$AA@ 1007db1c     libucrt:lcidtoname_downlevel.obj
 0002:0000bb24       ??_C@_15OMLEGLOC@?$AAh?$AAi?$AA?$AA@ 1007db24     libucrt:lcidtoname_downlevel.obj
 0002:0000bb2c       ??_C@_15IDNNENKK@?$AAm?$AAs?$AA?$AA@ 1007db2c     libucrt:lcidtoname_downlevel.obj
 0002:0000bb34       ??_C@_15MACJNBMH@?$AAk?$AAk?$AA?$AA@ 1007db34     libucrt:lcidtoname_downlevel.obj
 0002:0000bb3c       ??_C@_15DKDJEOND@?$AAk?$AAy?$AA?$AA@ 1007db3c     libucrt:lcidtoname_downlevel.obj
 0002:0000bb44       ??_C@_15DFGDLJBG@?$AAs?$AAw?$AA?$AA@ 1007db44     libucrt:lcidtoname_downlevel.obj
 0002:0000bb4c       ??_C@_15BBFAICNG@?$AAu?$AAz?$AA?$AA@ 1007db4c     libucrt:lcidtoname_downlevel.obj
 0002:0000bb54       ??_C@_15DKNDCGEA@?$AAt?$AAt?$AA?$AA@ 1007db54     libucrt:lcidtoname_downlevel.obj
 0002:0000bb5c       ??_C@_15MGIFMDPL@?$AAp?$AAa?$AA?$AA@ 1007db5c     libucrt:lcidtoname_downlevel.obj
 0002:0000bb64       ??_C@_15HCNDBBA@?$AAg?$AAu?$AA?$AA@ 1007db64     libucrt:lcidtoname_downlevel.obj
 0002:0000bb6c       ??_C@_15FNBEIBON@?$AAt?$AAa?$AA?$AA@ 1007db6c     libucrt:lcidtoname_downlevel.obj
 0002:0000bb74       ??_C@_15NCHGBGLK@?$AAt?$AAe?$AA?$AA@ 1007db74     libucrt:lcidtoname_downlevel.obj
 0002:0000bb7c       ??_C@_15PHPHCBPF@?$AAk?$AAn?$AA?$AA@ 1007db7c     libucrt:lcidtoname_downlevel.obj
 0002:0000bb84       ??_C@_15DLGBCKMP@?$AAm?$AAr?$AA?$AA@ 1007db84     libucrt:lcidtoname_downlevel.obj
 0002:0000bb8c       ??_C@_15EABBLBFF@?$AAs?$AAa?$AA?$AA@ 1007db8c     libucrt:lcidtoname_downlevel.obj
 0002:0000bb94       ??_C@_15CBKOMCOI@?$AAm?$AAn?$AA?$AA@ 1007db94     libucrt:lcidtoname_downlevel.obj
 0002:0000bb9c       ??_C@_15CKDMCJAF@?$AAg?$AAl?$AA?$AA@ 1007db9c     libucrt:lcidtoname_downlevel.obj
 0002:0000bba4       ??_C@_17CNJFBPG@?$AAk?$AAo?$AAk?$AA?$AA@ 1007dba4     libucrt:lcidtoname_downlevel.obj
 0002:0000bbb0       ??_C@_17FFBJICPL@?$AAs?$AAy?$AAr?$AA?$AA@ 1007dbb0     libucrt:lcidtoname_downlevel.obj
 0002:0000bbbc       ??_C@_17KPNDCPAF@?$AAd?$AAi?$AAv?$AA?$AA@ 1007dbbc     libucrt:lcidtoname_downlevel.obj
 0002:0000bbc8       ??_C@_11LOCGONAA@?$AA?$AA@ 1007dbc8     libucrt:lcidtoname_downlevel.obj
 0002:0000bbcc       ??_C@_1M@OKAHONE@?$AAa?$AAr?$AA?9?$AAS?$AAA?$AA?$AA@ 1007dbcc     libucrt:lcidtoname_downlevel.obj
 0002:0000bbdc       ??_C@_1M@FFFIGIGK@?$AAb?$AAg?$AA?9?$AAB?$AAG?$AA?$AA@ 1007dbdc     libucrt:lcidtoname_downlevel.obj
 0002:0000bbec       ??_C@_1M@BJNKEDC@?$AAc?$AAa?$AA?9?$AAE?$AAS?$AA?$AA@ 1007dbec     libucrt:lcidtoname_downlevel.obj
 0002:0000bbfc       ??_C@_1M@IJJHFJHA@?$AAc?$AAs?$AA?9?$AAC?$AAZ?$AA?$AA@ 1007dbfc     libucrt:lcidtoname_downlevel.obj
 0002:0000bc0c       ??_C@_1M@CLPEOBGI@?$AAd?$AAa?$AA?9?$AAD?$AAK?$AA?$AA@ 1007dc0c     libucrt:lcidtoname_downlevel.obj
 0002:0000bc1c       ??_C@_1M@MCMADGCB@?$AAd?$AAe?$AA?9?$AAD?$AAE?$AA?$AA@ 1007dc1c     libucrt:lcidtoname_downlevel.obj
 0002:0000bc2c       ??_C@_1M@OOCKEMAM@?$AAe?$AAl?$AA?9?$AAG?$AAR?$AA?$AA@ 1007dc2c     libucrt:lcidtoname_downlevel.obj
 0002:0000bc3c       ??_C@_1M@DDNJFGID@?$AAf?$AAi?$AA?9?$AAF?$AAI?$AA?$AA@ 1007dc3c     libucrt:lcidtoname_downlevel.obj
 0002:0000bc4c       ??_C@_1M@GLIPPMAC@?$AAf?$AAr?$AA?9?$AAF?$AAR?$AA?$AA@ 1007dc4c     libucrt:lcidtoname_downlevel.obj
 0002:0000bc5c       ??_C@_1M@GFMCHPE@?$AAh?$AAe?$AA?9?$AAI?$AAL?$AA?$AA@ 1007dc5c     libucrt:lcidtoname_downlevel.obj
 0002:0000bc6c       ??_C@_1M@MHLPGNKM@?$AAh?$AAu?$AA?9?$AAH?$AAU?$AA?$AA@ 1007dc6c     libucrt:lcidtoname_downlevel.obj
 0002:0000bc7c       ??_C@_1M@LPDDNNPN@?$AAi?$AAs?$AA?9?$AAI?$AAS?$AA?$AA@ 1007dc7c     libucrt:lcidtoname_downlevel.obj
 0002:0000bc8c       ??_C@_1M@MADIPODN@?$AAi?$AAt?$AA?9?$AAI?$AAT?$AA?$AA@ 1007dc8c     libucrt:lcidtoname_downlevel.obj
 0002:0000bc9c       ??_C@_1M@IHBJJGG@?$AAn?$AAl?$AA?9?$AAN?$AAL?$AA?$AA@ 1007dc9c     libucrt:lcidtoname_downlevel.obj
 0002:0000bcac       ??_C@_1M@EANAGDL@?$AAn?$AAb?$AA?9?$AAN?$AAO?$AA?$AA@ 1007dcac     libucrt:lcidtoname_downlevel.obj
 0002:0000bcbc       ??_C@_1M@NEIEMEGP@?$AAp?$AAl?$AA?9?$AAP?$AAL?$AA?$AA@ 1007dcbc     libucrt:lcidtoname_downlevel.obj
 0002:0000bccc       ??_C@_1M@BOCFIGEP@?$AAp?$AAt?$AA?9?$AAB?$AAR?$AA?$AA@ 1007dccc     libucrt:lcidtoname_downlevel.obj
 0002:0000bcdc       ??_C@_1M@IMPFOPBG@?$AAr?$AAo?$AA?9?$AAR?$AAO?$AA?$AA@ 1007dcdc     libucrt:lcidtoname_downlevel.obj
 0002:0000bcec       ??_C@_1M@IDNNEJMM@?$AAr?$AAu?$AA?9?$AAR?$AAU?$AA?$AA@ 1007dcec     libucrt:lcidtoname_downlevel.obj
 0002:0000bcfc       ??_C@_1M@LILEEOGM@?$AAh?$AAr?$AA?9?$AAH?$AAR?$AA?$AA@ 1007dcfc     libucrt:lcidtoname_downlevel.obj
 0002:0000bd0c       ??_C@_1M@FKIFEHPB@?$AAs?$AAk?$AA?9?$AAS?$AAK?$AA?$AA@ 1007dd0c     libucrt:lcidtoname_downlevel.obj
 0002:0000bd1c       ??_C@_1M@LJMAMNPJ@?$AAs?$AAq?$AA?9?$AAA?$AAL?$AA?$AA@ 1007dd1c     libucrt:lcidtoname_downlevel.obj
 0002:0000bd2c       ??_C@_1M@GIAKDKJK@?$AAs?$AAv?$AA?9?$AAS?$AAE?$AA?$AA@ 1007dd2c     libucrt:lcidtoname_downlevel.obj
 0002:0000bd3c       ??_C@_1M@MKJKIKCL@?$AAt?$AAh?$AA?9?$AAT?$AAH?$AA?$AA@ 1007dd3c     libucrt:lcidtoname_downlevel.obj
 0002:0000bd4c       ??_C@_1M@MFLCCMPB@?$AAt?$AAr?$AA?9?$AAT?$AAR?$AA?$AA@ 1007dd4c     libucrt:lcidtoname_downlevel.obj
 0002:0000bd5c       ??_C@_1M@OIJHDKJN@?$AAu?$AAr?$AA?9?$AAP?$AAK?$AA?$AA@ 1007dd5c     libucrt:lcidtoname_downlevel.obj
 0002:0000bd6c       ??_C@_1M@LHIPCIEK@?$AAi?$AAd?$AA?9?$AAI?$AAD?$AA?$AA@ 1007dd6c     libucrt:lcidtoname_downlevel.obj
 0002:0000bd7c       ??_C@_1M@MFMOBGI@?$AAu?$AAk?$AA?9?$AAU?$AAA?$AA?$AA@ 1007dd7c     libucrt:lcidtoname_downlevel.obj
 0002:0000bd8c       ??_C@_1M@OBGLJIPL@?$AAb?$AAe?$AA?9?$AAB?$AAY?$AA?$AA@ 1007dd8c     libucrt:lcidtoname_downlevel.obj
 0002:0000bd9c       ??_C@_1M@BCFAJEAD@?$AAs?$AAl?$AA?9?$AAS?$AAI?$AA?$AA@ 1007dd9c     libucrt:lcidtoname_downlevel.obj
 0002:0000bdac       ??_C@_1M@FKFFEDDN@?$AAe?$AAt?$AA?9?$AAE?$AAE?$AA?$AA@ 1007ddac     libucrt:lcidtoname_downlevel.obj
 0002:0000bdbc       ??_C@_1M@KGKKAACI@?$AAl?$AAv?$AA?9?$AAL?$AAV?$AA?$AA@ 1007ddbc     libucrt:lcidtoname_downlevel.obj
 0002:0000bdcc       ??_C@_1M@IFGBIJO@?$AAl?$AAt?$AA?9?$AAL?$AAT?$AA?$AA@ 1007ddcc     libucrt:lcidtoname_downlevel.obj
 0002:0000bddc       ??_C@_1M@FGEAHEDM@?$AAf?$AAa?$AA?9?$AAI?$AAR?$AA?$AA@ 1007dddc     libucrt:lcidtoname_downlevel.obj
 0002:0000bdec       ??_C@_1M@KBMAIBFN@?$AAv?$AAi?$AA?9?$AAV?$AAN?$AA?$AA@ 1007ddec     libucrt:lcidtoname_downlevel.obj
 0002:0000bdfc       ??_C@_1M@GPCBKDJK@?$AAh?$AAy?$AA?9?$AAA?$AAM?$AA?$AA@ 1007ddfc     libucrt:lcidtoname_downlevel.obj
 0002:0000be0c       ??_C@_1BG@BECMDDJB@?$AAa?$AAz?$AA?9?$AAA?$AAZ?$AA?9?$AAL?$AAa?$AAt?$AAn?$AA?$AA@ 1007de0c     libucrt:lcidtoname_downlevel.obj
 0002:0000be28       ??_C@_1M@MAOFCAEA@?$AAe?$AAu?$AA?9?$AAE?$AAS?$AA?$AA@ 1007de28     libucrt:lcidtoname_downlevel.obj
 0002:0000be38       ??_C@_1M@IGHABKPI@?$AAm?$AAk?$AA?9?$AAM?$AAK?$AA?$AA@ 1007de38     libucrt:lcidtoname_downlevel.obj
 0002:0000be48       ??_C@_1M@IAIGNEJG@?$AAt?$AAn?$AA?9?$AAZ?$AAA?$AA?$AA@ 1007de48     libucrt:lcidtoname_downlevel.obj
 0002:0000be58       ??_C@_1M@IIJCOJFA@?$AAx?$AAh?$AA?9?$AAZ?$AAA?$AA?$AA@ 1007de58     libucrt:lcidtoname_downlevel.obj
 0002:0000be68       ??_C@_1M@LGPJHNJH@?$AAz?$AAu?$AA?9?$AAZ?$AAA?$AA?$AA@ 1007de68     libucrt:lcidtoname_downlevel.obj
 0002:0000be78       ??_C@_1M@HOKAOIO@?$AAa?$AAf?$AA?9?$AAZ?$AAA?$AA?$AA@ 1007de78     libucrt:lcidtoname_downlevel.obj
 0002:0000be88       ??_C@_1M@DPCLHLIE@?$AAk?$AAa?$AA?9?$AAG?$AAE?$AA?$AA@ 1007de88     libucrt:lcidtoname_downlevel.obj
 0002:0000be98       ??_C@_1M@BLKMHJBI@?$AAf?$AAo?$AA?9?$AAF?$AAO?$AA?$AA@ 1007de98     libucrt:lcidtoname_downlevel.obj
 0002:0000bea8       ??_C@_1M@LGGJAPPB@?$AAh?$AAi?$AA?9?$AAI?$AAN?$AA?$AA@ 1007dea8     libucrt:lcidtoname_downlevel.obj
 0002:0000beb8       ??_C@_1M@FIKPIHFE@?$AAm?$AAt?$AA?9?$AAM?$AAT?$AA?$AA@ 1007deb8     libucrt:lcidtoname_downlevel.obj
 0002:0000bec8       ??_C@_1M@HEGGPBFA@?$AAs?$AAe?$AA?9?$AAN?$AAO?$AA?$AA@ 1007dec8     libucrt:lcidtoname_downlevel.obj
 0002:0000bed8       ??_C@_1M@EIBJEEPA@?$AAm?$AAs?$AA?9?$AAM?$AAY?$AA?$AA@ 1007ded8     libucrt:lcidtoname_downlevel.obj
 0002:0000bee8       ??_C@_1M@FHLBGMPP@?$AAk?$AAk?$AA?9?$AAK?$AAZ?$AA?$AA@ 1007dee8     libucrt:lcidtoname_downlevel.obj
 0002:0000bef8       ??_C@_1M@NGJJLCGI@?$AAk?$AAy?$AA?9?$AAK?$AAG?$AA?$AA@ 1007def8     libucrt:lcidtoname_downlevel.obj
 0002:0000bf08       ??_C@_1M@GIENNBFC@?$AAs?$AAw?$AA?9?$AAK?$AAE?$AA?$AA@ 1007df08     libucrt:lcidtoname_downlevel.obj
 0002:0000bf18       ??_C@_1BG@NDGMJIMJ@?$AAu?$AAz?$AA?9?$AAU?$AAZ?$AA?9?$AAL?$AAa?$AAt?$AAn?$AA?$AA@ 1007df18     libucrt:lcidtoname_downlevel.obj
 0002:0000bf34       ??_C@_1M@IDCCIHBC@?$AAt?$AAt?$AA?9?$AAR?$AAU?$AA?$AA@ 1007df34     libucrt:lcidtoname_downlevel.obj
 0002:0000bf44       ??_C@_1M@LOICPMOJ@?$AAb?$AAn?$AA?9?$AAI?$AAN?$AA?$AA@ 1007df44     libucrt:lcidtoname_downlevel.obj
 0002:0000bf54       ??_C@_1M@KPKKNEAH@?$AAp?$AAa?$AA?9?$AAI?$AAN?$AA?$AA@ 1007df54     libucrt:lcidtoname_downlevel.obj
 0002:0000bf64       ??_C@_1M@PJGPPBOG@?$AAg?$AAu?$AA?9?$AAI?$AAN?$AA?$AA@ 1007df64     libucrt:lcidtoname_downlevel.obj
 0002:0000bf74       ??_C@_1M@KMKMOPHI@?$AAt?$AAa?$AA?9?$AAI?$AAN?$AA?$AA@ 1007df74     libucrt:lcidtoname_downlevel.obj
 0002:0000bf84       ??_C@_1M@KFEHEPAC@?$AAt?$AAe?$AA?9?$AAI?$AAN?$AA?$AA@ 1007df84     libucrt:lcidtoname_downlevel.obj
 0002:0000bf94       ??_C@_1M@CDCLMGHI@?$AAk?$AAn?$AA?9?$AAI?$AAN?$AA?$AA@ 1007df94     libucrt:lcidtoname_downlevel.obj
 0002:0000bfa4       ??_C@_1M@MIODLDKF@?$AAm?$AAl?$AA?9?$AAI?$AAN?$AA?$AA@ 1007dfa4     libucrt:lcidtoname_downlevel.obj
 0002:0000bfb4       ??_C@_1M@PBIEACPO@?$AAm?$AAr?$AA?9?$AAI?$AAN?$AA?$AA@ 1007dfb4     libucrt:lcidtoname_downlevel.obj
 0002:0000bfc4       ??_C@_1M@NIDEAGPH@?$AAs?$AAa?$AA?9?$AAI?$AAN?$AA?$AA@ 1007dfc4     libucrt:lcidtoname_downlevel.obj
 0002:0000bfd4       ??_C@_1M@FHIHCBIO@?$AAm?$AAn?$AA?9?$AAM?$AAN?$AA?$AA@ 1007dfd4     libucrt:lcidtoname_downlevel.obj
 0002:0000bfe4       ??_C@_1M@JAIJPENP@?$AAc?$AAy?$AA?9?$AAG?$AAB?$AA?$AA@ 1007dfe4     libucrt:lcidtoname_downlevel.obj
 0002:0000bff4       ??_C@_1M@PHGFBEPN@?$AAg?$AAl?$AA?9?$AAE?$AAS?$AA?$AA@ 1007dff4     libucrt:lcidtoname_downlevel.obj
 0002:0000c004       ??_C@_1O@KPIPDNCP@?$AAk?$AAo?$AAk?$AA?9?$AAI?$AAN?$AA?$AA@ 1007e004     libucrt:lcidtoname_downlevel.obj
 0002:0000c014       ??_C@_1O@KNHJLDJA@?$AAs?$AAy?$AAr?$AA?9?$AAS?$AAY?$AA?$AA@ 1007e014     libucrt:lcidtoname_downlevel.obj
 0002:0000c024       ??_C@_1O@MKEKBLAH@?$AAd?$AAi?$AAv?$AA?9?$AAM?$AAV?$AA?$AA@ 1007e024     libucrt:lcidtoname_downlevel.obj
 0002:0000c034       ??_C@_1O@OHDCKDDF@?$AAq?$AAu?$AAz?$AA?9?$AAB?$AAO?$AA?$AA@ 1007e034     libucrt:lcidtoname_downlevel.obj
 0002:0000c044       ??_C@_1M@LEPJNLFD@?$AAn?$AAs?$AA?9?$AAZ?$AAA?$AA?$AA@ 1007e044     libucrt:lcidtoname_downlevel.obj
 0002:0000c054       ??_C@_1M@OMLEIIJB@?$AAm?$AAi?$AA?9?$AAN?$AAZ?$AA?$AA@ 1007e054     libucrt:lcidtoname_downlevel.obj
 0002:0000c064       ??_C@_1M@PMPEAILG@?$AAa?$AAr?$AA?9?$AAI?$AAQ?$AA?$AA@ 1007e064     libucrt:lcidtoname_downlevel.obj
 0002:0000c074       ??_C@_1M@CNKPNOEE@?$AAd?$AAe?$AA?9?$AAC?$AAH?$AA?$AA@ 1007e074     libucrt:lcidtoname_downlevel.obj
 0002:0000c084       ??_C@_1M@LKMGMLKO@?$AAe?$AAn?$AA?9?$AAG?$AAB?$AA?$AA@ 1007e084     libucrt:lcidtoname_downlevel.obj
 0002:0000c094       ??_C@_1M@PGKJFFGL@?$AAe?$AAs?$AA?9?$AAM?$AAX?$AA?$AA@ 1007e094     libucrt:lcidtoname_downlevel.obj
 0002:0000c0a4       ??_C@_1M@DNNANBDC@?$AAf?$AAr?$AA?9?$AAB?$AAE?$AA?$AA@ 1007e0a4     libucrt:lcidtoname_downlevel.obj
 0002:0000c0b4       ??_C@_1M@HLGMDFHM@?$AAi?$AAt?$AA?9?$AAC?$AAH?$AA?$AA@ 1007e0b4     libucrt:lcidtoname_downlevel.obj
 0002:0000c0c4       ??_C@_1M@CLLBGJH@?$AAn?$AAl?$AA?9?$AAB?$AAE?$AA?$AA@ 1007e0c4     libucrt:lcidtoname_downlevel.obj
 0002:0000c0d4       ??_C@_1M@BODBOGLF@?$AAn?$AAn?$AA?9?$AAN?$AAO?$AA?$AA@ 1007e0d4     libucrt:lcidtoname_downlevel.obj
 0002:0000c0e4       ??_C@_1M@HFFAHKAD@?$AAp?$AAt?$AA?9?$AAP?$AAT?$AA?$AA@ 1007e0e4     libucrt:lcidtoname_downlevel.obj
 0002:0000c0f4       ??_C@_1BG@LNOAKHIE@?$AAs?$AAr?$AA?9?$AAS?$AAP?$AA?9?$AAL?$AAa?$AAt?$AAn?$AA?$AA@ 1007e0f4     libucrt:lcidtoname_downlevel.obj
 0002:0000c110       ??_C@_1M@HBMHBGAK@?$AAs?$AAv?$AA?9?$AAF?$AAI?$AA?$AA@ 1007e110     libucrt:lcidtoname_downlevel.obj
 0002:0000c120       ??_C@_1BG@DGCJGJBE@?$AAa?$AAz?$AA?9?$AAA?$AAZ?$AA?9?$AAC?$AAy?$AAr?$AAl?$AA?$AA@ 1007e120     libucrt:lcidtoname_downlevel.obj
 0002:0000c13c       ??_C@_1M@KEJDAAHB@?$AAs?$AAe?$AA?9?$AAS?$AAE?$AA?$AA@ 1007e13c     libucrt:lcidtoname_downlevel.obj
 0002:0000c14c       ??_C@_1M@HEIBJJAD@?$AAm?$AAs?$AA?9?$AAB?$AAN?$AA?$AA@ 1007e14c     libucrt:lcidtoname_downlevel.obj
 0002:0000c15c       ??_C@_1BG@PBGJMCEM@?$AAu?$AAz?$AA?9?$AAU?$AAZ?$AA?9?$AAC?$AAy?$AAr?$AAl?$AA?$AA@ 1007e15c     libucrt:lcidtoname_downlevel.obj
 0002:0000c178       ??_C@_1O@LAOBCMDF@?$AAq?$AAu?$AAz?$AA?9?$AAE?$AAC?$AA?$AA@ 1007e178     libucrt:lcidtoname_downlevel.obj
 0002:0000c188       ??_C@_1M@POEEMAIO@?$AAa?$AAr?$AA?9?$AAE?$AAG?$AA?$AA@ 1007e188     libucrt:lcidtoname_downlevel.obj
 0002:0000c198       ??_C@_1M@EFAKDEDL@?$AAz?$AAh?$AA?9?$AAH?$AAK?$AA?$AA@ 1007e198     libucrt:lcidtoname_downlevel.obj
 0002:0000c1a8       ??_C@_1M@HKKIJHGI@?$AAd?$AAe?$AA?9?$AAA?$AAT?$AA?$AA@ 1007e1a8     libucrt:lcidtoname_downlevel.obj
 0002:0000c1b8       ??_C@_1M@KBFBEHJF@?$AAe?$AAn?$AA?9?$AAA?$AAU?$AA?$AA@ 1007e1b8     libucrt:lcidtoname_downlevel.obj
 0002:0000c1c8       ??_C@_1M@MNPLFAAH@?$AAe?$AAs?$AA?9?$AAE?$AAS?$AA?$AA@ 1007e1c8     libucrt:lcidtoname_downlevel.obj
 0002:0000c1d8       ??_C@_1M@HJOOJFMA@?$AAf?$AAr?$AA?9?$AAC?$AAA?$AA?$AA@ 1007e1d8     libucrt:lcidtoname_downlevel.obj
 0002:0000c1e8       ??_C@_1BG@JPOFPNAB@?$AAs?$AAr?$AA?9?$AAS?$AAP?$AA?9?$AAC?$AAy?$AAr?$AAl?$AA?$AA@ 1007e1e8     libucrt:lcidtoname_downlevel.obj
 0002:0000c204       ??_C@_1M@LNFOCMOB@?$AAs?$AAe?$AA?9?$AAF?$AAI?$AA?$AA@ 1007e204     libucrt:lcidtoname_downlevel.obj
 0002:0000c214       ??_C@_1O@MGJBOAMB@?$AAq?$AAu?$AAz?$AA?9?$AAP?$AAE?$AA?$AA@ 1007e214     libucrt:lcidtoname_downlevel.obj
 0002:0000c224       ??_C@_1M@GJINLBOK@?$AAa?$AAr?$AA?9?$AAL?$AAY?$AA?$AA@ 1007e224     libucrt:lcidtoname_downlevel.obj
 0002:0000c234       ??_C@_1M@GGMNHJNL@?$AAz?$AAh?$AA?9?$AAS?$AAG?$AA?$AA@ 1007e234     libucrt:lcidtoname_downlevel.obj
 0002:0000c244       ??_C@_1M@HOIKODND@?$AAd?$AAe?$AA?9?$AAL?$AAU?$AA?$AA@ 1007e244     libucrt:lcidtoname_downlevel.obj
 0002:0000c254       ??_C@_1M@DDOCCGFG@?$AAe?$AAn?$AA?9?$AAC?$AAA?$AA?$AA@ 1007e254     libucrt:lcidtoname_downlevel.obj
 0002:0000c264       ??_C@_1M@BNOEMJLF@?$AAe?$AAs?$AA?9?$AAG?$AAT?$AA?$AA@ 1007e264     libucrt:lcidtoname_downlevel.obj
 0002:0000c274       ??_C@_1M@EOGNKEK@?$AAf?$AAr?$AA?9?$AAC?$AAH?$AA?$AA@ 1007e274     libucrt:lcidtoname_downlevel.obj
 0002:0000c284       ??_C@_1M@FLIDJFHL@?$AAh?$AAr?$AA?9?$AAB?$AAA?$AA?$AA@ 1007e284     libucrt:lcidtoname_downlevel.obj
 0002:0000c294       ??_C@_1O@FMCELNAJ@?$AAs?$AAm?$AAj?$AA?9?$AAN?$AAO?$AA?$AA@ 1007e294     libucrt:lcidtoname_downlevel.obj
 0002:0000c2a4       ??_C@_1M@JHGLJMGJ@?$AAa?$AAr?$AA?9?$AAD?$AAZ?$AA?$AA@ 1007e2a4     libucrt:lcidtoname_downlevel.obj
 0002:0000c2b4       ??_C@_1M@JKKFDCNP@?$AAz?$AAh?$AA?9?$AAM?$AAO?$AA?$AA@ 1007e2b4     libucrt:lcidtoname_downlevel.obj
 0002:0000c2c4       ??_C@_1M@GEEFALPE@?$AAd?$AAe?$AA?9?$AAL?$AAI?$AA?$AA@ 1007e2c4     libucrt:lcidtoname_downlevel.obj
 0002:0000c2d4       ??_C@_1M@IGEOFBG@?$AAe?$AAn?$AA?9?$AAN?$AAZ?$AA?$AA@ 1007e2d4     libucrt:lcidtoname_downlevel.obj
 0002:0000c2e4       ??_C@_1M@KDBONEHP@?$AAe?$AAs?$AA?9?$AAC?$AAR?$AA?$AA@ 1007e2e4     libucrt:lcidtoname_downlevel.obj
 0002:0000c2f4       ??_C@_1M@FHMDOHNN@?$AAf?$AAr?$AA?9?$AAL?$AAU?$AA?$AA@ 1007e2f4     libucrt:lcidtoname_downlevel.obj
 0002:0000c304       ??_C@_1BG@NFKKMAFG@?$AAb?$AAs?$AA?9?$AAB?$AAA?$AA?9?$AAL?$AAa?$AAt?$AAn?$AA?$AA@ 1007e304     libucrt:lcidtoname_downlevel.obj
 0002:0000c320       ??_C@_1O@IMNBEMCI@?$AAs?$AAm?$AAj?$AA?9?$AAS?$AAE?$AA?$AA@ 1007e320     libucrt:lcidtoname_downlevel.obj
 0002:0000c330       ??_C@_1M@DHHMBNDP@?$AAa?$AAr?$AA?9?$AAM?$AAA?$AA?$AA@ 1007e330     libucrt:lcidtoname_downlevel.obj
 0002:0000c340       ??_C@_1M@BNBLJCGH@?$AAe?$AAn?$AA?9?$AAI?$AAE?$AA?$AA@ 1007e340     libucrt:lcidtoname_downlevel.obj
 0002:0000c350       ??_C@_1M@GEPAFMDL@?$AAe?$AAs?$AA?9?$AAP?$AAA?$AA?$AA@ 1007e350     libucrt:lcidtoname_downlevel.obj
 0002:0000c360       ??_C@_1M@OJONDMDL@?$AAf?$AAr?$AA?9?$AAM?$AAC?$AA?$AA@ 1007e360     libucrt:lcidtoname_downlevel.obj
 0002:0000c370       ??_C@_1BG@OBCNFJB@?$AAs?$AAr?$AA?9?$AAB?$AAA?$AA?9?$AAL?$AAa?$AAt?$AAn?$AA?$AA@ 1007e370     libucrt:lcidtoname_downlevel.obj
 0002:0000c38c       ??_C@_1O@KEMEEGPO@?$AAs?$AAm?$AAa?$AA?9?$AAN?$AAO?$AA?$AA@ 1007e38c     libucrt:lcidtoname_downlevel.obj
 0002:0000c39c       ??_C@_1M@ELMGFODK@?$AAa?$AAr?$AA?9?$AAT?$AAN?$AA?$AA@ 1007e39c     libucrt:lcidtoname_downlevel.obj
 0002:0000c3ac       ??_C@_1M@BHDLHFAF@?$AAe?$AAn?$AA?9?$AAZ?$AAA?$AA?$AA@ 1007e3ac     libucrt:lcidtoname_downlevel.obj
 0002:0000c3bc       ??_C@_1M@BMGIGLIF@?$AAe?$AAs?$AA?9?$AAD?$AAO?$AA?$AA@ 1007e3bc     libucrt:lcidtoname_downlevel.obj
 0002:0000c3cc       ??_C@_1BG@CMBHIPBE@?$AAs?$AAr?$AA?9?$AAB?$AAA?$AA?9?$AAC?$AAy?$AAr?$AAl?$AA?$AA@ 1007e3cc     libucrt:lcidtoname_downlevel.obj
 0002:0000c3e8       ??_C@_1O@HEDBLHNP@?$AAs?$AAm?$AAa?$AA?9?$AAS?$AAE?$AA?$AA@ 1007e3e8     libucrt:lcidtoname_downlevel.obj
 0002:0000c3f8       ??_C@_1M@DAGCADIM@?$AAa?$AAr?$AA?9?$AAO?$AAM?$AA?$AA@ 1007e3f8     libucrt:lcidtoname_downlevel.obj
 0002:0000c408       ??_C@_1M@FODLMICG@?$AAe?$AAn?$AA?9?$AAJ?$AAM?$AA?$AA@ 1007e408     libucrt:lcidtoname_downlevel.obj
 0002:0000c418       ??_C@_1M@DNMLCIHB@?$AAe?$AAs?$AA?9?$AAV?$AAE?$AA?$AA@ 1007e418     libucrt:lcidtoname_downlevel.obj
 0002:0000c428       ??_C@_1O@EOKHMKJK@?$AAs?$AAm?$AAs?$AA?9?$AAF?$AAI?$AA?$AA@ 1007e428     libucrt:lcidtoname_downlevel.obj
 0002:0000c438       ??_C@_1M@CAFJMKOF@?$AAa?$AAr?$AA?9?$AAY?$AAE?$AA?$AA@ 1007e438     libucrt:lcidtoname_downlevel.obj
 0002:0000c448       ??_C@_1M@CBFHIJLI@?$AAe?$AAn?$AA?9?$AAC?$AAB?$AA?$AA@ 1007e448     libucrt:lcidtoname_downlevel.obj
 0002:0000c458       ??_C@_1M@BGNFLDN@?$AAe?$AAs?$AA?9?$AAC?$AAO?$AA?$AA@ 1007e458     libucrt:lcidtoname_downlevel.obj
 0002:0000c468       ??_C@_1O@JMPHMAMC@?$AAs?$AAm?$AAn?$AA?9?$AAF?$AAI?$AA?$AA@ 1007e468     libucrt:lcidtoname_downlevel.obj
 0002:0000c478       ??_C@_1M@JLANABKE@?$AAa?$AAr?$AA?9?$AAS?$AAY?$AA?$AA@ 1007e478     libucrt:lcidtoname_downlevel.obj
 0002:0000c488       ??_C@_1M@HPKGCFGN@?$AAe?$AAn?$AA?9?$AAB?$AAZ?$AA?$AA@ 1007e488     libucrt:lcidtoname_downlevel.obj
 0002:0000c498       ??_C@_1M@OLJCMLGM@?$AAe?$AAs?$AA?9?$AAP?$AAE?$AA?$AA@ 1007e498     libucrt:lcidtoname_downlevel.obj
 0002:0000c4a8       ??_C@_1M@MKKGFKLE@?$AAa?$AAr?$AA?9?$AAJ?$AAO?$AA?$AA@ 1007e4a8     libucrt:lcidtoname_downlevel.obj
 0002:0000c4b8       ??_C@_1M@EKPGLDNI@?$AAe?$AAn?$AA?9?$AAT?$AAT?$AA?$AA@ 1007e4b8     libucrt:lcidtoname_downlevel.obj
 0002:0000c4c8       ??_C@_1M@OONGHFHE@?$AAe?$AAs?$AA?9?$AAA?$AAR?$AA?$AA@ 1007e4c8     libucrt:lcidtoname_downlevel.obj
 0002:0000c4d8       ??_C@_1M@OOJFGBHE@?$AAa?$AAr?$AA?9?$AAL?$AAB?$AA?$AA@ 1007e4d8     libucrt:lcidtoname_downlevel.obj
 0002:0000c4e8       ??_C@_1M@GCEJHNEG@?$AAe?$AAn?$AA?9?$AAZ?$AAW?$AA?$AA@ 1007e4e8     libucrt:lcidtoname_downlevel.obj
 0002:0000c4f8       ??_C@_1M@JNOCAHJI@?$AAe?$AAs?$AA?9?$AAE?$AAC?$AA?$AA@ 1007e4f8     libucrt:lcidtoname_downlevel.obj
 0002:0000c508       ??_C@_1M@JEFHPGGB@?$AAa?$AAr?$AA?9?$AAK?$AAW?$AA?$AA@ 1007e508     libucrt:lcidtoname_downlevel.obj
 0002:0000c518       ??_C@_1M@MLKIBJOJ@?$AAe?$AAn?$AA?9?$AAP?$AAH?$AA?$AA@ 1007e518     libucrt:lcidtoname_downlevel.obj
 0002:0000c528       ??_C@_1M@BDNIPEND@?$AAe?$AAs?$AA?9?$AAC?$AAL?$AA?$AA@ 1007e528     libucrt:lcidtoname_downlevel.obj
 0002:0000c538       ??_C@_1M@MPNMEKBD@?$AAa?$AAr?$AA?9?$AAA?$AAE?$AA?$AA@ 1007e538     libucrt:lcidtoname_downlevel.obj
 0002:0000c548       ??_C@_1M@KBJALCPI@?$AAe?$AAs?$AA?9?$AAU?$AAY?$AA?$AA@ 1007e548     libucrt:lcidtoname_downlevel.obj
 0002:0000c558       ??_C@_1M@LLCCOAGA@?$AAa?$AAr?$AA?9?$AAB?$AAH?$AA?$AA@ 1007e558     libucrt:lcidtoname_downlevel.obj
 0002:0000c568       ??_C@_1M@PBFNCDEL@?$AAe?$AAs?$AA?9?$AAP?$AAY?$AA?$AA@ 1007e568     libucrt:lcidtoname_downlevel.obj
 0002:0000c578       ??_C@_1M@EDGINPNP@?$AAa?$AAr?$AA?9?$AAQ?$AAA?$AA?$AA@ 1007e578     libucrt:lcidtoname_downlevel.obj
 0002:0000c588       ??_C@_1M@MKDBIIJI@?$AAe?$AAs?$AA?9?$AAB?$AAO?$AA?$AA@ 1007e588     libucrt:lcidtoname_downlevel.obj
 0002:0000c598       ??_C@_1M@CPKKEBLD@?$AAe?$AAs?$AA?9?$AAS?$AAV?$AA?$AA@ 1007e598     libucrt:lcidtoname_downlevel.obj
 0002:0000c5a8       ??_C@_1M@NDBGMMJL@?$AAe?$AAs?$AA?9?$AAH?$AAN?$AA?$AA@ 1007e5a8     libucrt:lcidtoname_downlevel.obj
 0002:0000c5b8       ??_C@_1M@JIJIBHDP@?$AAe?$AAs?$AA?9?$AAN?$AAI?$AA?$AA@ 1007e5b8     libucrt:lcidtoname_downlevel.obj
 0002:0000c5c8       ??_C@_1M@CGFMKEEK@?$AAe?$AAs?$AA?9?$AAP?$AAR?$AA?$AA@ 1007e5c8     libucrt:lcidtoname_downlevel.obj
 0002:0000c5d8       ??_C@_1O@ICJHKIIK@?$AAz?$AAh?$AA?9?$AAC?$AAH?$AAT?$AA?$AA@ 1007e5d8     libucrt:lcidtoname_downlevel.obj
 0002:0000c5e8       ??_C@_15CLNEJCE@?$AAs?$AAr?$AA?$AA@ 1007e5e8     libucrt:lcidtoname_downlevel.obj
 0002:0000ce7c       ??_C@_1M@KAHEKEIG@?$AAa?$AAf?$AA?9?$AAz?$AAa?$AA?$AA@ 1007ee7c     libucrt:lcidtoname_downlevel.obj
 0002:0000ce8c       ??_C@_1M@GIECOABL@?$AAa?$AAr?$AA?9?$AAa?$AAe?$AA?$AA@ 1007ee8c     libucrt:lcidtoname_downlevel.obj
 0002:0000ce9c       ??_C@_1M@BMLMEKGI@?$AAa?$AAr?$AA?9?$AAb?$AAh?$AA?$AA@ 1007ee9c     libucrt:lcidtoname_downlevel.obj
 0002:0000ceac       ??_C@_1M@DAPFDGGB@?$AAa?$AAr?$AA?9?$AAd?$AAz?$AA?$AA@ 1007eeac     libucrt:lcidtoname_downlevel.obj
 0002:0000cebc       ??_C@_1M@FJNKGKIG@?$AAa?$AAr?$AA?9?$AAe?$AAg?$AA?$AA@ 1007eebc     libucrt:lcidtoname_downlevel.obj
 0002:0000cecc       ??_C@_1M@FLGKKCLO@?$AAa?$AAr?$AA?9?$AAi?$AAq?$AA?$AA@ 1007eecc     libucrt:lcidtoname_downlevel.obj
 0002:0000cedc       ??_C@_1M@GNDIPALM@?$AAa?$AAr?$AA?9?$AAj?$AAo?$AA?$AA@ 1007eedc     libucrt:lcidtoname_downlevel.obj
 0002:0000ceec       ??_C@_1M@DDMJFMGJ@?$AAa?$AAr?$AA?9?$AAk?$AAw?$AA?$AA@ 1007eeec     libucrt:lcidtoname_downlevel.obj
 0002:0000cefc       ??_C@_1M@EJALMLHM@?$AAa?$AAr?$AA?9?$AAl?$AAb?$AA?$AA@ 1007eefc     libucrt:lcidtoname_downlevel.obj
 0002:0000cf0c       ??_C@_1M@MOBDBLOC@?$AAa?$AAr?$AA?9?$AAl?$AAy?$AA?$AA@ 1007ef0c     libucrt:lcidtoname_downlevel.obj
 0002:0000cf1c       ??_C@_1M@JAOCLHDH@?$AAa?$AAr?$AA?9?$AAm?$AAa?$AA?$AA@ 1007ef1c     libucrt:lcidtoname_downlevel.obj
 0002:0000cf2c       ??_C@_1M@JHPMKJIE@?$AAa?$AAr?$AA?9?$AAo?$AAm?$AA?$AA@ 1007ef2c     libucrt:lcidtoname_downlevel.obj
